
VRSTetrisGame.elf:     file format elf32-littlearm

Sections:
Idx Name          Size      VMA       LMA       File off  Algn
  0 .isr_vector   0000013c  08000000  08000000  00010000  2**0
                  CONTENTS, ALLOC, LOAD, READONLY, DATA
  1 .text         00007c54  0800013c  0800013c  0001013c  2**2
                  CONTENTS, ALLOC, LOAD, READONLY, CODE
  2 .rodata       0000085c  08007d90  08007d90  00017d90  2**2
                  CONTENTS, ALLOC, LOAD, READONLY, DATA
  3 .ARM          00000008  080085ec  080085ec  000185ec  2**2
                  CONTENTS, ALLOC, LOAD, READONLY, DATA
  4 .init_array   00000004  080085f4  080085f4  000185f4  2**2
                  CONTENTS, ALLOC, LOAD, DATA
  5 .fini_array   00000004  080085f8  080085f8  000185f8  2**2
                  CONTENTS, ALLOC, LOAD, DATA
  6 .data         00000004  20000000  080085fc  00020000  2**1
                  CONTENTS, ALLOC, LOAD, DATA
  7 .bss          00000030  20000008  08008600  00020008  2**3
                  ALLOC
  8 ._user_heap_stack 00000400  20000038  08008600  00020038  2**0
                  ALLOC
  9 .ARM.attributes 00000029  00000000  00000000  00020004  2**0
                  CONTENTS, READONLY
 10 .debug_info   000093d3  00000000  00000000  0002002d  2**0
                  CONTENTS, READONLY, DEBUGGING
 11 .debug_abbrev 00001574  00000000  00000000  00029400  2**0
                  CONTENTS, READONLY, DEBUGGING
 12 .debug_aranges 00000a80  00000000  00000000  0002a978  2**3
                  CONTENTS, READONLY, DEBUGGING
 13 .debug_ranges 00000998  00000000  00000000  0002b3f8  2**3
                  CONTENTS, READONLY, DEBUGGING
 14 .debug_line   00004a58  00000000  00000000  0002bd90  2**0
                  CONTENTS, READONLY, DEBUGGING
 15 .debug_str    0000305e  00000000  00000000  000307e8  2**0
                  CONTENTS, READONLY, DEBUGGING
 16 .comment      0000007e  00000000  00000000  00033846  2**0
                  CONTENTS, READONLY
 17 .debug_frame  00002d9c  00000000  00000000  000338c4  2**2
                  CONTENTS, READONLY, DEBUGGING
 18 .stabstr      0000003f  00000000  00000000  00036660  2**0
                  CONTENTS, READONLY, DEBUGGING

Disassembly of section .text:

0800013c <__do_global_dtors_aux>:
 800013c:	b510      	push	{r4, lr}
 800013e:	4c05      	ldr	r4, [pc, #20]	; (8000154 <__do_global_dtors_aux+0x18>)
 8000140:	7823      	ldrb	r3, [r4, #0]
 8000142:	b933      	cbnz	r3, 8000152 <__do_global_dtors_aux+0x16>
 8000144:	4b04      	ldr	r3, [pc, #16]	; (8000158 <__do_global_dtors_aux+0x1c>)
 8000146:	b113      	cbz	r3, 800014e <__do_global_dtors_aux+0x12>
 8000148:	4804      	ldr	r0, [pc, #16]	; (800015c <__do_global_dtors_aux+0x20>)
 800014a:	f3af 8000 	nop.w
 800014e:	2301      	movs	r3, #1
 8000150:	7023      	strb	r3, [r4, #0]
 8000152:	bd10      	pop	{r4, pc}
 8000154:	20000008 	.word	0x20000008
 8000158:	00000000 	.word	0x00000000
 800015c:	08007d78 	.word	0x08007d78

08000160 <frame_dummy>:
 8000160:	b508      	push	{r3, lr}
 8000162:	4b03      	ldr	r3, [pc, #12]	; (8000170 <frame_dummy+0x10>)
 8000164:	b11b      	cbz	r3, 800016e <frame_dummy+0xe>
 8000166:	4903      	ldr	r1, [pc, #12]	; (8000174 <frame_dummy+0x14>)
 8000168:	4803      	ldr	r0, [pc, #12]	; (8000178 <frame_dummy+0x18>)
 800016a:	f3af 8000 	nop.w
 800016e:	bd08      	pop	{r3, pc}
 8000170:	00000000 	.word	0x00000000
 8000174:	2000000c 	.word	0x2000000c
 8000178:	08007d78 	.word	0x08007d78

0800017c <strlen>:
 800017c:	4603      	mov	r3, r0
 800017e:	f813 2b01 	ldrb.w	r2, [r3], #1
 8000182:	2a00      	cmp	r2, #0
 8000184:	d1fb      	bne.n	800017e <strlen+0x2>
 8000186:	1a18      	subs	r0, r3, r0
 8000188:	3801      	subs	r0, #1
 800018a:	4770      	bx	lr

0800018c <__aeabi_uldivmod>:
 800018c:	b953      	cbnz	r3, 80001a4 <__aeabi_uldivmod+0x18>
 800018e:	b94a      	cbnz	r2, 80001a4 <__aeabi_uldivmod+0x18>
 8000190:	2900      	cmp	r1, #0
 8000192:	bf08      	it	eq
 8000194:	2800      	cmpeq	r0, #0
 8000196:	bf1c      	itt	ne
 8000198:	f04f 31ff 	movne.w	r1, #4294967295
 800019c:	f04f 30ff 	movne.w	r0, #4294967295
 80001a0:	f000 b982 	b.w	80004a8 <__aeabi_idiv0>
 80001a4:	f1ad 0c08 	sub.w	ip, sp, #8
 80001a8:	e96d ce04 	strd	ip, lr, [sp, #-16]!
 80001ac:	f000 f806 	bl	80001bc <__udivmoddi4>
 80001b0:	f8dd e004 	ldr.w	lr, [sp, #4]
 80001b4:	e9dd 2302 	ldrd	r2, r3, [sp, #8]
 80001b8:	b004      	add	sp, #16
 80001ba:	4770      	bx	lr

080001bc <__udivmoddi4>:
 80001bc:	e92d 4ff0 	stmdb	sp!, {r4, r5, r6, r7, r8, r9, sl, fp, lr}
 80001c0:	468c      	mov	ip, r1
 80001c2:	460c      	mov	r4, r1
 80001c4:	4605      	mov	r5, r0
 80001c6:	9e09      	ldr	r6, [sp, #36]	; 0x24
 80001c8:	2b00      	cmp	r3, #0
 80001ca:	d14f      	bne.n	800026c <__udivmoddi4+0xb0>
 80001cc:	428a      	cmp	r2, r1
 80001ce:	4617      	mov	r7, r2
 80001d0:	d96b      	bls.n	80002aa <__udivmoddi4+0xee>
 80001d2:	fab2 fe82 	clz	lr, r2
 80001d6:	f1be 0f00 	cmp.w	lr, #0
 80001da:	d00b      	beq.n	80001f4 <__udivmoddi4+0x38>
 80001dc:	f1ce 0520 	rsb	r5, lr, #32
 80001e0:	fa20 f505 	lsr.w	r5, r0, r5
 80001e4:	fa01 f30e 	lsl.w	r3, r1, lr
 80001e8:	ea45 0c03 	orr.w	ip, r5, r3
 80001ec:	fa02 f70e 	lsl.w	r7, r2, lr
 80001f0:	fa00 f50e 	lsl.w	r5, r0, lr
 80001f4:	0c39      	lsrs	r1, r7, #16
 80001f6:	fbbc f0f1 	udiv	r0, ip, r1
 80001fa:	b2ba      	uxth	r2, r7
 80001fc:	fb01 c310 	mls	r3, r1, r0, ip
 8000200:	fb00 f802 	mul.w	r8, r0, r2
 8000204:	ea4f 4c15 	mov.w	ip, r5, lsr #16
 8000208:	ea4c 4403 	orr.w	r4, ip, r3, lsl #16
 800020c:	45a0      	cmp	r8, r4
 800020e:	d909      	bls.n	8000224 <__udivmoddi4+0x68>
 8000210:	19e4      	adds	r4, r4, r7
 8000212:	f100 33ff 	add.w	r3, r0, #4294967295
 8000216:	f080 8128 	bcs.w	800046a <__udivmoddi4+0x2ae>
 800021a:	45a0      	cmp	r8, r4
 800021c:	f240 8125 	bls.w	800046a <__udivmoddi4+0x2ae>
 8000220:	3802      	subs	r0, #2
 8000222:	443c      	add	r4, r7
 8000224:	ebc8 0404 	rsb	r4, r8, r4
 8000228:	fbb4 f3f1 	udiv	r3, r4, r1
 800022c:	fb01 4c13 	mls	ip, r1, r3, r4
 8000230:	fb03 f202 	mul.w	r2, r3, r2
 8000234:	b2ac      	uxth	r4, r5
 8000236:	ea44 410c 	orr.w	r1, r4, ip, lsl #16
 800023a:	428a      	cmp	r2, r1
 800023c:	d909      	bls.n	8000252 <__udivmoddi4+0x96>
 800023e:	19c9      	adds	r1, r1, r7
 8000240:	f103 34ff 	add.w	r4, r3, #4294967295
 8000244:	f080 810f 	bcs.w	8000466 <__udivmoddi4+0x2aa>
 8000248:	428a      	cmp	r2, r1
 800024a:	f240 810c 	bls.w	8000466 <__udivmoddi4+0x2aa>
 800024e:	3b02      	subs	r3, #2
 8000250:	4439      	add	r1, r7
 8000252:	1a8a      	subs	r2, r1, r2
 8000254:	ea43 4000 	orr.w	r0, r3, r0, lsl #16
 8000258:	2100      	movs	r1, #0
 800025a:	2e00      	cmp	r6, #0
 800025c:	d063      	beq.n	8000326 <__udivmoddi4+0x16a>
 800025e:	fa22 f20e 	lsr.w	r2, r2, lr
 8000262:	2300      	movs	r3, #0
 8000264:	e886 000c 	stmia.w	r6, {r2, r3}
 8000268:	e8bd 8ff0 	ldmia.w	sp!, {r4, r5, r6, r7, r8, r9, sl, fp, pc}
 800026c:	428b      	cmp	r3, r1
 800026e:	d907      	bls.n	8000280 <__udivmoddi4+0xc4>
 8000270:	2e00      	cmp	r6, #0
 8000272:	d056      	beq.n	8000322 <__udivmoddi4+0x166>
 8000274:	2100      	movs	r1, #0
 8000276:	e886 0011 	stmia.w	r6, {r0, r4}
 800027a:	4608      	mov	r0, r1
 800027c:	e8bd 8ff0 	ldmia.w	sp!, {r4, r5, r6, r7, r8, r9, sl, fp, pc}
 8000280:	fab3 f183 	clz	r1, r3
 8000284:	2900      	cmp	r1, #0
 8000286:	f040 8093 	bne.w	80003b0 <__udivmoddi4+0x1f4>
 800028a:	42a3      	cmp	r3, r4
 800028c:	d302      	bcc.n	8000294 <__udivmoddi4+0xd8>
 800028e:	4282      	cmp	r2, r0
 8000290:	f200 80fe 	bhi.w	8000490 <__udivmoddi4+0x2d4>
 8000294:	1a85      	subs	r5, r0, r2
 8000296:	eb64 0303 	sbc.w	r3, r4, r3
 800029a:	469c      	mov	ip, r3
 800029c:	2001      	movs	r0, #1
 800029e:	2e00      	cmp	r6, #0
 80002a0:	d041      	beq.n	8000326 <__udivmoddi4+0x16a>
 80002a2:	e886 1020 	stmia.w	r6, {r5, ip}
 80002a6:	e8bd 8ff0 	ldmia.w	sp!, {r4, r5, r6, r7, r8, r9, sl, fp, pc}
 80002aa:	b912      	cbnz	r2, 80002b2 <__udivmoddi4+0xf6>
 80002ac:	2701      	movs	r7, #1
 80002ae:	fbb7 f7f2 	udiv	r7, r7, r2
 80002b2:	fab7 fe87 	clz	lr, r7
 80002b6:	f1be 0f00 	cmp.w	lr, #0
 80002ba:	d136      	bne.n	800032a <__udivmoddi4+0x16e>
 80002bc:	1be4      	subs	r4, r4, r7
 80002be:	ea4f 4817 	mov.w	r8, r7, lsr #16
 80002c2:	fa1f f987 	uxth.w	r9, r7
 80002c6:	2101      	movs	r1, #1
 80002c8:	fbb4 f3f8 	udiv	r3, r4, r8
 80002cc:	fb08 4413 	mls	r4, r8, r3, r4
 80002d0:	fb09 f203 	mul.w	r2, r9, r3
 80002d4:	ea4f 4c15 	mov.w	ip, r5, lsr #16
 80002d8:	ea4c 4404 	orr.w	r4, ip, r4, lsl #16
 80002dc:	42a2      	cmp	r2, r4
 80002de:	d907      	bls.n	80002f0 <__udivmoddi4+0x134>
 80002e0:	19e4      	adds	r4, r4, r7
 80002e2:	f103 30ff 	add.w	r0, r3, #4294967295
 80002e6:	d202      	bcs.n	80002ee <__udivmoddi4+0x132>
 80002e8:	42a2      	cmp	r2, r4
 80002ea:	f200 80d3 	bhi.w	8000494 <__udivmoddi4+0x2d8>
 80002ee:	4603      	mov	r3, r0
 80002f0:	1aa4      	subs	r4, r4, r2
 80002f2:	fbb4 f0f8 	udiv	r0, r4, r8
 80002f6:	fb08 4810 	mls	r8, r8, r0, r4
 80002fa:	fb09 f900 	mul.w	r9, r9, r0
 80002fe:	b2ac      	uxth	r4, r5
 8000300:	ea44 4208 	orr.w	r2, r4, r8, lsl #16
 8000304:	4591      	cmp	r9, r2
 8000306:	d907      	bls.n	8000318 <__udivmoddi4+0x15c>
 8000308:	19d2      	adds	r2, r2, r7
 800030a:	f100 34ff 	add.w	r4, r0, #4294967295
 800030e:	d202      	bcs.n	8000316 <__udivmoddi4+0x15a>
 8000310:	4591      	cmp	r9, r2
 8000312:	f200 80ba 	bhi.w	800048a <__udivmoddi4+0x2ce>
 8000316:	4620      	mov	r0, r4
 8000318:	ebc9 0202 	rsb	r2, r9, r2
 800031c:	ea40 4003 	orr.w	r0, r0, r3, lsl #16
 8000320:	e79b      	b.n	800025a <__udivmoddi4+0x9e>
 8000322:	4631      	mov	r1, r6
 8000324:	4630      	mov	r0, r6
 8000326:	e8bd 8ff0 	ldmia.w	sp!, {r4, r5, r6, r7, r8, r9, sl, fp, pc}
 800032a:	fa07 f70e 	lsl.w	r7, r7, lr
 800032e:	f1ce 0c20 	rsb	ip, lr, #32
 8000332:	fa24 f30c 	lsr.w	r3, r4, ip
 8000336:	ea4f 4817 	mov.w	r8, r7, lsr #16
 800033a:	fbb3 faf8 	udiv	sl, r3, r8
 800033e:	fa1f f987 	uxth.w	r9, r7
 8000342:	fb08 351a 	mls	r5, r8, sl, r3
 8000346:	fa20 fc0c 	lsr.w	ip, r0, ip
 800034a:	fa04 f40e 	lsl.w	r4, r4, lr
 800034e:	fb0a fb09 	mul.w	fp, sl, r9
 8000352:	ea4c 0c04 	orr.w	ip, ip, r4
 8000356:	ea4f 421c 	mov.w	r2, ip, lsr #16
 800035a:	ea42 4305 	orr.w	r3, r2, r5, lsl #16
 800035e:	459b      	cmp	fp, r3
 8000360:	fa00 f50e 	lsl.w	r5, r0, lr
 8000364:	d90a      	bls.n	800037c <__udivmoddi4+0x1c0>
 8000366:	19db      	adds	r3, r3, r7
 8000368:	f10a 32ff 	add.w	r2, sl, #4294967295
 800036c:	f080 808b 	bcs.w	8000486 <__udivmoddi4+0x2ca>
 8000370:	459b      	cmp	fp, r3
 8000372:	f240 8088 	bls.w	8000486 <__udivmoddi4+0x2ca>
 8000376:	f1aa 0a02 	sub.w	sl, sl, #2
 800037a:	443b      	add	r3, r7
 800037c:	ebcb 0303 	rsb	r3, fp, r3
 8000380:	fbb3 f0f8 	udiv	r0, r3, r8
 8000384:	fb08 3310 	mls	r3, r8, r0, r3
 8000388:	fb00 f409 	mul.w	r4, r0, r9
 800038c:	fa1f fc8c 	uxth.w	ip, ip
 8000390:	ea4c 4303 	orr.w	r3, ip, r3, lsl #16
 8000394:	429c      	cmp	r4, r3
 8000396:	d907      	bls.n	80003a8 <__udivmoddi4+0x1ec>
 8000398:	19db      	adds	r3, r3, r7
 800039a:	f100 32ff 	add.w	r2, r0, #4294967295
 800039e:	d26e      	bcs.n	800047e <__udivmoddi4+0x2c2>
 80003a0:	429c      	cmp	r4, r3
 80003a2:	d96c      	bls.n	800047e <__udivmoddi4+0x2c2>
 80003a4:	3802      	subs	r0, #2
 80003a6:	443b      	add	r3, r7
 80003a8:	1b1c      	subs	r4, r3, r4
 80003aa:	ea40 410a 	orr.w	r1, r0, sl, lsl #16
 80003ae:	e78b      	b.n	80002c8 <__udivmoddi4+0x10c>
 80003b0:	f1c1 0e20 	rsb	lr, r1, #32
 80003b4:	408b      	lsls	r3, r1
 80003b6:	fa22 fc0e 	lsr.w	ip, r2, lr
 80003ba:	ea4c 0c03 	orr.w	ip, ip, r3
 80003be:	fa24 f70e 	lsr.w	r7, r4, lr
 80003c2:	ea4f 491c 	mov.w	r9, ip, lsr #16
 80003c6:	fbb7 faf9 	udiv	sl, r7, r9
 80003ca:	fa1f f38c 	uxth.w	r3, ip
 80003ce:	fb09 771a 	mls	r7, r9, sl, r7
 80003d2:	fa20 f80e 	lsr.w	r8, r0, lr
 80003d6:	408c      	lsls	r4, r1
 80003d8:	fb0a f503 	mul.w	r5, sl, r3
 80003dc:	ea48 0404 	orr.w	r4, r8, r4
 80003e0:	ea4f 4814 	mov.w	r8, r4, lsr #16
 80003e4:	ea48 4707 	orr.w	r7, r8, r7, lsl #16
 80003e8:	42bd      	cmp	r5, r7
 80003ea:	fa02 f201 	lsl.w	r2, r2, r1
 80003ee:	fa00 fb01 	lsl.w	fp, r0, r1
 80003f2:	d909      	bls.n	8000408 <__udivmoddi4+0x24c>
 80003f4:	eb17 070c 	adds.w	r7, r7, ip
 80003f8:	f10a 30ff 	add.w	r0, sl, #4294967295
 80003fc:	d241      	bcs.n	8000482 <__udivmoddi4+0x2c6>
 80003fe:	42bd      	cmp	r5, r7
 8000400:	d93f      	bls.n	8000482 <__udivmoddi4+0x2c6>
 8000402:	f1aa 0a02 	sub.w	sl, sl, #2
 8000406:	4467      	add	r7, ip
 8000408:	1b7f      	subs	r7, r7, r5
 800040a:	fbb7 f5f9 	udiv	r5, r7, r9
 800040e:	fb09 7715 	mls	r7, r9, r5, r7
 8000412:	fb05 f303 	mul.w	r3, r5, r3
 8000416:	b2a4      	uxth	r4, r4
 8000418:	ea44 4707 	orr.w	r7, r4, r7, lsl #16
 800041c:	42bb      	cmp	r3, r7
 800041e:	d908      	bls.n	8000432 <__udivmoddi4+0x276>
 8000420:	eb17 070c 	adds.w	r7, r7, ip
 8000424:	f105 30ff 	add.w	r0, r5, #4294967295
 8000428:	d227      	bcs.n	800047a <__udivmoddi4+0x2be>
 800042a:	42bb      	cmp	r3, r7
 800042c:	d925      	bls.n	800047a <__udivmoddi4+0x2be>
 800042e:	3d02      	subs	r5, #2
 8000430:	4467      	add	r7, ip
 8000432:	ea45 400a 	orr.w	r0, r5, sl, lsl #16
 8000436:	fba0 8902 	umull	r8, r9, r0, r2
 800043a:	1aff      	subs	r7, r7, r3
 800043c:	454f      	cmp	r7, r9
 800043e:	4645      	mov	r5, r8
 8000440:	464c      	mov	r4, r9
 8000442:	d314      	bcc.n	800046e <__udivmoddi4+0x2b2>
 8000444:	d029      	beq.n	800049a <__udivmoddi4+0x2de>
 8000446:	b366      	cbz	r6, 80004a2 <__udivmoddi4+0x2e6>
 8000448:	ebbb 0305 	subs.w	r3, fp, r5
 800044c:	eb67 0704 	sbc.w	r7, r7, r4
 8000450:	fa07 fe0e 	lsl.w	lr, r7, lr
 8000454:	40cb      	lsrs	r3, r1
 8000456:	40cf      	lsrs	r7, r1
 8000458:	ea4e 0303 	orr.w	r3, lr, r3
 800045c:	e886 0088 	stmia.w	r6, {r3, r7}
 8000460:	2100      	movs	r1, #0
 8000462:	e8bd 8ff0 	ldmia.w	sp!, {r4, r5, r6, r7, r8, r9, sl, fp, pc}
 8000466:	4623      	mov	r3, r4
 8000468:	e6f3      	b.n	8000252 <__udivmoddi4+0x96>
 800046a:	4618      	mov	r0, r3
 800046c:	e6da      	b.n	8000224 <__udivmoddi4+0x68>
 800046e:	ebb8 0502 	subs.w	r5, r8, r2
 8000472:	eb69 040c 	sbc.w	r4, r9, ip
 8000476:	3801      	subs	r0, #1
 8000478:	e7e5      	b.n	8000446 <__udivmoddi4+0x28a>
 800047a:	4605      	mov	r5, r0
 800047c:	e7d9      	b.n	8000432 <__udivmoddi4+0x276>
 800047e:	4610      	mov	r0, r2
 8000480:	e792      	b.n	80003a8 <__udivmoddi4+0x1ec>
 8000482:	4682      	mov	sl, r0
 8000484:	e7c0      	b.n	8000408 <__udivmoddi4+0x24c>
 8000486:	4692      	mov	sl, r2
 8000488:	e778      	b.n	800037c <__udivmoddi4+0x1c0>
 800048a:	3802      	subs	r0, #2
 800048c:	443a      	add	r2, r7
 800048e:	e743      	b.n	8000318 <__udivmoddi4+0x15c>
 8000490:	4608      	mov	r0, r1
 8000492:	e704      	b.n	800029e <__udivmoddi4+0xe2>
 8000494:	3b02      	subs	r3, #2
 8000496:	443c      	add	r4, r7
 8000498:	e72a      	b.n	80002f0 <__udivmoddi4+0x134>
 800049a:	45c3      	cmp	fp, r8
 800049c:	d3e7      	bcc.n	800046e <__udivmoddi4+0x2b2>
 800049e:	463c      	mov	r4, r7
 80004a0:	e7d1      	b.n	8000446 <__udivmoddi4+0x28a>
 80004a2:	4631      	mov	r1, r6
 80004a4:	e8bd 8ff0 	ldmia.w	sp!, {r4, r5, r6, r7, r8, r9, sl, fp, pc}

080004a8 <__aeabi_idiv0>:
 80004a8:	4770      	bx	lr
 80004aa:	bf00      	nop

080004ac <NVIC_PriorityGroupConfig>:
  *     @arg NVIC_PriorityGroup_4: 4 bits for preemption priority.
  *                                0 bits for subpriority.
  * @retval None
  */
void NVIC_PriorityGroupConfig(uint32_t NVIC_PriorityGroup)
{
 80004ac:	b480      	push	{r7}
 80004ae:	b083      	sub	sp, #12
 80004b0:	af00      	add	r7, sp, #0
 80004b2:	6078      	str	r0, [r7, #4]
  /* Check the parameters */
  assert_param(IS_NVIC_PRIORITY_GROUP(NVIC_PriorityGroup));
  
  /* Set the PRIGROUP[10:8] bits according to NVIC_PriorityGroup value */
  SCB->AIRCR = AIRCR_VECTKEY_MASK | NVIC_PriorityGroup;
 80004b4:	4a05      	ldr	r2, [pc, #20]	; (80004cc <NVIC_PriorityGroupConfig+0x20>)
 80004b6:	687b      	ldr	r3, [r7, #4]
 80004b8:	f043 63bf 	orr.w	r3, r3, #100139008	; 0x5f80000
 80004bc:	f443 3300 	orr.w	r3, r3, #131072	; 0x20000
 80004c0:	60d3      	str	r3, [r2, #12]
}
 80004c2:	bf00      	nop
 80004c4:	370c      	adds	r7, #12
 80004c6:	46bd      	mov	sp, r7
 80004c8:	bc80      	pop	{r7}
 80004ca:	4770      	bx	lr
 80004cc:	e000ed00 	.word	0xe000ed00

080004d0 <NVIC_Init>:
  * @param  NVIC_InitStruct: pointer to a NVIC_InitTypeDef structure that contains
  *         the configuration information for the specified NVIC peripheral.
  * @retval None
  */
void NVIC_Init(NVIC_InitTypeDef* NVIC_InitStruct)
{
 80004d0:	b480      	push	{r7}
 80004d2:	b085      	sub	sp, #20
 80004d4:	af00      	add	r7, sp, #0
 80004d6:	6078      	str	r0, [r7, #4]
  uint8_t tmppriority = 0x00, tmppre = 0x00, tmpsub = 0x0F;
 80004d8:	2300      	movs	r3, #0
 80004da:	73fb      	strb	r3, [r7, #15]
 80004dc:	2300      	movs	r3, #0
 80004de:	73bb      	strb	r3, [r7, #14]
 80004e0:	230f      	movs	r3, #15
 80004e2:	737b      	strb	r3, [r7, #13]
  /* Check the parameters */
  assert_param(IS_FUNCTIONAL_STATE(NVIC_InitStruct->NVIC_IRQChannelCmd));
  assert_param(IS_NVIC_PREEMPTION_PRIORITY(NVIC_InitStruct->NVIC_IRQChannelPreemptionPriority));  
  assert_param(IS_NVIC_SUB_PRIORITY(NVIC_InitStruct->NVIC_IRQChannelSubPriority));
    
  if (NVIC_InitStruct->NVIC_IRQChannelCmd != DISABLE)
 80004e4:	687b      	ldr	r3, [r7, #4]
 80004e6:	78db      	ldrb	r3, [r3, #3]
 80004e8:	2b00      	cmp	r3, #0
 80004ea:	d038      	beq.n	800055e <NVIC_Init+0x8e>
  {
    /* Compute the Corresponding IRQ Priority --------------------------------*/    
    tmppriority = (0x700 - ((SCB->AIRCR) & (uint32_t)0x700))>> 0x08;
 80004ec:	4b26      	ldr	r3, [pc, #152]	; (8000588 <NVIC_Init+0xb8>)
 80004ee:	68db      	ldr	r3, [r3, #12]
 80004f0:	43db      	mvns	r3, r3
 80004f2:	f403 63e0 	and.w	r3, r3, #1792	; 0x700
 80004f6:	0a1b      	lsrs	r3, r3, #8
 80004f8:	73fb      	strb	r3, [r7, #15]
    tmppre = (0x4 - tmppriority);
 80004fa:	7bfb      	ldrb	r3, [r7, #15]
 80004fc:	f1c3 0304 	rsb	r3, r3, #4
 8000500:	73bb      	strb	r3, [r7, #14]
    tmpsub = tmpsub >> tmppriority;
 8000502:	7b7a      	ldrb	r2, [r7, #13]
 8000504:	7bfb      	ldrb	r3, [r7, #15]
 8000506:	fa42 f303 	asr.w	r3, r2, r3
 800050a:	737b      	strb	r3, [r7, #13]

    tmppriority = (uint32_t)NVIC_InitStruct->NVIC_IRQChannelPreemptionPriority << tmppre;
 800050c:	687b      	ldr	r3, [r7, #4]
 800050e:	785b      	ldrb	r3, [r3, #1]
 8000510:	461a      	mov	r2, r3
 8000512:	7bbb      	ldrb	r3, [r7, #14]
 8000514:	fa02 f303 	lsl.w	r3, r2, r3
 8000518:	73fb      	strb	r3, [r7, #15]
    tmppriority |=  (uint8_t)(NVIC_InitStruct->NVIC_IRQChannelSubPriority & tmpsub);
 800051a:	687b      	ldr	r3, [r7, #4]
 800051c:	789a      	ldrb	r2, [r3, #2]
 800051e:	7b7b      	ldrb	r3, [r7, #13]
 8000520:	4013      	ands	r3, r2
 8000522:	b2da      	uxtb	r2, r3
 8000524:	7bfb      	ldrb	r3, [r7, #15]
 8000526:	4313      	orrs	r3, r2
 8000528:	73fb      	strb	r3, [r7, #15]
    tmppriority = tmppriority << 0x04;
 800052a:	7bfb      	ldrb	r3, [r7, #15]
 800052c:	011b      	lsls	r3, r3, #4
 800052e:	73fb      	strb	r3, [r7, #15]
        
    NVIC->IP[NVIC_InitStruct->NVIC_IRQChannel] = tmppriority;
 8000530:	4a16      	ldr	r2, [pc, #88]	; (800058c <NVIC_Init+0xbc>)
 8000532:	687b      	ldr	r3, [r7, #4]
 8000534:	781b      	ldrb	r3, [r3, #0]
 8000536:	4413      	add	r3, r2
 8000538:	7bfa      	ldrb	r2, [r7, #15]
 800053a:	f883 2300 	strb.w	r2, [r3, #768]	; 0x300
    
    /* Enable the Selected IRQ Channels --------------------------------------*/
    NVIC->ISER[NVIC_InitStruct->NVIC_IRQChannel >> 0x05] =
 800053e:	4a13      	ldr	r2, [pc, #76]	; (800058c <NVIC_Init+0xbc>)
 8000540:	687b      	ldr	r3, [r7, #4]
 8000542:	781b      	ldrb	r3, [r3, #0]
 8000544:	095b      	lsrs	r3, r3, #5
 8000546:	b2db      	uxtb	r3, r3
 8000548:	4618      	mov	r0, r3
      (uint32_t)0x01 << (NVIC_InitStruct->NVIC_IRQChannel & (uint8_t)0x1F);
 800054a:	687b      	ldr	r3, [r7, #4]
 800054c:	781b      	ldrb	r3, [r3, #0]
 800054e:	f003 031f 	and.w	r3, r3, #31
 8000552:	2101      	movs	r1, #1
 8000554:	fa01 f303 	lsl.w	r3, r1, r3
    tmppriority = tmppriority << 0x04;
        
    NVIC->IP[NVIC_InitStruct->NVIC_IRQChannel] = tmppriority;
    
    /* Enable the Selected IRQ Channels --------------------------------------*/
    NVIC->ISER[NVIC_InitStruct->NVIC_IRQChannel >> 0x05] =
 8000558:	f842 3020 	str.w	r3, [r2, r0, lsl #2]
  {
    /* Disable the Selected IRQ Channels -------------------------------------*/
    NVIC->ICER[NVIC_InitStruct->NVIC_IRQChannel >> 0x05] =
      (uint32_t)0x01 << (NVIC_InitStruct->NVIC_IRQChannel & (uint8_t)0x1F);
  }
}
 800055c:	e00f      	b.n	800057e <NVIC_Init+0xae>
      (uint32_t)0x01 << (NVIC_InitStruct->NVIC_IRQChannel & (uint8_t)0x1F);
  }
  else
  {
    /* Disable the Selected IRQ Channels -------------------------------------*/
    NVIC->ICER[NVIC_InitStruct->NVIC_IRQChannel >> 0x05] =
 800055e:	490b      	ldr	r1, [pc, #44]	; (800058c <NVIC_Init+0xbc>)
 8000560:	687b      	ldr	r3, [r7, #4]
 8000562:	781b      	ldrb	r3, [r3, #0]
 8000564:	095b      	lsrs	r3, r3, #5
 8000566:	b2db      	uxtb	r3, r3
 8000568:	4618      	mov	r0, r3
      (uint32_t)0x01 << (NVIC_InitStruct->NVIC_IRQChannel & (uint8_t)0x1F);
 800056a:	687b      	ldr	r3, [r7, #4]
 800056c:	781b      	ldrb	r3, [r3, #0]
 800056e:	f003 031f 	and.w	r3, r3, #31
 8000572:	2201      	movs	r2, #1
 8000574:	409a      	lsls	r2, r3
      (uint32_t)0x01 << (NVIC_InitStruct->NVIC_IRQChannel & (uint8_t)0x1F);
  }
  else
  {
    /* Disable the Selected IRQ Channels -------------------------------------*/
    NVIC->ICER[NVIC_InitStruct->NVIC_IRQChannel >> 0x05] =
 8000576:	f100 0320 	add.w	r3, r0, #32
 800057a:	f841 2023 	str.w	r2, [r1, r3, lsl #2]
      (uint32_t)0x01 << (NVIC_InitStruct->NVIC_IRQChannel & (uint8_t)0x1F);
  }
}
 800057e:	bf00      	nop
 8000580:	3714      	adds	r7, #20
 8000582:	46bd      	mov	sp, r7
 8000584:	bc80      	pop	{r7}
 8000586:	4770      	bx	lr
 8000588:	e000ed00 	.word	0xe000ed00
 800058c:	e000e100 	.word	0xe000e100

08000590 <ADC_Init>:
  * @param  ADC_InitStruct: pointer to an ADC_InitTypeDef structure that contains 
  *         the configuration information for the specified ADC peripheral.
  * @retval None
  */
void ADC_Init(ADC_TypeDef* ADCx, ADC_InitTypeDef* ADC_InitStruct)               
{
 8000590:	b480      	push	{r7}
 8000592:	b085      	sub	sp, #20
 8000594:	af00      	add	r7, sp, #0
 8000596:	6078      	str	r0, [r7, #4]
 8000598:	6039      	str	r1, [r7, #0]
  uint32_t tmpreg1 = 0;
 800059a:	2300      	movs	r3, #0
 800059c:	60fb      	str	r3, [r7, #12]
  uint8_t tmpreg2 = 0;
 800059e:	2300      	movs	r3, #0
 80005a0:	72fb      	strb	r3, [r7, #11]
  assert_param(IS_ADC_DATA_ALIGN(ADC_InitStruct->ADC_DataAlign)); 
  assert_param(IS_ADC_REGULAR_LENGTH(ADC_InitStruct->ADC_NbrOfConversion));
  
  /*---------------------------- ADCx CR1 Configuration -----------------*/
  /* Get the ADCx CR1 value */
  tmpreg1 = ADCx->CR1;
 80005a2:	687b      	ldr	r3, [r7, #4]
 80005a4:	685b      	ldr	r3, [r3, #4]
 80005a6:	60fb      	str	r3, [r7, #12]
  /* Clear RES and SCAN bits */ 
  tmpreg1 &= CR1_CLEAR_MASK;
 80005a8:	68fb      	ldr	r3, [r7, #12]
 80005aa:	f023 7340 	bic.w	r3, r3, #50331648	; 0x3000000
 80005ae:	f423 7380 	bic.w	r3, r3, #256	; 0x100
 80005b2:	60fb      	str	r3, [r7, #12]
  /* Configure ADCx: scan conversion mode and resolution */
  /* Set SCAN bit according to ADC_ScanConvMode value */
  /* Set RES bit according to ADC_Resolution value */ 
  tmpreg1 |= (uint32_t)(((uint32_t)ADC_InitStruct->ADC_ScanConvMode << 8) | ADC_InitStruct->ADC_Resolution);
 80005b4:	683b      	ldr	r3, [r7, #0]
 80005b6:	791b      	ldrb	r3, [r3, #4]
 80005b8:	021a      	lsls	r2, r3, #8
 80005ba:	683b      	ldr	r3, [r7, #0]
 80005bc:	681b      	ldr	r3, [r3, #0]
 80005be:	4313      	orrs	r3, r2
 80005c0:	68fa      	ldr	r2, [r7, #12]
 80005c2:	4313      	orrs	r3, r2
 80005c4:	60fb      	str	r3, [r7, #12]
  /* Write to ADCx CR1 */
  ADCx->CR1 = tmpreg1;
 80005c6:	687b      	ldr	r3, [r7, #4]
 80005c8:	68fa      	ldr	r2, [r7, #12]
 80005ca:	605a      	str	r2, [r3, #4]
  
  /*---------------------------- ADCx CR2 Configuration -----------------*/
  /* Get the ADCx CR2 value */
  tmpreg1 = ADCx->CR2;
 80005cc:	687b      	ldr	r3, [r7, #4]
 80005ce:	689b      	ldr	r3, [r3, #8]
 80005d0:	60fb      	str	r3, [r7, #12]
  /* Clear CONT, ALIGN, EXTEN and EXTSEL bits */
  tmpreg1 &= CR2_CLEAR_MASK;
 80005d2:	68fa      	ldr	r2, [r7, #12]
 80005d4:	4b17      	ldr	r3, [pc, #92]	; (8000634 <ADC_Init+0xa4>)
 80005d6:	4013      	ands	r3, r2
 80005d8:	60fb      	str	r3, [r7, #12]
  /* Configure ADCx: external trigger event and edge, data alignment and continuous conversion mode */
  /* Set ALIGN bit according to ADC_DataAlign value */
  /* Set EXTEN bits according to ADC_ExternalTrigConvEdge value */ 
  /* Set EXTSEL bits according to ADC_ExternalTrigConv value */
  /* Set CONT bit according to ADC_ContinuousConvMode value */
  tmpreg1 |= (uint32_t)(ADC_InitStruct->ADC_DataAlign | ADC_InitStruct->ADC_ExternalTrigConv | 
 80005da:	683b      	ldr	r3, [r7, #0]
 80005dc:	691a      	ldr	r2, [r3, #16]
 80005de:	683b      	ldr	r3, [r7, #0]
 80005e0:	68db      	ldr	r3, [r3, #12]
 80005e2:	431a      	orrs	r2, r3
              ADC_InitStruct->ADC_ExternalTrigConvEdge | ((uint32_t)ADC_InitStruct->ADC_ContinuousConvMode << 1));
 80005e4:	683b      	ldr	r3, [r7, #0]
 80005e6:	689b      	ldr	r3, [r3, #8]
  /* Configure ADCx: external trigger event and edge, data alignment and continuous conversion mode */
  /* Set ALIGN bit according to ADC_DataAlign value */
  /* Set EXTEN bits according to ADC_ExternalTrigConvEdge value */ 
  /* Set EXTSEL bits according to ADC_ExternalTrigConv value */
  /* Set CONT bit according to ADC_ContinuousConvMode value */
  tmpreg1 |= (uint32_t)(ADC_InitStruct->ADC_DataAlign | ADC_InitStruct->ADC_ExternalTrigConv | 
 80005e8:	431a      	orrs	r2, r3
              ADC_InitStruct->ADC_ExternalTrigConvEdge | ((uint32_t)ADC_InitStruct->ADC_ContinuousConvMode << 1));
 80005ea:	683b      	ldr	r3, [r7, #0]
 80005ec:	795b      	ldrb	r3, [r3, #5]
 80005ee:	005b      	lsls	r3, r3, #1
  /* Configure ADCx: external trigger event and edge, data alignment and continuous conversion mode */
  /* Set ALIGN bit according to ADC_DataAlign value */
  /* Set EXTEN bits according to ADC_ExternalTrigConvEdge value */ 
  /* Set EXTSEL bits according to ADC_ExternalTrigConv value */
  /* Set CONT bit according to ADC_ContinuousConvMode value */
  tmpreg1 |= (uint32_t)(ADC_InitStruct->ADC_DataAlign | ADC_InitStruct->ADC_ExternalTrigConv | 
 80005f0:	4313      	orrs	r3, r2
 80005f2:	68fa      	ldr	r2, [r7, #12]
 80005f4:	4313      	orrs	r3, r2
 80005f6:	60fb      	str	r3, [r7, #12]
              ADC_InitStruct->ADC_ExternalTrigConvEdge | ((uint32_t)ADC_InitStruct->ADC_ContinuousConvMode << 1));
  /* Write to ADCx CR2 */
  ADCx->CR2 = tmpreg1;
 80005f8:	687b      	ldr	r3, [r7, #4]
 80005fa:	68fa      	ldr	r2, [r7, #12]
 80005fc:	609a      	str	r2, [r3, #8]
  
  /*---------------------------- ADCx SQR1 Configuration -----------------*/
  /* Get the ADCx SQR1 value */
  tmpreg1 = ADCx->SQR1;
 80005fe:	687b      	ldr	r3, [r7, #4]
 8000600:	6b1b      	ldr	r3, [r3, #48]	; 0x30
 8000602:	60fb      	str	r3, [r7, #12]
  /* Clear L bits */
  tmpreg1 &= SQR1_L_RESET;
 8000604:	68fb      	ldr	r3, [r7, #12]
 8000606:	f023 73f8 	bic.w	r3, r3, #32505856	; 0x1f00000
 800060a:	60fb      	str	r3, [r7, #12]
  /* Configure ADCx: regular channel sequence length */
  /* Set L bits according to ADC_NbrOfConversion value */ 
  tmpreg2 |= (uint8_t)(ADC_InitStruct->ADC_NbrOfConversion - (uint8_t)1);
 800060c:	683b      	ldr	r3, [r7, #0]
 800060e:	7d1b      	ldrb	r3, [r3, #20]
 8000610:	3b01      	subs	r3, #1
 8000612:	b2da      	uxtb	r2, r3
 8000614:	7afb      	ldrb	r3, [r7, #11]
 8000616:	4313      	orrs	r3, r2
 8000618:	72fb      	strb	r3, [r7, #11]
  tmpreg1 |= ((uint32_t)tmpreg2 << 20);
 800061a:	7afb      	ldrb	r3, [r7, #11]
 800061c:	051b      	lsls	r3, r3, #20
 800061e:	68fa      	ldr	r2, [r7, #12]
 8000620:	4313      	orrs	r3, r2
 8000622:	60fb      	str	r3, [r7, #12]
  /* Write to ADCx SQR1 */
  ADCx->SQR1 = tmpreg1;
 8000624:	687b      	ldr	r3, [r7, #4]
 8000626:	68fa      	ldr	r2, [r7, #12]
 8000628:	631a      	str	r2, [r3, #48]	; 0x30
}
 800062a:	bf00      	nop
 800062c:	3714      	adds	r7, #20
 800062e:	46bd      	mov	sp, r7
 8000630:	bc80      	pop	{r7}
 8000632:	4770      	bx	lr
 8000634:	c0fff7fd 	.word	0xc0fff7fd

08000638 <ADC_StructInit>:
  * @param  ADC_InitStruct: pointer to an ADC_InitTypeDef structure which will 
  *         be initialized.
  * @retval None
  */
void ADC_StructInit(ADC_InitTypeDef* ADC_InitStruct)                            
{
 8000638:	b480      	push	{r7}
 800063a:	b083      	sub	sp, #12
 800063c:	af00      	add	r7, sp, #0
 800063e:	6078      	str	r0, [r7, #4]
  /* Reset ADC init structure parameters values */
  /* Initialize the ADC_Resolution member */
  ADC_InitStruct->ADC_Resolution = ADC_Resolution_12b;
 8000640:	687b      	ldr	r3, [r7, #4]
 8000642:	2200      	movs	r2, #0
 8000644:	601a      	str	r2, [r3, #0]

  /* Initialize the ADC_ScanConvMode member */
  ADC_InitStruct->ADC_ScanConvMode = DISABLE;
 8000646:	687b      	ldr	r3, [r7, #4]
 8000648:	2200      	movs	r2, #0
 800064a:	711a      	strb	r2, [r3, #4]

  /* Initialize the ADC_ContinuousConvMode member */
  ADC_InitStruct->ADC_ContinuousConvMode = DISABLE;
 800064c:	687b      	ldr	r3, [r7, #4]
 800064e:	2200      	movs	r2, #0
 8000650:	715a      	strb	r2, [r3, #5]

  /* Initialize the ADC_ExternalTrigConvEdge member */
  ADC_InitStruct->ADC_ExternalTrigConvEdge = ADC_ExternalTrigConvEdge_None;
 8000652:	687b      	ldr	r3, [r7, #4]
 8000654:	2200      	movs	r2, #0
 8000656:	609a      	str	r2, [r3, #8]

  /* Initialize the ADC_ExternalTrigConv member */
  ADC_InitStruct->ADC_ExternalTrigConv = ADC_ExternalTrigConv_T2_CC2;
 8000658:	687b      	ldr	r3, [r7, #4]
 800065a:	f04f 7240 	mov.w	r2, #50331648	; 0x3000000
 800065e:	60da      	str	r2, [r3, #12]

  /* Initialize the ADC_DataAlign member */
  ADC_InitStruct->ADC_DataAlign = ADC_DataAlign_Right;
 8000660:	687b      	ldr	r3, [r7, #4]
 8000662:	2200      	movs	r2, #0
 8000664:	611a      	str	r2, [r3, #16]

  /* Initialize the ADC_NbrOfConversion member */
  ADC_InitStruct->ADC_NbrOfConversion = 1;
 8000666:	687b      	ldr	r3, [r7, #4]
 8000668:	2201      	movs	r2, #1
 800066a:	751a      	strb	r2, [r3, #20]
}
 800066c:	bf00      	nop
 800066e:	370c      	adds	r7, #12
 8000670:	46bd      	mov	sp, r7
 8000672:	bc80      	pop	{r7}
 8000674:	4770      	bx	lr
 8000676:	bf00      	nop

08000678 <ADC_Cmd>:
  * @param  NewState: new state of the ADCx peripheral.
  *         This parameter can be: ENABLE or DISABLE.
  * @retval None
  */
void ADC_Cmd(ADC_TypeDef* ADCx, FunctionalState NewState)
{
 8000678:	b480      	push	{r7}
 800067a:	b083      	sub	sp, #12
 800067c:	af00      	add	r7, sp, #0
 800067e:	6078      	str	r0, [r7, #4]
 8000680:	460b      	mov	r3, r1
 8000682:	70fb      	strb	r3, [r7, #3]
  /* Check the parameters */
  assert_param(IS_ADC_ALL_PERIPH(ADCx));
  assert_param(IS_FUNCTIONAL_STATE(NewState));

  if (NewState != DISABLE)
 8000684:	78fb      	ldrb	r3, [r7, #3]
 8000686:	2b00      	cmp	r3, #0
 8000688:	d006      	beq.n	8000698 <ADC_Cmd+0x20>
  {
    /* Set the ADON bit to wake up the ADC from power down mode */
    ADCx->CR2 |= (uint32_t)ADC_CR2_ADON;
 800068a:	687b      	ldr	r3, [r7, #4]
 800068c:	689b      	ldr	r3, [r3, #8]
 800068e:	f043 0201 	orr.w	r2, r3, #1
 8000692:	687b      	ldr	r3, [r7, #4]
 8000694:	609a      	str	r2, [r3, #8]
  else
  {
    /* Disable the selected ADC peripheral */
    ADCx->CR2 &= (uint32_t)(~ADC_CR2_ADON);
  }
}
 8000696:	e005      	b.n	80006a4 <ADC_Cmd+0x2c>
    ADCx->CR2 |= (uint32_t)ADC_CR2_ADON;
  }
  else
  {
    /* Disable the selected ADC peripheral */
    ADCx->CR2 &= (uint32_t)(~ADC_CR2_ADON);
 8000698:	687b      	ldr	r3, [r7, #4]
 800069a:	689b      	ldr	r3, [r3, #8]
 800069c:	f023 0201 	bic.w	r2, r3, #1
 80006a0:	687b      	ldr	r3, [r7, #4]
 80006a2:	609a      	str	r2, [r3, #8]
  }
}
 80006a4:	bf00      	nop
 80006a6:	370c      	adds	r7, #12
 80006a8:	46bd      	mov	sp, r7
 80006aa:	bc80      	pop	{r7}
 80006ac:	4770      	bx	lr
 80006ae:	bf00      	nop

080006b0 <ADC_RegularChannelConfig>:
  *     @arg ADC_SampleTime_192Cycles: Sample time equal to 192 cycles	
  *     @arg ADC_SampleTime_384Cycles: Sample time equal to 384 cycles	
  * @retval None
  */
void ADC_RegularChannelConfig(ADC_TypeDef* ADCx, uint8_t ADC_Channel, uint8_t Rank, uint8_t ADC_SampleTime)
{
 80006b0:	b480      	push	{r7}
 80006b2:	b085      	sub	sp, #20
 80006b4:	af00      	add	r7, sp, #0
 80006b6:	6078      	str	r0, [r7, #4]
 80006b8:	4608      	mov	r0, r1
 80006ba:	4611      	mov	r1, r2
 80006bc:	461a      	mov	r2, r3
 80006be:	4603      	mov	r3, r0
 80006c0:	70fb      	strb	r3, [r7, #3]
 80006c2:	460b      	mov	r3, r1
 80006c4:	70bb      	strb	r3, [r7, #2]
 80006c6:	4613      	mov	r3, r2
 80006c8:	707b      	strb	r3, [r7, #1]
  uint32_t tmpreg1 = 0, tmpreg2 = 0;
 80006ca:	2300      	movs	r3, #0
 80006cc:	60fb      	str	r3, [r7, #12]
 80006ce:	2300      	movs	r3, #0
 80006d0:	60bb      	str	r3, [r7, #8]
  assert_param(IS_ADC_CHANNEL(ADC_Channel));
  assert_param(IS_ADC_REGULAR_RANK(Rank));
  assert_param(IS_ADC_SAMPLE_TIME(ADC_SampleTime));

  /* If ADC_Channel_30 or ADC_Channel_31 is selected */
  if (ADC_Channel > ADC_Channel_29)
 80006d2:	78fb      	ldrb	r3, [r7, #3]
 80006d4:	2b1d      	cmp	r3, #29
 80006d6:	d923      	bls.n	8000720 <ADC_RegularChannelConfig+0x70>
  {
    /* Get the old register value */
    tmpreg1 = ADCx->SMPR0;
 80006d8:	687b      	ldr	r3, [r7, #4]
 80006da:	6ddb      	ldr	r3, [r3, #92]	; 0x5c
 80006dc:	60fb      	str	r3, [r7, #12]
    /* Calculate the mask to clear */
    tmpreg2 = SMPR0_SMP_SET << (3 * (ADC_Channel - 30));
 80006de:	78fb      	ldrb	r3, [r7, #3]
 80006e0:	f1a3 021e 	sub.w	r2, r3, #30
 80006e4:	4613      	mov	r3, r2
 80006e6:	005b      	lsls	r3, r3, #1
 80006e8:	4413      	add	r3, r2
 80006ea:	2207      	movs	r2, #7
 80006ec:	fa02 f303 	lsl.w	r3, r2, r3
 80006f0:	60bb      	str	r3, [r7, #8]
    /* Clear the old sample time */
    tmpreg1 &= ~tmpreg2;
 80006f2:	68bb      	ldr	r3, [r7, #8]
 80006f4:	43db      	mvns	r3, r3
 80006f6:	68fa      	ldr	r2, [r7, #12]
 80006f8:	4013      	ands	r3, r2
 80006fa:	60fb      	str	r3, [r7, #12]
    /* Calculate the mask to set */
    tmpreg2 = (uint32_t)ADC_SampleTime << (3 * (ADC_Channel - 30));
 80006fc:	7879      	ldrb	r1, [r7, #1]
 80006fe:	78fb      	ldrb	r3, [r7, #3]
 8000700:	f1a3 021e 	sub.w	r2, r3, #30
 8000704:	4613      	mov	r3, r2
 8000706:	005b      	lsls	r3, r3, #1
 8000708:	4413      	add	r3, r2
 800070a:	fa01 f303 	lsl.w	r3, r1, r3
 800070e:	60bb      	str	r3, [r7, #8]
    /* Set the new sample time */
    tmpreg1 |= tmpreg2;
 8000710:	68fa      	ldr	r2, [r7, #12]
 8000712:	68bb      	ldr	r3, [r7, #8]
 8000714:	4313      	orrs	r3, r2
 8000716:	60fb      	str	r3, [r7, #12]
    /* Store the new register value */
    ADCx->SMPR0 = tmpreg1;
 8000718:	687b      	ldr	r3, [r7, #4]
 800071a:	68fa      	ldr	r2, [r7, #12]
 800071c:	65da      	str	r2, [r3, #92]	; 0x5c
 800071e:	e06c      	b.n	80007fa <ADC_RegularChannelConfig+0x14a>
  }
  /* If ADC_Channel_20 ... ADC_Channel_29 is selected */
  else if (ADC_Channel > ADC_Channel_19)
 8000720:	78fb      	ldrb	r3, [r7, #3]
 8000722:	2b13      	cmp	r3, #19
 8000724:	d923      	bls.n	800076e <ADC_RegularChannelConfig+0xbe>
  {
    /* Get the old register value */
    tmpreg1 = ADCx->SMPR1;
 8000726:	687b      	ldr	r3, [r7, #4]
 8000728:	68db      	ldr	r3, [r3, #12]
 800072a:	60fb      	str	r3, [r7, #12]
    /* Calculate the mask to clear */
    tmpreg2 = SMPR1_SMP_SET << (3 * (ADC_Channel - 20));
 800072c:	78fb      	ldrb	r3, [r7, #3]
 800072e:	f1a3 0214 	sub.w	r2, r3, #20
 8000732:	4613      	mov	r3, r2
 8000734:	005b      	lsls	r3, r3, #1
 8000736:	4413      	add	r3, r2
 8000738:	2207      	movs	r2, #7
 800073a:	fa02 f303 	lsl.w	r3, r2, r3
 800073e:	60bb      	str	r3, [r7, #8]
    /* Clear the old sample time */
    tmpreg1 &= ~tmpreg2;
 8000740:	68bb      	ldr	r3, [r7, #8]
 8000742:	43db      	mvns	r3, r3
 8000744:	68fa      	ldr	r2, [r7, #12]
 8000746:	4013      	ands	r3, r2
 8000748:	60fb      	str	r3, [r7, #12]
    /* Calculate the mask to set */
    tmpreg2 = (uint32_t)ADC_SampleTime << (3 * (ADC_Channel - 20));
 800074a:	7879      	ldrb	r1, [r7, #1]
 800074c:	78fb      	ldrb	r3, [r7, #3]
 800074e:	f1a3 0214 	sub.w	r2, r3, #20
 8000752:	4613      	mov	r3, r2
 8000754:	005b      	lsls	r3, r3, #1
 8000756:	4413      	add	r3, r2
 8000758:	fa01 f303 	lsl.w	r3, r1, r3
 800075c:	60bb      	str	r3, [r7, #8]
    /* Set the new sample time */
    tmpreg1 |= tmpreg2;
 800075e:	68fa      	ldr	r2, [r7, #12]
 8000760:	68bb      	ldr	r3, [r7, #8]
 8000762:	4313      	orrs	r3, r2
 8000764:	60fb      	str	r3, [r7, #12]
    /* Store the new register value */
    ADCx->SMPR1 = tmpreg1;
 8000766:	687b      	ldr	r3, [r7, #4]
 8000768:	68fa      	ldr	r2, [r7, #12]
 800076a:	60da      	str	r2, [r3, #12]
 800076c:	e045      	b.n	80007fa <ADC_RegularChannelConfig+0x14a>
  }
  /* If ADC_Channel_10 ... ADC_Channel_19 is selected */
  else if (ADC_Channel > ADC_Channel_9)
 800076e:	78fb      	ldrb	r3, [r7, #3]
 8000770:	2b09      	cmp	r3, #9
 8000772:	d923      	bls.n	80007bc <ADC_RegularChannelConfig+0x10c>
  {
    /* Get the old register value */
    tmpreg1 = ADCx->SMPR2;
 8000774:	687b      	ldr	r3, [r7, #4]
 8000776:	691b      	ldr	r3, [r3, #16]
 8000778:	60fb      	str	r3, [r7, #12]
    /* Calculate the mask to clear */
    tmpreg2 = SMPR2_SMP_SET << (3 * (ADC_Channel - 10));
 800077a:	78fb      	ldrb	r3, [r7, #3]
 800077c:	f1a3 020a 	sub.w	r2, r3, #10
 8000780:	4613      	mov	r3, r2
 8000782:	005b      	lsls	r3, r3, #1
 8000784:	4413      	add	r3, r2
 8000786:	2207      	movs	r2, #7
 8000788:	fa02 f303 	lsl.w	r3, r2, r3
 800078c:	60bb      	str	r3, [r7, #8]
    /* Clear the old sample time */
    tmpreg1 &= ~tmpreg2;
 800078e:	68bb      	ldr	r3, [r7, #8]
 8000790:	43db      	mvns	r3, r3
 8000792:	68fa      	ldr	r2, [r7, #12]
 8000794:	4013      	ands	r3, r2
 8000796:	60fb      	str	r3, [r7, #12]
    /* Calculate the mask to set */
    tmpreg2 = (uint32_t)ADC_SampleTime << (3 * (ADC_Channel - 10));
 8000798:	7879      	ldrb	r1, [r7, #1]
 800079a:	78fb      	ldrb	r3, [r7, #3]
 800079c:	f1a3 020a 	sub.w	r2, r3, #10
 80007a0:	4613      	mov	r3, r2
 80007a2:	005b      	lsls	r3, r3, #1
 80007a4:	4413      	add	r3, r2
 80007a6:	fa01 f303 	lsl.w	r3, r1, r3
 80007aa:	60bb      	str	r3, [r7, #8]
    /* Set the new sample time */
    tmpreg1 |= tmpreg2;
 80007ac:	68fa      	ldr	r2, [r7, #12]
 80007ae:	68bb      	ldr	r3, [r7, #8]
 80007b0:	4313      	orrs	r3, r2
 80007b2:	60fb      	str	r3, [r7, #12]
    /* Store the new register value */
    ADCx->SMPR2 = tmpreg1;
 80007b4:	687b      	ldr	r3, [r7, #4]
 80007b6:	68fa      	ldr	r2, [r7, #12]
 80007b8:	611a      	str	r2, [r3, #16]
 80007ba:	e01e      	b.n	80007fa <ADC_RegularChannelConfig+0x14a>
  }
  else /* ADC_Channel include in ADC_Channel_[0..9] */
  {
    /* Get the old register value */
    tmpreg1 = ADCx->SMPR3;
 80007bc:	687b      	ldr	r3, [r7, #4]
 80007be:	695b      	ldr	r3, [r3, #20]
 80007c0:	60fb      	str	r3, [r7, #12]
    /* Calculate the mask to clear */
    tmpreg2 = SMPR3_SMP_SET << (3 * ADC_Channel);
 80007c2:	78fa      	ldrb	r2, [r7, #3]
 80007c4:	4613      	mov	r3, r2
 80007c6:	005b      	lsls	r3, r3, #1
 80007c8:	4413      	add	r3, r2
 80007ca:	2207      	movs	r2, #7
 80007cc:	fa02 f303 	lsl.w	r3, r2, r3
 80007d0:	60bb      	str	r3, [r7, #8]
    /* Clear the old sample time */
    tmpreg1 &= ~tmpreg2;
 80007d2:	68bb      	ldr	r3, [r7, #8]
 80007d4:	43db      	mvns	r3, r3
 80007d6:	68fa      	ldr	r2, [r7, #12]
 80007d8:	4013      	ands	r3, r2
 80007da:	60fb      	str	r3, [r7, #12]
    /* Calculate the mask to set */
    tmpreg2 = (uint32_t)ADC_SampleTime << (3 * ADC_Channel);
 80007dc:	7879      	ldrb	r1, [r7, #1]
 80007de:	78fa      	ldrb	r2, [r7, #3]
 80007e0:	4613      	mov	r3, r2
 80007e2:	005b      	lsls	r3, r3, #1
 80007e4:	4413      	add	r3, r2
 80007e6:	fa01 f303 	lsl.w	r3, r1, r3
 80007ea:	60bb      	str	r3, [r7, #8]
    /* Set the new sample time */
    tmpreg1 |= tmpreg2;
 80007ec:	68fa      	ldr	r2, [r7, #12]
 80007ee:	68bb      	ldr	r3, [r7, #8]
 80007f0:	4313      	orrs	r3, r2
 80007f2:	60fb      	str	r3, [r7, #12]
    /* Store the new register value */
    ADCx->SMPR3 = tmpreg1;
 80007f4:	687b      	ldr	r3, [r7, #4]
 80007f6:	68fa      	ldr	r2, [r7, #12]
 80007f8:	615a      	str	r2, [r3, #20]
  }
  /* For Rank 1 to 6 */
  if (Rank < 7)
 80007fa:	78bb      	ldrb	r3, [r7, #2]
 80007fc:	2b06      	cmp	r3, #6
 80007fe:	d821      	bhi.n	8000844 <ADC_RegularChannelConfig+0x194>
  {
    /* Get the old register value */
    tmpreg1 = ADCx->SQR5;
 8000800:	687b      	ldr	r3, [r7, #4]
 8000802:	6c1b      	ldr	r3, [r3, #64]	; 0x40
 8000804:	60fb      	str	r3, [r7, #12]
    /* Calculate the mask to clear */
    tmpreg2 = SQR5_SQ_SET << (5 * (Rank - 1));
 8000806:	78bb      	ldrb	r3, [r7, #2]
 8000808:	1e5a      	subs	r2, r3, #1
 800080a:	4613      	mov	r3, r2
 800080c:	009b      	lsls	r3, r3, #2
 800080e:	4413      	add	r3, r2
 8000810:	221f      	movs	r2, #31
 8000812:	fa02 f303 	lsl.w	r3, r2, r3
 8000816:	60bb      	str	r3, [r7, #8]
    /* Clear the old SQx bits for the selected rank */
    tmpreg1 &= ~tmpreg2;
 8000818:	68bb      	ldr	r3, [r7, #8]
 800081a:	43db      	mvns	r3, r3
 800081c:	68fa      	ldr	r2, [r7, #12]
 800081e:	4013      	ands	r3, r2
 8000820:	60fb      	str	r3, [r7, #12]
    /* Calculate the mask to set */
    tmpreg2 = (uint32_t)ADC_Channel << (5 * (Rank - 1));
 8000822:	78f9      	ldrb	r1, [r7, #3]
 8000824:	78bb      	ldrb	r3, [r7, #2]
 8000826:	1e5a      	subs	r2, r3, #1
 8000828:	4613      	mov	r3, r2
 800082a:	009b      	lsls	r3, r3, #2
 800082c:	4413      	add	r3, r2
 800082e:	fa01 f303 	lsl.w	r3, r1, r3
 8000832:	60bb      	str	r3, [r7, #8]
    /* Set the SQx bits for the selected rank */
    tmpreg1 |= tmpreg2;
 8000834:	68fa      	ldr	r2, [r7, #12]
 8000836:	68bb      	ldr	r3, [r7, #8]
 8000838:	4313      	orrs	r3, r2
 800083a:	60fb      	str	r3, [r7, #12]
    /* Store the new register value */
    ADCx->SQR5 = tmpreg1;
 800083c:	687b      	ldr	r3, [r7, #4]
 800083e:	68fa      	ldr	r2, [r7, #12]
 8000840:	641a      	str	r2, [r3, #64]	; 0x40
    /* Set the SQx bits for the selected rank */
    tmpreg1 |= tmpreg2;
    /* Store the new register value */
    ADCx->SQR1 = tmpreg1;
  }
}
 8000842:	e095      	b.n	8000970 <ADC_RegularChannelConfig+0x2c0>
    tmpreg1 |= tmpreg2;
    /* Store the new register value */
    ADCx->SQR5 = tmpreg1;
  }
  /* For Rank 7 to 12 */
  else if (Rank < 13)
 8000844:	78bb      	ldrb	r3, [r7, #2]
 8000846:	2b0c      	cmp	r3, #12
 8000848:	d821      	bhi.n	800088e <ADC_RegularChannelConfig+0x1de>
  {
    /* Get the old register value */
    tmpreg1 = ADCx->SQR4;
 800084a:	687b      	ldr	r3, [r7, #4]
 800084c:	6bdb      	ldr	r3, [r3, #60]	; 0x3c
 800084e:	60fb      	str	r3, [r7, #12]
    /* Calculate the mask to clear */
    tmpreg2 = SQR4_SQ_SET << (5 * (Rank - 7));
 8000850:	78bb      	ldrb	r3, [r7, #2]
 8000852:	1fda      	subs	r2, r3, #7
 8000854:	4613      	mov	r3, r2
 8000856:	009b      	lsls	r3, r3, #2
 8000858:	4413      	add	r3, r2
 800085a:	221f      	movs	r2, #31
 800085c:	fa02 f303 	lsl.w	r3, r2, r3
 8000860:	60bb      	str	r3, [r7, #8]
    /* Clear the old SQx bits for the selected rank */
    tmpreg1 &= ~tmpreg2;
 8000862:	68bb      	ldr	r3, [r7, #8]
 8000864:	43db      	mvns	r3, r3
 8000866:	68fa      	ldr	r2, [r7, #12]
 8000868:	4013      	ands	r3, r2
 800086a:	60fb      	str	r3, [r7, #12]
    /* Calculate the mask to set */
    tmpreg2 = (uint32_t)ADC_Channel << (5 * (Rank - 7));
 800086c:	78f9      	ldrb	r1, [r7, #3]
 800086e:	78bb      	ldrb	r3, [r7, #2]
 8000870:	1fda      	subs	r2, r3, #7
 8000872:	4613      	mov	r3, r2
 8000874:	009b      	lsls	r3, r3, #2
 8000876:	4413      	add	r3, r2
 8000878:	fa01 f303 	lsl.w	r3, r1, r3
 800087c:	60bb      	str	r3, [r7, #8]
    /* Set the SQx bits for the selected rank */
    tmpreg1 |= tmpreg2;
 800087e:	68fa      	ldr	r2, [r7, #12]
 8000880:	68bb      	ldr	r3, [r7, #8]
 8000882:	4313      	orrs	r3, r2
 8000884:	60fb      	str	r3, [r7, #12]
    /* Store the new register value */
    ADCx->SQR4 = tmpreg1;
 8000886:	687b      	ldr	r3, [r7, #4]
 8000888:	68fa      	ldr	r2, [r7, #12]
 800088a:	63da      	str	r2, [r3, #60]	; 0x3c
    /* Set the SQx bits for the selected rank */
    tmpreg1 |= tmpreg2;
    /* Store the new register value */
    ADCx->SQR1 = tmpreg1;
  }
}
 800088c:	e070      	b.n	8000970 <ADC_RegularChannelConfig+0x2c0>
    tmpreg1 |= tmpreg2;
    /* Store the new register value */
    ADCx->SQR4 = tmpreg1;
  }  
  /* For Rank 13 to 18 */
  else if (Rank < 19)
 800088e:	78bb      	ldrb	r3, [r7, #2]
 8000890:	2b12      	cmp	r3, #18
 8000892:	d823      	bhi.n	80008dc <ADC_RegularChannelConfig+0x22c>
  {
    /* Get the old register value */
    tmpreg1 = ADCx->SQR3;
 8000894:	687b      	ldr	r3, [r7, #4]
 8000896:	6b9b      	ldr	r3, [r3, #56]	; 0x38
 8000898:	60fb      	str	r3, [r7, #12]
    /* Calculate the mask to clear */
    tmpreg2 = SQR3_SQ_SET << (5 * (Rank - 13));
 800089a:	78bb      	ldrb	r3, [r7, #2]
 800089c:	f1a3 020d 	sub.w	r2, r3, #13
 80008a0:	4613      	mov	r3, r2
 80008a2:	009b      	lsls	r3, r3, #2
 80008a4:	4413      	add	r3, r2
 80008a6:	221f      	movs	r2, #31
 80008a8:	fa02 f303 	lsl.w	r3, r2, r3
 80008ac:	60bb      	str	r3, [r7, #8]
    /* Clear the old SQx bits for the selected rank */
    tmpreg1 &= ~tmpreg2;
 80008ae:	68bb      	ldr	r3, [r7, #8]
 80008b0:	43db      	mvns	r3, r3
 80008b2:	68fa      	ldr	r2, [r7, #12]
 80008b4:	4013      	ands	r3, r2
 80008b6:	60fb      	str	r3, [r7, #12]
    /* Calculate the mask to set */
    tmpreg2 = (uint32_t)ADC_Channel << (5 * (Rank - 13));
 80008b8:	78f9      	ldrb	r1, [r7, #3]
 80008ba:	78bb      	ldrb	r3, [r7, #2]
 80008bc:	f1a3 020d 	sub.w	r2, r3, #13
 80008c0:	4613      	mov	r3, r2
 80008c2:	009b      	lsls	r3, r3, #2
 80008c4:	4413      	add	r3, r2
 80008c6:	fa01 f303 	lsl.w	r3, r1, r3
 80008ca:	60bb      	str	r3, [r7, #8]
    /* Set the SQx bits for the selected rank */
    tmpreg1 |= tmpreg2;
 80008cc:	68fa      	ldr	r2, [r7, #12]
 80008ce:	68bb      	ldr	r3, [r7, #8]
 80008d0:	4313      	orrs	r3, r2
 80008d2:	60fb      	str	r3, [r7, #12]
    /* Store the new register value */
    ADCx->SQR3 = tmpreg1;
 80008d4:	687b      	ldr	r3, [r7, #4]
 80008d6:	68fa      	ldr	r2, [r7, #12]
 80008d8:	639a      	str	r2, [r3, #56]	; 0x38
    /* Set the SQx bits for the selected rank */
    tmpreg1 |= tmpreg2;
    /* Store the new register value */
    ADCx->SQR1 = tmpreg1;
  }
}
 80008da:	e049      	b.n	8000970 <ADC_RegularChannelConfig+0x2c0>
    /* Store the new register value */
    ADCx->SQR3 = tmpreg1;
  }
    
  /* For Rank 19 to 24 */
  else if (Rank < 25)
 80008dc:	78bb      	ldrb	r3, [r7, #2]
 80008de:	2b18      	cmp	r3, #24
 80008e0:	d823      	bhi.n	800092a <ADC_RegularChannelConfig+0x27a>
  {
    /* Get the old register value */
    tmpreg1 = ADCx->SQR2;
 80008e2:	687b      	ldr	r3, [r7, #4]
 80008e4:	6b5b      	ldr	r3, [r3, #52]	; 0x34
 80008e6:	60fb      	str	r3, [r7, #12]
    /* Calculate the mask to clear */
    tmpreg2 = SQR2_SQ_SET << (5 * (Rank - 19));
 80008e8:	78bb      	ldrb	r3, [r7, #2]
 80008ea:	f1a3 0213 	sub.w	r2, r3, #19
 80008ee:	4613      	mov	r3, r2
 80008f0:	009b      	lsls	r3, r3, #2
 80008f2:	4413      	add	r3, r2
 80008f4:	221f      	movs	r2, #31
 80008f6:	fa02 f303 	lsl.w	r3, r2, r3
 80008fa:	60bb      	str	r3, [r7, #8]
    /* Clear the old SQx bits for the selected rank */
    tmpreg1 &= ~tmpreg2;
 80008fc:	68bb      	ldr	r3, [r7, #8]
 80008fe:	43db      	mvns	r3, r3
 8000900:	68fa      	ldr	r2, [r7, #12]
 8000902:	4013      	ands	r3, r2
 8000904:	60fb      	str	r3, [r7, #12]
    /* Calculate the mask to set */
    tmpreg2 = (uint32_t)ADC_Channel << (5 * (Rank - 19));
 8000906:	78f9      	ldrb	r1, [r7, #3]
 8000908:	78bb      	ldrb	r3, [r7, #2]
 800090a:	f1a3 0213 	sub.w	r2, r3, #19
 800090e:	4613      	mov	r3, r2
 8000910:	009b      	lsls	r3, r3, #2
 8000912:	4413      	add	r3, r2
 8000914:	fa01 f303 	lsl.w	r3, r1, r3
 8000918:	60bb      	str	r3, [r7, #8]
    /* Set the SQx bits for the selected rank */
    tmpreg1 |= tmpreg2;
 800091a:	68fa      	ldr	r2, [r7, #12]
 800091c:	68bb      	ldr	r3, [r7, #8]
 800091e:	4313      	orrs	r3, r2
 8000920:	60fb      	str	r3, [r7, #12]
    /* Store the new register value */
    ADCx->SQR2 = tmpreg1;
 8000922:	687b      	ldr	r3, [r7, #4]
 8000924:	68fa      	ldr	r2, [r7, #12]
 8000926:	635a      	str	r2, [r3, #52]	; 0x34
    /* Set the SQx bits for the selected rank */
    tmpreg1 |= tmpreg2;
    /* Store the new register value */
    ADCx->SQR1 = tmpreg1;
  }
}
 8000928:	e022      	b.n	8000970 <ADC_RegularChannelConfig+0x2c0>
  
  /* For Rank 25 to 28 */
  else
  {
    /* Get the old register value */
    tmpreg1 = ADCx->SQR1;
 800092a:	687b      	ldr	r3, [r7, #4]
 800092c:	6b1b      	ldr	r3, [r3, #48]	; 0x30
 800092e:	60fb      	str	r3, [r7, #12]
    /* Calculate the mask to clear */
    tmpreg2 = SQR1_SQ_SET << (5 * (Rank - 25));
 8000930:	78bb      	ldrb	r3, [r7, #2]
 8000932:	f1a3 0219 	sub.w	r2, r3, #25
 8000936:	4613      	mov	r3, r2
 8000938:	009b      	lsls	r3, r3, #2
 800093a:	4413      	add	r3, r2
 800093c:	221f      	movs	r2, #31
 800093e:	fa02 f303 	lsl.w	r3, r2, r3
 8000942:	60bb      	str	r3, [r7, #8]
    /* Clear the old SQx bits for the selected rank */
    tmpreg1 &= ~tmpreg2;
 8000944:	68bb      	ldr	r3, [r7, #8]
 8000946:	43db      	mvns	r3, r3
 8000948:	68fa      	ldr	r2, [r7, #12]
 800094a:	4013      	ands	r3, r2
 800094c:	60fb      	str	r3, [r7, #12]
    /* Calculate the mask to set */
    tmpreg2 = (uint32_t)ADC_Channel << (5 * (Rank - 25));
 800094e:	78f9      	ldrb	r1, [r7, #3]
 8000950:	78bb      	ldrb	r3, [r7, #2]
 8000952:	f1a3 0219 	sub.w	r2, r3, #25
 8000956:	4613      	mov	r3, r2
 8000958:	009b      	lsls	r3, r3, #2
 800095a:	4413      	add	r3, r2
 800095c:	fa01 f303 	lsl.w	r3, r1, r3
 8000960:	60bb      	str	r3, [r7, #8]
    /* Set the SQx bits for the selected rank */
    tmpreg1 |= tmpreg2;
 8000962:	68fa      	ldr	r2, [r7, #12]
 8000964:	68bb      	ldr	r3, [r7, #8]
 8000966:	4313      	orrs	r3, r2
 8000968:	60fb      	str	r3, [r7, #12]
    /* Store the new register value */
    ADCx->SQR1 = tmpreg1;
 800096a:	687b      	ldr	r3, [r7, #4]
 800096c:	68fa      	ldr	r2, [r7, #12]
 800096e:	631a      	str	r2, [r3, #48]	; 0x30
  }
}
 8000970:	bf00      	nop
 8000972:	3714      	adds	r7, #20
 8000974:	46bd      	mov	sp, r7
 8000976:	bc80      	pop	{r7}
 8000978:	4770      	bx	lr
 800097a:	bf00      	nop

0800097c <ADC_SoftwareStartConv>:
  * @brief  Enables the selected ADC software start conversion of the regular channels.
  * @param  ADCx: where x can be 1 to select the ADC1 peripheral.
  * @retval None
  */
void ADC_SoftwareStartConv(ADC_TypeDef* ADCx)
{
 800097c:	b480      	push	{r7}
 800097e:	b083      	sub	sp, #12
 8000980:	af00      	add	r7, sp, #0
 8000982:	6078      	str	r0, [r7, #4]
  /* Check the parameters */
  assert_param(IS_ADC_ALL_PERIPH(ADCx));

  /* Enable the selected ADC conversion for regular group */
  ADCx->CR2 |= (uint32_t)ADC_CR2_SWSTART;
 8000984:	687b      	ldr	r3, [r7, #4]
 8000986:	689b      	ldr	r3, [r3, #8]
 8000988:	f043 4280 	orr.w	r2, r3, #1073741824	; 0x40000000
 800098c:	687b      	ldr	r3, [r7, #4]
 800098e:	609a      	str	r2, [r3, #8]
}
 8000990:	bf00      	nop
 8000992:	370c      	adds	r7, #12
 8000994:	46bd      	mov	sp, r7
 8000996:	bc80      	pop	{r7}
 8000998:	4770      	bx	lr
 800099a:	bf00      	nop

0800099c <ADC_ITConfig>:
  * @param  NewState: new state of the specified ADC interrupts.
  *         This parameter can be: ENABLE or DISABLE.
  * @retval None
  */
void ADC_ITConfig(ADC_TypeDef* ADCx, uint16_t ADC_IT, FunctionalState NewState)  
{
 800099c:	b480      	push	{r7}
 800099e:	b085      	sub	sp, #20
 80009a0:	af00      	add	r7, sp, #0
 80009a2:	6078      	str	r0, [r7, #4]
 80009a4:	460b      	mov	r3, r1
 80009a6:	807b      	strh	r3, [r7, #2]
 80009a8:	4613      	mov	r3, r2
 80009aa:	707b      	strb	r3, [r7, #1]
  uint32_t itmask = 0;
 80009ac:	2300      	movs	r3, #0
 80009ae:	60fb      	str	r3, [r7, #12]
  assert_param(IS_ADC_ALL_PERIPH(ADCx));
  assert_param(IS_FUNCTIONAL_STATE(NewState));
  assert_param(IS_ADC_IT(ADC_IT)); 

  /* Get the ADC IT index */
  itmask = (uint8_t)ADC_IT;
 80009b0:	887b      	ldrh	r3, [r7, #2]
 80009b2:	b2db      	uxtb	r3, r3
 80009b4:	60fb      	str	r3, [r7, #12]
  itmask = (uint32_t)0x01 << itmask;    
 80009b6:	2201      	movs	r2, #1
 80009b8:	68fb      	ldr	r3, [r7, #12]
 80009ba:	fa02 f303 	lsl.w	r3, r2, r3
 80009be:	60fb      	str	r3, [r7, #12]

  if (NewState != DISABLE)
 80009c0:	787b      	ldrb	r3, [r7, #1]
 80009c2:	2b00      	cmp	r3, #0
 80009c4:	d006      	beq.n	80009d4 <ADC_ITConfig+0x38>
  {
    /* Enable the selected ADC interrupts */
    ADCx->CR1 |= itmask;
 80009c6:	687b      	ldr	r3, [r7, #4]
 80009c8:	685a      	ldr	r2, [r3, #4]
 80009ca:	68fb      	ldr	r3, [r7, #12]
 80009cc:	431a      	orrs	r2, r3
 80009ce:	687b      	ldr	r3, [r7, #4]
 80009d0:	605a      	str	r2, [r3, #4]
  else
  {
    /* Disable the selected ADC interrupts */
    ADCx->CR1 &= (~(uint32_t)itmask);
  }
}
 80009d2:	e006      	b.n	80009e2 <ADC_ITConfig+0x46>
    ADCx->CR1 |= itmask;
  }
  else
  {
    /* Disable the selected ADC interrupts */
    ADCx->CR1 &= (~(uint32_t)itmask);
 80009d4:	687b      	ldr	r3, [r7, #4]
 80009d6:	685a      	ldr	r2, [r3, #4]
 80009d8:	68fb      	ldr	r3, [r7, #12]
 80009da:	43db      	mvns	r3, r3
 80009dc:	401a      	ands	r2, r3
 80009de:	687b      	ldr	r3, [r7, #4]
 80009e0:	605a      	str	r2, [r3, #4]
  }
}
 80009e2:	bf00      	nop
 80009e4:	3714      	adds	r7, #20
 80009e6:	46bd      	mov	sp, r7
 80009e8:	bc80      	pop	{r7}
 80009ea:	4770      	bx	lr

080009ec <ADC_GetFlagStatus>:
  *     @arg ADC_FLAG_RCNR: Regular channel not ready
  *     @arg ADC_FLAG_JCNR: Injected channel not ready
  * @retval The new state of ADC_FLAG (SET or RESET).
  */
FlagStatus ADC_GetFlagStatus(ADC_TypeDef* ADCx, uint16_t ADC_FLAG)
{
 80009ec:	b480      	push	{r7}
 80009ee:	b085      	sub	sp, #20
 80009f0:	af00      	add	r7, sp, #0
 80009f2:	6078      	str	r0, [r7, #4]
 80009f4:	460b      	mov	r3, r1
 80009f6:	807b      	strh	r3, [r7, #2]
  FlagStatus bitstatus = RESET;
 80009f8:	2300      	movs	r3, #0
 80009fa:	73fb      	strb	r3, [r7, #15]
  /* Check the parameters */
  assert_param(IS_ADC_ALL_PERIPH(ADCx));
  assert_param(IS_ADC_GET_FLAG(ADC_FLAG));

  /* Check the status of the specified ADC flag */
  if ((ADCx->SR & ADC_FLAG) != (uint8_t)RESET)
 80009fc:	687b      	ldr	r3, [r7, #4]
 80009fe:	681a      	ldr	r2, [r3, #0]
 8000a00:	887b      	ldrh	r3, [r7, #2]
 8000a02:	4013      	ands	r3, r2
 8000a04:	2b00      	cmp	r3, #0
 8000a06:	d002      	beq.n	8000a0e <ADC_GetFlagStatus+0x22>
  {
    /* ADC_FLAG is set */
    bitstatus = SET;
 8000a08:	2301      	movs	r3, #1
 8000a0a:	73fb      	strb	r3, [r7, #15]
 8000a0c:	e001      	b.n	8000a12 <ADC_GetFlagStatus+0x26>
  }
  else
  {
    /* ADC_FLAG is reset */
    bitstatus = RESET;
 8000a0e:	2300      	movs	r3, #0
 8000a10:	73fb      	strb	r3, [r7, #15]
  }
  /* Return the ADC_FLAG status */
  return  bitstatus;
 8000a12:	7bfb      	ldrb	r3, [r7, #15]
}
 8000a14:	4618      	mov	r0, r3
 8000a16:	3714      	adds	r7, #20
 8000a18:	46bd      	mov	sp, r7
 8000a1a:	bc80      	pop	{r7}
 8000a1c:	4770      	bx	lr
 8000a1e:	bf00      	nop

08000a20 <GPIO_Init>:
  *         peripheral.

  * @retval None
  */
void GPIO_Init(GPIO_TypeDef* GPIOx, GPIO_InitTypeDef* GPIO_InitStruct)
{
 8000a20:	b480      	push	{r7}
 8000a22:	b087      	sub	sp, #28
 8000a24:	af00      	add	r7, sp, #0
 8000a26:	6078      	str	r0, [r7, #4]
 8000a28:	6039      	str	r1, [r7, #0]
  uint32_t pinpos = 0x00, pos = 0x00 , currentpin = 0x00;
 8000a2a:	2300      	movs	r3, #0
 8000a2c:	617b      	str	r3, [r7, #20]
 8000a2e:	2300      	movs	r3, #0
 8000a30:	613b      	str	r3, [r7, #16]
 8000a32:	2300      	movs	r3, #0
 8000a34:	60fb      	str	r3, [r7, #12]
  assert_param(IS_GPIO_MODE(GPIO_InitStruct->GPIO_Mode));
  assert_param(IS_GPIO_PUPD(GPIO_InitStruct->GPIO_PuPd));

  /* -------------------------Configure the port pins---------------- */
  /*-- GPIO Mode Configuration --*/
  for (pinpos = 0x00; pinpos < 0x10; pinpos++)
 8000a36:	2300      	movs	r3, #0
 8000a38:	617b      	str	r3, [r7, #20]
 8000a3a:	e07e      	b.n	8000b3a <GPIO_Init+0x11a>
  {
    pos = ((uint32_t)0x01) << pinpos;
 8000a3c:	2201      	movs	r2, #1
 8000a3e:	697b      	ldr	r3, [r7, #20]
 8000a40:	fa02 f303 	lsl.w	r3, r2, r3
 8000a44:	613b      	str	r3, [r7, #16]

    /* Get the port pins position */
    currentpin = (GPIO_InitStruct->GPIO_Pin) & pos;
 8000a46:	683b      	ldr	r3, [r7, #0]
 8000a48:	681a      	ldr	r2, [r3, #0]
 8000a4a:	693b      	ldr	r3, [r7, #16]
 8000a4c:	4013      	ands	r3, r2
 8000a4e:	60fb      	str	r3, [r7, #12]

    if (currentpin == pos)
 8000a50:	68fa      	ldr	r2, [r7, #12]
 8000a52:	693b      	ldr	r3, [r7, #16]
 8000a54:	429a      	cmp	r2, r3
 8000a56:	d16d      	bne.n	8000b34 <GPIO_Init+0x114>
    {
      GPIOx->MODER  &= ~(GPIO_MODER_MODER0 << (pinpos * 2));
 8000a58:	687b      	ldr	r3, [r7, #4]
 8000a5a:	681a      	ldr	r2, [r3, #0]
 8000a5c:	697b      	ldr	r3, [r7, #20]
 8000a5e:	005b      	lsls	r3, r3, #1
 8000a60:	2103      	movs	r1, #3
 8000a62:	fa01 f303 	lsl.w	r3, r1, r3
 8000a66:	43db      	mvns	r3, r3
 8000a68:	401a      	ands	r2, r3
 8000a6a:	687b      	ldr	r3, [r7, #4]
 8000a6c:	601a      	str	r2, [r3, #0]

      GPIOx->MODER |= (((uint32_t)GPIO_InitStruct->GPIO_Mode) << (pinpos * 2));
 8000a6e:	687b      	ldr	r3, [r7, #4]
 8000a70:	681a      	ldr	r2, [r3, #0]
 8000a72:	683b      	ldr	r3, [r7, #0]
 8000a74:	791b      	ldrb	r3, [r3, #4]
 8000a76:	4619      	mov	r1, r3
 8000a78:	697b      	ldr	r3, [r7, #20]
 8000a7a:	005b      	lsls	r3, r3, #1
 8000a7c:	fa01 f303 	lsl.w	r3, r1, r3
 8000a80:	431a      	orrs	r2, r3
 8000a82:	687b      	ldr	r3, [r7, #4]
 8000a84:	601a      	str	r2, [r3, #0]

      if ((GPIO_InitStruct->GPIO_Mode == GPIO_Mode_OUT) || (GPIO_InitStruct->GPIO_Mode == GPIO_Mode_AF))
 8000a86:	683b      	ldr	r3, [r7, #0]
 8000a88:	791b      	ldrb	r3, [r3, #4]
 8000a8a:	2b01      	cmp	r3, #1
 8000a8c:	d003      	beq.n	8000a96 <GPIO_Init+0x76>
 8000a8e:	683b      	ldr	r3, [r7, #0]
 8000a90:	791b      	ldrb	r3, [r3, #4]
 8000a92:	2b02      	cmp	r3, #2
 8000a94:	d136      	bne.n	8000b04 <GPIO_Init+0xe4>
      {
        /* Check Speed mode parameters */
        assert_param(IS_GPIO_SPEED(GPIO_InitStruct->GPIO_Speed));

        /* Speed mode configuration */
        GPIOx->OSPEEDR &= ~(GPIO_OSPEEDER_OSPEEDR0 << (pinpos * 2));
 8000a96:	687b      	ldr	r3, [r7, #4]
 8000a98:	689a      	ldr	r2, [r3, #8]
 8000a9a:	697b      	ldr	r3, [r7, #20]
 8000a9c:	005b      	lsls	r3, r3, #1
 8000a9e:	2103      	movs	r1, #3
 8000aa0:	fa01 f303 	lsl.w	r3, r1, r3
 8000aa4:	43db      	mvns	r3, r3
 8000aa6:	401a      	ands	r2, r3
 8000aa8:	687b      	ldr	r3, [r7, #4]
 8000aaa:	609a      	str	r2, [r3, #8]
        GPIOx->OSPEEDR |= ((uint32_t)(GPIO_InitStruct->GPIO_Speed) << (pinpos * 2));
 8000aac:	687b      	ldr	r3, [r7, #4]
 8000aae:	689a      	ldr	r2, [r3, #8]
 8000ab0:	683b      	ldr	r3, [r7, #0]
 8000ab2:	795b      	ldrb	r3, [r3, #5]
 8000ab4:	4619      	mov	r1, r3
 8000ab6:	697b      	ldr	r3, [r7, #20]
 8000ab8:	005b      	lsls	r3, r3, #1
 8000aba:	fa01 f303 	lsl.w	r3, r1, r3
 8000abe:	431a      	orrs	r2, r3
 8000ac0:	687b      	ldr	r3, [r7, #4]
 8000ac2:	609a      	str	r2, [r3, #8]

        /*Check Output mode parameters */
        assert_param(IS_GPIO_OTYPE(GPIO_InitStruct->GPIO_OType));

        /* Output mode configuration */
        GPIOx->OTYPER  &= ~((GPIO_OTYPER_OT_0) << ((uint16_t)pinpos)) ;
 8000ac4:	687b      	ldr	r3, [r7, #4]
 8000ac6:	889b      	ldrh	r3, [r3, #4]
 8000ac8:	b29a      	uxth	r2, r3
 8000aca:	697b      	ldr	r3, [r7, #20]
 8000acc:	b29b      	uxth	r3, r3
 8000ace:	2101      	movs	r1, #1
 8000ad0:	fa01 f303 	lsl.w	r3, r1, r3
 8000ad4:	b29b      	uxth	r3, r3
 8000ad6:	43db      	mvns	r3, r3
 8000ad8:	b29b      	uxth	r3, r3
 8000ada:	4013      	ands	r3, r2
 8000adc:	b29a      	uxth	r2, r3
 8000ade:	687b      	ldr	r3, [r7, #4]
 8000ae0:	809a      	strh	r2, [r3, #4]
        GPIOx->OTYPER |= (uint16_t)(((uint16_t)GPIO_InitStruct->GPIO_OType) << ((uint16_t)pinpos));
 8000ae2:	687b      	ldr	r3, [r7, #4]
 8000ae4:	889b      	ldrh	r3, [r3, #4]
 8000ae6:	b29b      	uxth	r3, r3
 8000ae8:	b21a      	sxth	r2, r3
 8000aea:	683b      	ldr	r3, [r7, #0]
 8000aec:	799b      	ldrb	r3, [r3, #6]
 8000aee:	4619      	mov	r1, r3
 8000af0:	697b      	ldr	r3, [r7, #20]
 8000af2:	b29b      	uxth	r3, r3
 8000af4:	fa01 f303 	lsl.w	r3, r1, r3
 8000af8:	b21b      	sxth	r3, r3
 8000afa:	4313      	orrs	r3, r2
 8000afc:	b21b      	sxth	r3, r3
 8000afe:	b29a      	uxth	r2, r3
 8000b00:	687b      	ldr	r3, [r7, #4]
 8000b02:	809a      	strh	r2, [r3, #4]
      }

      /* Pull-up Pull down resistor configuration */
      GPIOx->PUPDR &= ~(GPIO_PUPDR_PUPDR0 << ((uint16_t)pinpos * 2));
 8000b04:	687b      	ldr	r3, [r7, #4]
 8000b06:	68da      	ldr	r2, [r3, #12]
 8000b08:	697b      	ldr	r3, [r7, #20]
 8000b0a:	b29b      	uxth	r3, r3
 8000b0c:	005b      	lsls	r3, r3, #1
 8000b0e:	2103      	movs	r1, #3
 8000b10:	fa01 f303 	lsl.w	r3, r1, r3
 8000b14:	43db      	mvns	r3, r3
 8000b16:	401a      	ands	r2, r3
 8000b18:	687b      	ldr	r3, [r7, #4]
 8000b1a:	60da      	str	r2, [r3, #12]
      GPIOx->PUPDR |= (((uint32_t)GPIO_InitStruct->GPIO_PuPd) << (pinpos * 2));
 8000b1c:	687b      	ldr	r3, [r7, #4]
 8000b1e:	68da      	ldr	r2, [r3, #12]
 8000b20:	683b      	ldr	r3, [r7, #0]
 8000b22:	79db      	ldrb	r3, [r3, #7]
 8000b24:	4619      	mov	r1, r3
 8000b26:	697b      	ldr	r3, [r7, #20]
 8000b28:	005b      	lsls	r3, r3, #1
 8000b2a:	fa01 f303 	lsl.w	r3, r1, r3
 8000b2e:	431a      	orrs	r2, r3
 8000b30:	687b      	ldr	r3, [r7, #4]
 8000b32:	60da      	str	r2, [r3, #12]
  assert_param(IS_GPIO_MODE(GPIO_InitStruct->GPIO_Mode));
  assert_param(IS_GPIO_PUPD(GPIO_InitStruct->GPIO_PuPd));

  /* -------------------------Configure the port pins---------------- */
  /*-- GPIO Mode Configuration --*/
  for (pinpos = 0x00; pinpos < 0x10; pinpos++)
 8000b34:	697b      	ldr	r3, [r7, #20]
 8000b36:	3301      	adds	r3, #1
 8000b38:	617b      	str	r3, [r7, #20]
 8000b3a:	697b      	ldr	r3, [r7, #20]
 8000b3c:	2b0f      	cmp	r3, #15
 8000b3e:	f67f af7d 	bls.w	8000a3c <GPIO_Init+0x1c>
      /* Pull-up Pull down resistor configuration */
      GPIOx->PUPDR &= ~(GPIO_PUPDR_PUPDR0 << ((uint16_t)pinpos * 2));
      GPIOx->PUPDR |= (((uint32_t)GPIO_InitStruct->GPIO_PuPd) << (pinpos * 2));
    }
  }
}
 8000b42:	bf00      	nop
 8000b44:	371c      	adds	r7, #28
 8000b46:	46bd      	mov	sp, r7
 8000b48:	bc80      	pop	{r7}
 8000b4a:	4770      	bx	lr

08000b4c <GPIO_PinAFConfig>:
  *        alternate function I/O pins.  
  * @note EVENTOUT is not mapped on PH0, PH1 and PH2.  
  * @retval None
  */
void GPIO_PinAFConfig(GPIO_TypeDef* GPIOx, uint16_t GPIO_PinSource, uint8_t GPIO_AF)
{
 8000b4c:	b480      	push	{r7}
 8000b4e:	b085      	sub	sp, #20
 8000b50:	af00      	add	r7, sp, #0
 8000b52:	6078      	str	r0, [r7, #4]
 8000b54:	460b      	mov	r3, r1
 8000b56:	807b      	strh	r3, [r7, #2]
 8000b58:	4613      	mov	r3, r2
 8000b5a:	707b      	strb	r3, [r7, #1]
  uint32_t temp = 0x00;
 8000b5c:	2300      	movs	r3, #0
 8000b5e:	60fb      	str	r3, [r7, #12]
  uint32_t temp_2 = 0x00;
 8000b60:	2300      	movs	r3, #0
 8000b62:	60bb      	str	r3, [r7, #8]
  /* Check the parameters */
  assert_param(IS_GPIO_ALL_PERIPH(GPIOx));
  assert_param(IS_GPIO_PIN_SOURCE(GPIO_PinSource));
  assert_param(IS_GPIO_AF(GPIO_AF));
  
  temp = ((uint32_t)(GPIO_AF) << ((uint32_t)((uint32_t)GPIO_PinSource & (uint32_t)0x07) * 4)) ;
 8000b64:	787a      	ldrb	r2, [r7, #1]
 8000b66:	887b      	ldrh	r3, [r7, #2]
 8000b68:	f003 0307 	and.w	r3, r3, #7
 8000b6c:	009b      	lsls	r3, r3, #2
 8000b6e:	fa02 f303 	lsl.w	r3, r2, r3
 8000b72:	60fb      	str	r3, [r7, #12]
  GPIOx->AFR[GPIO_PinSource >> 0x03] &= ~((uint32_t)0xF << ((uint32_t)((uint32_t)GPIO_PinSource & (uint32_t)0x07) * 4)) ;
 8000b74:	887b      	ldrh	r3, [r7, #2]
 8000b76:	08db      	lsrs	r3, r3, #3
 8000b78:	b29b      	uxth	r3, r3
 8000b7a:	4618      	mov	r0, r3
 8000b7c:	887b      	ldrh	r3, [r7, #2]
 8000b7e:	08db      	lsrs	r3, r3, #3
 8000b80:	b29b      	uxth	r3, r3
 8000b82:	461a      	mov	r2, r3
 8000b84:	687b      	ldr	r3, [r7, #4]
 8000b86:	3208      	adds	r2, #8
 8000b88:	f853 2022 	ldr.w	r2, [r3, r2, lsl #2]
 8000b8c:	887b      	ldrh	r3, [r7, #2]
 8000b8e:	f003 0307 	and.w	r3, r3, #7
 8000b92:	009b      	lsls	r3, r3, #2
 8000b94:	210f      	movs	r1, #15
 8000b96:	fa01 f303 	lsl.w	r3, r1, r3
 8000b9a:	43db      	mvns	r3, r3
 8000b9c:	ea02 0103 	and.w	r1, r2, r3
 8000ba0:	687b      	ldr	r3, [r7, #4]
 8000ba2:	f100 0208 	add.w	r2, r0, #8
 8000ba6:	f843 1022 	str.w	r1, [r3, r2, lsl #2]
  temp_2 = GPIOx->AFR[GPIO_PinSource >> 0x03] | temp;
 8000baa:	887b      	ldrh	r3, [r7, #2]
 8000bac:	08db      	lsrs	r3, r3, #3
 8000bae:	b29b      	uxth	r3, r3
 8000bb0:	461a      	mov	r2, r3
 8000bb2:	687b      	ldr	r3, [r7, #4]
 8000bb4:	3208      	adds	r2, #8
 8000bb6:	f853 2022 	ldr.w	r2, [r3, r2, lsl #2]
 8000bba:	68fb      	ldr	r3, [r7, #12]
 8000bbc:	4313      	orrs	r3, r2
 8000bbe:	60bb      	str	r3, [r7, #8]
  GPIOx->AFR[GPIO_PinSource >> 0x03] = temp_2;
 8000bc0:	887b      	ldrh	r3, [r7, #2]
 8000bc2:	08db      	lsrs	r3, r3, #3
 8000bc4:	b29b      	uxth	r3, r3
 8000bc6:	461a      	mov	r2, r3
 8000bc8:	687b      	ldr	r3, [r7, #4]
 8000bca:	3208      	adds	r2, #8
 8000bcc:	68b9      	ldr	r1, [r7, #8]
 8000bce:	f843 1022 	str.w	r1, [r3, r2, lsl #2]
}
 8000bd2:	bf00      	nop
 8000bd4:	3714      	adds	r7, #20
 8000bd6:	46bd      	mov	sp, r7
 8000bd8:	bc80      	pop	{r7}
 8000bda:	4770      	bx	lr

08000bdc <RCC_HSICmd>:
  * @note   When the HSI is stopped, HSIRDY flag goes low after 6 HSI oscillator
  *         clock cycles.  
  * @retval None
  */
void RCC_HSICmd(FunctionalState NewState)
{
 8000bdc:	b480      	push	{r7}
 8000bde:	b083      	sub	sp, #12
 8000be0:	af00      	add	r7, sp, #0
 8000be2:	4603      	mov	r3, r0
 8000be4:	71fb      	strb	r3, [r7, #7]
  /* Check the parameters */
  assert_param(IS_FUNCTIONAL_STATE(NewState));
  
  *(__IO uint32_t *) CR_HSION_BB = (uint32_t)NewState;
 8000be6:	4a04      	ldr	r2, [pc, #16]	; (8000bf8 <RCC_HSICmd+0x1c>)
 8000be8:	79fb      	ldrb	r3, [r7, #7]
 8000bea:	6013      	str	r3, [r2, #0]
}
 8000bec:	bf00      	nop
 8000bee:	370c      	adds	r7, #12
 8000bf0:	46bd      	mov	sp, r7
 8000bf2:	bc80      	pop	{r7}
 8000bf4:	4770      	bx	lr
 8000bf6:	bf00      	nop
 8000bf8:	42470000 	.word	0x42470000

08000bfc <RCC_AHBPeriphClockCmd>:
  * @param  NewState: new state of the specified peripheral clock.
  *         This parameter can be: ENABLE or DISABLE.
  * @retval None
  */
void RCC_AHBPeriphClockCmd(uint32_t RCC_AHBPeriph, FunctionalState NewState)
{
 8000bfc:	b480      	push	{r7}
 8000bfe:	b083      	sub	sp, #12
 8000c00:	af00      	add	r7, sp, #0
 8000c02:	6078      	str	r0, [r7, #4]
 8000c04:	460b      	mov	r3, r1
 8000c06:	70fb      	strb	r3, [r7, #3]
  /* Check the parameters */
  assert_param(IS_RCC_AHB_PERIPH(RCC_AHBPeriph));
  assert_param(IS_FUNCTIONAL_STATE(NewState));
  
  if (NewState != DISABLE)
 8000c08:	78fb      	ldrb	r3, [r7, #3]
 8000c0a:	2b00      	cmp	r3, #0
 8000c0c:	d006      	beq.n	8000c1c <RCC_AHBPeriphClockCmd+0x20>
  {
    RCC->AHBENR |= RCC_AHBPeriph;
 8000c0e:	4909      	ldr	r1, [pc, #36]	; (8000c34 <RCC_AHBPeriphClockCmd+0x38>)
 8000c10:	4b08      	ldr	r3, [pc, #32]	; (8000c34 <RCC_AHBPeriphClockCmd+0x38>)
 8000c12:	69da      	ldr	r2, [r3, #28]
 8000c14:	687b      	ldr	r3, [r7, #4]
 8000c16:	4313      	orrs	r3, r2
 8000c18:	61cb      	str	r3, [r1, #28]
  }
  else
  {
    RCC->AHBENR &= ~RCC_AHBPeriph;
  }
}
 8000c1a:	e006      	b.n	8000c2a <RCC_AHBPeriphClockCmd+0x2e>
  {
    RCC->AHBENR |= RCC_AHBPeriph;
  }
  else
  {
    RCC->AHBENR &= ~RCC_AHBPeriph;
 8000c1c:	4905      	ldr	r1, [pc, #20]	; (8000c34 <RCC_AHBPeriphClockCmd+0x38>)
 8000c1e:	4b05      	ldr	r3, [pc, #20]	; (8000c34 <RCC_AHBPeriphClockCmd+0x38>)
 8000c20:	69da      	ldr	r2, [r3, #28]
 8000c22:	687b      	ldr	r3, [r7, #4]
 8000c24:	43db      	mvns	r3, r3
 8000c26:	4013      	ands	r3, r2
 8000c28:	61cb      	str	r3, [r1, #28]
  }
}
 8000c2a:	bf00      	nop
 8000c2c:	370c      	adds	r7, #12
 8000c2e:	46bd      	mov	sp, r7
 8000c30:	bc80      	pop	{r7}
 8000c32:	4770      	bx	lr
 8000c34:	40023800 	.word	0x40023800

08000c38 <RCC_APB2PeriphClockCmd>:
  * @param  NewState: new state of the specified peripheral clock.
  *         This parameter can be: ENABLE or DISABLE.
  * @retval None
  */
void RCC_APB2PeriphClockCmd(uint32_t RCC_APB2Periph, FunctionalState NewState)
{
 8000c38:	b480      	push	{r7}
 8000c3a:	b083      	sub	sp, #12
 8000c3c:	af00      	add	r7, sp, #0
 8000c3e:	6078      	str	r0, [r7, #4]
 8000c40:	460b      	mov	r3, r1
 8000c42:	70fb      	strb	r3, [r7, #3]
  /* Check the parameters */
  assert_param(IS_RCC_APB2_PERIPH(RCC_APB2Periph));
  assert_param(IS_FUNCTIONAL_STATE(NewState));

  if (NewState != DISABLE)
 8000c44:	78fb      	ldrb	r3, [r7, #3]
 8000c46:	2b00      	cmp	r3, #0
 8000c48:	d006      	beq.n	8000c58 <RCC_APB2PeriphClockCmd+0x20>
  {
    RCC->APB2ENR |= RCC_APB2Periph;
 8000c4a:	4909      	ldr	r1, [pc, #36]	; (8000c70 <RCC_APB2PeriphClockCmd+0x38>)
 8000c4c:	4b08      	ldr	r3, [pc, #32]	; (8000c70 <RCC_APB2PeriphClockCmd+0x38>)
 8000c4e:	6a1a      	ldr	r2, [r3, #32]
 8000c50:	687b      	ldr	r3, [r7, #4]
 8000c52:	4313      	orrs	r3, r2
 8000c54:	620b      	str	r3, [r1, #32]
  }
  else
  {
    RCC->APB2ENR &= ~RCC_APB2Periph;
  }
}
 8000c56:	e006      	b.n	8000c66 <RCC_APB2PeriphClockCmd+0x2e>
  {
    RCC->APB2ENR |= RCC_APB2Periph;
  }
  else
  {
    RCC->APB2ENR &= ~RCC_APB2Periph;
 8000c58:	4905      	ldr	r1, [pc, #20]	; (8000c70 <RCC_APB2PeriphClockCmd+0x38>)
 8000c5a:	4b05      	ldr	r3, [pc, #20]	; (8000c70 <RCC_APB2PeriphClockCmd+0x38>)
 8000c5c:	6a1a      	ldr	r2, [r3, #32]
 8000c5e:	687b      	ldr	r3, [r7, #4]
 8000c60:	43db      	mvns	r3, r3
 8000c62:	4013      	ands	r3, r2
 8000c64:	620b      	str	r3, [r1, #32]
  }
}
 8000c66:	bf00      	nop
 8000c68:	370c      	adds	r7, #12
 8000c6a:	46bd      	mov	sp, r7
 8000c6c:	bc80      	pop	{r7}
 8000c6e:	4770      	bx	lr
 8000c70:	40023800 	.word	0x40023800

08000c74 <RCC_GetFlagStatus>:
  *     @arg RCC_FLAG_WWDGRST: Window Watchdog reset
  *     @arg RCC_FLAG_LPWRRST: Low Power reset
  * @retval The new state of RCC_FLAG (SET or RESET).
  */
FlagStatus RCC_GetFlagStatus(uint8_t RCC_FLAG)
{
 8000c74:	b480      	push	{r7}
 8000c76:	b087      	sub	sp, #28
 8000c78:	af00      	add	r7, sp, #0
 8000c7a:	4603      	mov	r3, r0
 8000c7c:	71fb      	strb	r3, [r7, #7]
  uint32_t tmp = 0;
 8000c7e:	2300      	movs	r3, #0
 8000c80:	60fb      	str	r3, [r7, #12]
  uint32_t statusreg = 0;
 8000c82:	2300      	movs	r3, #0
 8000c84:	617b      	str	r3, [r7, #20]
  FlagStatus bitstatus = RESET;
 8000c86:	2300      	movs	r3, #0
 8000c88:	74fb      	strb	r3, [r7, #19]

  /* Check the parameters */
  assert_param(IS_RCC_FLAG(RCC_FLAG));

  /* Get the RCC register index */
  tmp = RCC_FLAG >> 5;
 8000c8a:	79fb      	ldrb	r3, [r7, #7]
 8000c8c:	095b      	lsrs	r3, r3, #5
 8000c8e:	b2db      	uxtb	r3, r3
 8000c90:	60fb      	str	r3, [r7, #12]

  if (tmp == 1)               /* The flag to check is in CR register */
 8000c92:	68fb      	ldr	r3, [r7, #12]
 8000c94:	2b01      	cmp	r3, #1
 8000c96:	d103      	bne.n	8000ca0 <RCC_GetFlagStatus+0x2c>
  {
    statusreg = RCC->CR;
 8000c98:	4b0e      	ldr	r3, [pc, #56]	; (8000cd4 <RCC_GetFlagStatus+0x60>)
 8000c9a:	681b      	ldr	r3, [r3, #0]
 8000c9c:	617b      	str	r3, [r7, #20]
 8000c9e:	e002      	b.n	8000ca6 <RCC_GetFlagStatus+0x32>
  }
  else          /* The flag to check is in CSR register (tmp == 2) */
  {
    statusreg = RCC->CSR;
 8000ca0:	4b0c      	ldr	r3, [pc, #48]	; (8000cd4 <RCC_GetFlagStatus+0x60>)
 8000ca2:	6b5b      	ldr	r3, [r3, #52]	; 0x34
 8000ca4:	617b      	str	r3, [r7, #20]
  }

  /* Get the flag position */
  tmp = RCC_FLAG & FLAG_MASK;
 8000ca6:	79fb      	ldrb	r3, [r7, #7]
 8000ca8:	f003 031f 	and.w	r3, r3, #31
 8000cac:	60fb      	str	r3, [r7, #12]

  if ((statusreg & ((uint32_t)1 << tmp)) != (uint32_t)RESET)
 8000cae:	697a      	ldr	r2, [r7, #20]
 8000cb0:	68fb      	ldr	r3, [r7, #12]
 8000cb2:	fa22 f303 	lsr.w	r3, r2, r3
 8000cb6:	f003 0301 	and.w	r3, r3, #1
 8000cba:	2b00      	cmp	r3, #0
 8000cbc:	d002      	beq.n	8000cc4 <RCC_GetFlagStatus+0x50>
  {
    bitstatus = SET;
 8000cbe:	2301      	movs	r3, #1
 8000cc0:	74fb      	strb	r3, [r7, #19]
 8000cc2:	e001      	b.n	8000cc8 <RCC_GetFlagStatus+0x54>
  }
  else
  {
    bitstatus = RESET;
 8000cc4:	2300      	movs	r3, #0
 8000cc6:	74fb      	strb	r3, [r7, #19]
  }
  /* Return the flag status */
  return bitstatus;
 8000cc8:	7cfb      	ldrb	r3, [r7, #19]
}
 8000cca:	4618      	mov	r0, r3
 8000ccc:	371c      	adds	r7, #28
 8000cce:	46bd      	mov	sp, r7
 8000cd0:	bc80      	pop	{r7}
 8000cd2:	4770      	bx	lr
 8000cd4:	40023800 	.word	0x40023800

08000cd8 <SPI_Init>:
  * @param  SPI_InitStruct: pointer to a SPI_InitTypeDef structure that
  *         contains the configuration information for the specified SPI peripheral.
  * @retval None
  */
void SPI_Init(SPI_TypeDef* SPIx, SPI_InitTypeDef* SPI_InitStruct)
{
 8000cd8:	b480      	push	{r7}
 8000cda:	b085      	sub	sp, #20
 8000cdc:	af00      	add	r7, sp, #0
 8000cde:	6078      	str	r0, [r7, #4]
 8000ce0:	6039      	str	r1, [r7, #0]
  uint16_t tmpreg = 0;
 8000ce2:	2300      	movs	r3, #0
 8000ce4:	81fb      	strh	r3, [r7, #14]
  assert_param(IS_SPI_FIRST_BIT(SPI_InitStruct->SPI_FirstBit));
  assert_param(IS_SPI_CRC_POLYNOMIAL(SPI_InitStruct->SPI_CRCPolynomial));

/*---------------------------- SPIx CR1 Configuration ------------------------*/
  /* Get the SPIx CR1 value */
  tmpreg = SPIx->CR1;
 8000ce6:	687b      	ldr	r3, [r7, #4]
 8000ce8:	881b      	ldrh	r3, [r3, #0]
 8000cea:	81fb      	strh	r3, [r7, #14]
  /* Clear BIDIMode, BIDIOE, RxONLY, SSM, SSI, LSBFirst, BR, MSTR, CPOL and CPHA bits */
  tmpreg &= CR1_CLEAR_MASK;
 8000cec:	89fb      	ldrh	r3, [r7, #14]
 8000cee:	f403 5341 	and.w	r3, r3, #12352	; 0x3040
 8000cf2:	81fb      	strh	r3, [r7, #14]
  /* Set SSM, SSI and MSTR bits according to SPI_Mode and SPI_NSS values */
  /* Set LSBFirst bit according to SPI_FirstBit value */
  /* Set BR bits according to SPI_BaudRatePrescaler value */
  /* Set CPOL bit according to SPI_CPOL value */
  /* Set CPHA bit according to SPI_CPHA value */
  tmpreg |= (uint16_t)((uint32_t)SPI_InitStruct->SPI_Direction | SPI_InitStruct->SPI_Mode |
 8000cf4:	683b      	ldr	r3, [r7, #0]
 8000cf6:	881a      	ldrh	r2, [r3, #0]
 8000cf8:	683b      	ldr	r3, [r7, #0]
 8000cfa:	885b      	ldrh	r3, [r3, #2]
 8000cfc:	4313      	orrs	r3, r2
 8000cfe:	b29a      	uxth	r2, r3
                  SPI_InitStruct->SPI_DataSize | SPI_InitStruct->SPI_CPOL |  
 8000d00:	683b      	ldr	r3, [r7, #0]
 8000d02:	889b      	ldrh	r3, [r3, #4]
  /* Set SSM, SSI and MSTR bits according to SPI_Mode and SPI_NSS values */
  /* Set LSBFirst bit according to SPI_FirstBit value */
  /* Set BR bits according to SPI_BaudRatePrescaler value */
  /* Set CPOL bit according to SPI_CPOL value */
  /* Set CPHA bit according to SPI_CPHA value */
  tmpreg |= (uint16_t)((uint32_t)SPI_InitStruct->SPI_Direction | SPI_InitStruct->SPI_Mode |
 8000d04:	4313      	orrs	r3, r2
 8000d06:	b29a      	uxth	r2, r3
                  SPI_InitStruct->SPI_DataSize | SPI_InitStruct->SPI_CPOL |  
 8000d08:	683b      	ldr	r3, [r7, #0]
 8000d0a:	88db      	ldrh	r3, [r3, #6]
  /* Set SSM, SSI and MSTR bits according to SPI_Mode and SPI_NSS values */
  /* Set LSBFirst bit according to SPI_FirstBit value */
  /* Set BR bits according to SPI_BaudRatePrescaler value */
  /* Set CPOL bit according to SPI_CPOL value */
  /* Set CPHA bit according to SPI_CPHA value */
  tmpreg |= (uint16_t)((uint32_t)SPI_InitStruct->SPI_Direction | SPI_InitStruct->SPI_Mode |
 8000d0c:	4313      	orrs	r3, r2
 8000d0e:	b29a      	uxth	r2, r3
                  SPI_InitStruct->SPI_DataSize | SPI_InitStruct->SPI_CPOL |  
                  SPI_InitStruct->SPI_CPHA | SPI_InitStruct->SPI_NSS |  
 8000d10:	683b      	ldr	r3, [r7, #0]
 8000d12:	891b      	ldrh	r3, [r3, #8]
  /* Set SSM, SSI and MSTR bits according to SPI_Mode and SPI_NSS values */
  /* Set LSBFirst bit according to SPI_FirstBit value */
  /* Set BR bits according to SPI_BaudRatePrescaler value */
  /* Set CPOL bit according to SPI_CPOL value */
  /* Set CPHA bit according to SPI_CPHA value */
  tmpreg |= (uint16_t)((uint32_t)SPI_InitStruct->SPI_Direction | SPI_InitStruct->SPI_Mode |
 8000d14:	4313      	orrs	r3, r2
 8000d16:	b29a      	uxth	r2, r3
                  SPI_InitStruct->SPI_DataSize | SPI_InitStruct->SPI_CPOL |  
                  SPI_InitStruct->SPI_CPHA | SPI_InitStruct->SPI_NSS |  
 8000d18:	683b      	ldr	r3, [r7, #0]
 8000d1a:	895b      	ldrh	r3, [r3, #10]
  /* Set SSM, SSI and MSTR bits according to SPI_Mode and SPI_NSS values */
  /* Set LSBFirst bit according to SPI_FirstBit value */
  /* Set BR bits according to SPI_BaudRatePrescaler value */
  /* Set CPOL bit according to SPI_CPOL value */
  /* Set CPHA bit according to SPI_CPHA value */
  tmpreg |= (uint16_t)((uint32_t)SPI_InitStruct->SPI_Direction | SPI_InitStruct->SPI_Mode |
 8000d1c:	4313      	orrs	r3, r2
 8000d1e:	b29a      	uxth	r2, r3
                  SPI_InitStruct->SPI_DataSize | SPI_InitStruct->SPI_CPOL |  
                  SPI_InitStruct->SPI_CPHA | SPI_InitStruct->SPI_NSS |  
                  SPI_InitStruct->SPI_BaudRatePrescaler | SPI_InitStruct->SPI_FirstBit);
 8000d20:	683b      	ldr	r3, [r7, #0]
 8000d22:	899b      	ldrh	r3, [r3, #12]
  /* Set SSM, SSI and MSTR bits according to SPI_Mode and SPI_NSS values */
  /* Set LSBFirst bit according to SPI_FirstBit value */
  /* Set BR bits according to SPI_BaudRatePrescaler value */
  /* Set CPOL bit according to SPI_CPOL value */
  /* Set CPHA bit according to SPI_CPHA value */
  tmpreg |= (uint16_t)((uint32_t)SPI_InitStruct->SPI_Direction | SPI_InitStruct->SPI_Mode |
 8000d24:	4313      	orrs	r3, r2
 8000d26:	b29a      	uxth	r2, r3
                  SPI_InitStruct->SPI_DataSize | SPI_InitStruct->SPI_CPOL |  
                  SPI_InitStruct->SPI_CPHA | SPI_InitStruct->SPI_NSS |  
                  SPI_InitStruct->SPI_BaudRatePrescaler | SPI_InitStruct->SPI_FirstBit);
 8000d28:	683b      	ldr	r3, [r7, #0]
 8000d2a:	89db      	ldrh	r3, [r3, #14]
  /* Set SSM, SSI and MSTR bits according to SPI_Mode and SPI_NSS values */
  /* Set LSBFirst bit according to SPI_FirstBit value */
  /* Set BR bits according to SPI_BaudRatePrescaler value */
  /* Set CPOL bit according to SPI_CPOL value */
  /* Set CPHA bit according to SPI_CPHA value */
  tmpreg |= (uint16_t)((uint32_t)SPI_InitStruct->SPI_Direction | SPI_InitStruct->SPI_Mode |
 8000d2c:	4313      	orrs	r3, r2
 8000d2e:	b29a      	uxth	r2, r3
 8000d30:	89fb      	ldrh	r3, [r7, #14]
 8000d32:	4313      	orrs	r3, r2
 8000d34:	81fb      	strh	r3, [r7, #14]
                  SPI_InitStruct->SPI_DataSize | SPI_InitStruct->SPI_CPOL |  
                  SPI_InitStruct->SPI_CPHA | SPI_InitStruct->SPI_NSS |  
                  SPI_InitStruct->SPI_BaudRatePrescaler | SPI_InitStruct->SPI_FirstBit);
  /* Write to SPIx CR1 */
  SPIx->CR1 = tmpreg;
 8000d36:	687b      	ldr	r3, [r7, #4]
 8000d38:	89fa      	ldrh	r2, [r7, #14]
 8000d3a:	801a      	strh	r2, [r3, #0]

  /* Activate the SPI mode (Reset I2SMOD bit in I2SCFGR register) */
  SPIx->I2SCFGR &= (uint16_t)~((uint16_t)SPI_I2SCFGR_I2SMOD);
 8000d3c:	687b      	ldr	r3, [r7, #4]
 8000d3e:	8b9b      	ldrh	r3, [r3, #28]
 8000d40:	b29b      	uxth	r3, r3
 8000d42:	f423 6300 	bic.w	r3, r3, #2048	; 0x800
 8000d46:	b29a      	uxth	r2, r3
 8000d48:	687b      	ldr	r3, [r7, #4]
 8000d4a:	839a      	strh	r2, [r3, #28]
/*---------------------------- SPIx CRCPOLY Configuration --------------------*/
  /* Write to SPIx CRCPOLY */
  SPIx->CRCPR = SPI_InitStruct->SPI_CRCPolynomial;
 8000d4c:	683b      	ldr	r3, [r7, #0]
 8000d4e:	8a1a      	ldrh	r2, [r3, #16]
 8000d50:	687b      	ldr	r3, [r7, #4]
 8000d52:	821a      	strh	r2, [r3, #16]
}
 8000d54:	bf00      	nop
 8000d56:	3714      	adds	r7, #20
 8000d58:	46bd      	mov	sp, r7
 8000d5a:	bc80      	pop	{r7}
 8000d5c:	4770      	bx	lr
 8000d5e:	bf00      	nop

08000d60 <SPI_Cmd>:
  * @param  NewState: new state of the SPIx peripheral. 
  *   This parameter can be: ENABLE or DISABLE.
  * @retval None
  */
void SPI_Cmd(SPI_TypeDef* SPIx, FunctionalState NewState)
{
 8000d60:	b480      	push	{r7}
 8000d62:	b083      	sub	sp, #12
 8000d64:	af00      	add	r7, sp, #0
 8000d66:	6078      	str	r0, [r7, #4]
 8000d68:	460b      	mov	r3, r1
 8000d6a:	70fb      	strb	r3, [r7, #3]
  /* Check the parameters */
  assert_param(IS_SPI_ALL_PERIPH(SPIx));
  assert_param(IS_FUNCTIONAL_STATE(NewState));
  if (NewState != DISABLE)
 8000d6c:	78fb      	ldrb	r3, [r7, #3]
 8000d6e:	2b00      	cmp	r3, #0
 8000d70:	d008      	beq.n	8000d84 <SPI_Cmd+0x24>
  {
    /* Enable the selected SPI peripheral */
    SPIx->CR1 |= SPI_CR1_SPE;
 8000d72:	687b      	ldr	r3, [r7, #4]
 8000d74:	881b      	ldrh	r3, [r3, #0]
 8000d76:	b29b      	uxth	r3, r3
 8000d78:	f043 0340 	orr.w	r3, r3, #64	; 0x40
 8000d7c:	b29a      	uxth	r2, r3
 8000d7e:	687b      	ldr	r3, [r7, #4]
 8000d80:	801a      	strh	r2, [r3, #0]
  else
  {
    /* Disable the selected SPI peripheral */
    SPIx->CR1 &= (uint16_t)~((uint16_t)SPI_CR1_SPE);
  }
}
 8000d82:	e007      	b.n	8000d94 <SPI_Cmd+0x34>
    SPIx->CR1 |= SPI_CR1_SPE;
  }
  else
  {
    /* Disable the selected SPI peripheral */
    SPIx->CR1 &= (uint16_t)~((uint16_t)SPI_CR1_SPE);
 8000d84:	687b      	ldr	r3, [r7, #4]
 8000d86:	881b      	ldrh	r3, [r3, #0]
 8000d88:	b29b      	uxth	r3, r3
 8000d8a:	f023 0340 	bic.w	r3, r3, #64	; 0x40
 8000d8e:	b29a      	uxth	r2, r3
 8000d90:	687b      	ldr	r3, [r7, #4]
 8000d92:	801a      	strh	r2, [r3, #0]
  }
}
 8000d94:	bf00      	nop
 8000d96:	370c      	adds	r7, #12
 8000d98:	46bd      	mov	sp, r7
 8000d9a:	bc80      	pop	{r7}
 8000d9c:	4770      	bx	lr
 8000d9e:	bf00      	nop

08000da0 <SPI_I2S_GetFlagStatus>:
  *     @arg I2S_FLAG_UDR: Underrun Error flag.
  *     @arg I2S_FLAG_CHSIDE: Channel Side flag.
  * @retval The new state of SPI_I2S_FLAG (SET or RESET).
  */
FlagStatus SPI_I2S_GetFlagStatus(SPI_TypeDef* SPIx, uint16_t SPI_I2S_FLAG)
{
 8000da0:	b480      	push	{r7}
 8000da2:	b085      	sub	sp, #20
 8000da4:	af00      	add	r7, sp, #0
 8000da6:	6078      	str	r0, [r7, #4]
 8000da8:	460b      	mov	r3, r1
 8000daa:	807b      	strh	r3, [r7, #2]
  FlagStatus bitstatus = RESET;
 8000dac:	2300      	movs	r3, #0
 8000dae:	73fb      	strb	r3, [r7, #15]
  /* Check the parameters */
  assert_param(IS_SPI_ALL_PERIPH(SPIx));
  assert_param(IS_SPI_I2S_GET_FLAG(SPI_I2S_FLAG));
  
  /* Check the status of the specified SPI flag */
  if ((SPIx->SR & SPI_I2S_FLAG) != (uint16_t)RESET)
 8000db0:	687b      	ldr	r3, [r7, #4]
 8000db2:	891b      	ldrh	r3, [r3, #8]
 8000db4:	b29a      	uxth	r2, r3
 8000db6:	887b      	ldrh	r3, [r7, #2]
 8000db8:	4013      	ands	r3, r2
 8000dba:	b29b      	uxth	r3, r3
 8000dbc:	2b00      	cmp	r3, #0
 8000dbe:	d002      	beq.n	8000dc6 <SPI_I2S_GetFlagStatus+0x26>
  {
    /* SPI_I2S_FLAG is set */
    bitstatus = SET;
 8000dc0:	2301      	movs	r3, #1
 8000dc2:	73fb      	strb	r3, [r7, #15]
 8000dc4:	e001      	b.n	8000dca <SPI_I2S_GetFlagStatus+0x2a>
  }
  else
  {
    /* SPI_I2S_FLAG is reset */
    bitstatus = RESET;
 8000dc6:	2300      	movs	r3, #0
 8000dc8:	73fb      	strb	r3, [r7, #15]
  }
  /* Return the SPI_I2S_FLAG status */
  return  bitstatus;
 8000dca:	7bfb      	ldrb	r3, [r7, #15]
}
 8000dcc:	4618      	mov	r0, r3
 8000dce:	3714      	adds	r7, #20
 8000dd0:	46bd      	mov	sp, r7
 8000dd2:	bc80      	pop	{r7}
 8000dd4:	4770      	bx	lr
 8000dd6:	bf00      	nop

08000dd8 <TIM_GetITStatus>:
  * @note TIM10 and TIM11 can have only update interrupt or TIM_FLAG_CC1
  *     interrupt      
  * @retval The new state of the TIM_IT(SET or RESET).
  */
ITStatus TIM_GetITStatus(TIM_TypeDef* TIMx, uint16_t TIM_IT)
{
 8000dd8:	b480      	push	{r7}
 8000dda:	b085      	sub	sp, #20
 8000ddc:	af00      	add	r7, sp, #0
 8000dde:	6078      	str	r0, [r7, #4]
 8000de0:	460b      	mov	r3, r1
 8000de2:	807b      	strh	r3, [r7, #2]
  ITStatus bitstatus = RESET;  
 8000de4:	2300      	movs	r3, #0
 8000de6:	73fb      	strb	r3, [r7, #15]
  uint16_t itstatus = 0x0, itenable = 0x0;
 8000de8:	2300      	movs	r3, #0
 8000dea:	81bb      	strh	r3, [r7, #12]
 8000dec:	2300      	movs	r3, #0
 8000dee:	817b      	strh	r3, [r7, #10]
  
  /* Check the parameters */
  assert_param(IS_TIM_ALL_PERIPH(TIMx));
  assert_param(IS_TIM_GET_IT(TIM_IT));
   
  itstatus = TIMx->SR & TIM_IT;
 8000df0:	687b      	ldr	r3, [r7, #4]
 8000df2:	8a1b      	ldrh	r3, [r3, #16]
 8000df4:	b29a      	uxth	r2, r3
 8000df6:	887b      	ldrh	r3, [r7, #2]
 8000df8:	4013      	ands	r3, r2
 8000dfa:	81bb      	strh	r3, [r7, #12]
  
  itenable = TIMx->DIER & TIM_IT;
 8000dfc:	687b      	ldr	r3, [r7, #4]
 8000dfe:	899b      	ldrh	r3, [r3, #12]
 8000e00:	b29a      	uxth	r2, r3
 8000e02:	887b      	ldrh	r3, [r7, #2]
 8000e04:	4013      	ands	r3, r2
 8000e06:	817b      	strh	r3, [r7, #10]
  if ((itstatus != (uint16_t)RESET) && (itenable != (uint16_t)RESET))
 8000e08:	89bb      	ldrh	r3, [r7, #12]
 8000e0a:	2b00      	cmp	r3, #0
 8000e0c:	d005      	beq.n	8000e1a <TIM_GetITStatus+0x42>
 8000e0e:	897b      	ldrh	r3, [r7, #10]
 8000e10:	2b00      	cmp	r3, #0
 8000e12:	d002      	beq.n	8000e1a <TIM_GetITStatus+0x42>
  {
    bitstatus = SET;
 8000e14:	2301      	movs	r3, #1
 8000e16:	73fb      	strb	r3, [r7, #15]
 8000e18:	e001      	b.n	8000e1e <TIM_GetITStatus+0x46>
  }
  else
  {
    bitstatus = RESET;
 8000e1a:	2300      	movs	r3, #0
 8000e1c:	73fb      	strb	r3, [r7, #15]
  }
  return bitstatus;
 8000e1e:	7bfb      	ldrb	r3, [r7, #15]
}
 8000e20:	4618      	mov	r0, r3
 8000e22:	3714      	adds	r7, #20
 8000e24:	46bd      	mov	sp, r7
 8000e26:	bc80      	pop	{r7}
 8000e28:	4770      	bx	lr
 8000e2a:	bf00      	nop

08000e2c <TIM_ClearITPendingBit>:
  * @note TIM10 and TIM11 can have only update interrupt or TIM_IT_CC1
  *     interrupt        
  * @retval None
  */
void TIM_ClearITPendingBit(TIM_TypeDef* TIMx, uint16_t TIM_IT)
{
 8000e2c:	b480      	push	{r7}
 8000e2e:	b083      	sub	sp, #12
 8000e30:	af00      	add	r7, sp, #0
 8000e32:	6078      	str	r0, [r7, #4]
 8000e34:	460b      	mov	r3, r1
 8000e36:	807b      	strh	r3, [r7, #2]
  /* Check the parameters */
  assert_param(IS_TIM_ALL_PERIPH(TIMx));
  assert_param(IS_TIM_IT(TIM_IT));
   
  /* Clear the IT pending Bit */
  TIMx->SR = (uint16_t)~TIM_IT;
 8000e38:	887b      	ldrh	r3, [r7, #2]
 8000e3a:	43db      	mvns	r3, r3
 8000e3c:	b29a      	uxth	r2, r3
 8000e3e:	687b      	ldr	r3, [r7, #4]
 8000e40:	821a      	strh	r2, [r3, #16]
}
 8000e42:	bf00      	nop
 8000e44:	370c      	adds	r7, #12
 8000e46:	46bd      	mov	sp, r7
 8000e48:	bc80      	pop	{r7}
 8000e4a:	4770      	bx	lr

08000e4c <TIM7_IRQHandler>:
static uint16_t backlitModulo = 0;
static uint16_t shimmerModulo = 0;
static uint16_t shimmerDutyCycle = SHIMMER_DUTY_CYCLE;

void TIM7_IRQHandler(void)
{
 8000e4c:	b598      	push	{r3, r4, r7, lr}
 8000e4e:	af00      	add	r7, sp, #0
	if (TIM_GetITStatus(TIM7, TIM_IT_Update) == SET)
 8000e50:	2101      	movs	r1, #1
 8000e52:	4817      	ldr	r0, [pc, #92]	; (8000eb0 <TIM7_IRQHandler+0x64>)
 8000e54:	f7ff ffc0 	bl	8000dd8 <TIM_GetITStatus>
 8000e58:	4603      	mov	r3, r0
 8000e5a:	2b01      	cmp	r3, #1
 8000e5c:	d126      	bne.n	8000eac <TIM7_IRQHandler+0x60>
	{
		backlitTimer++;
 8000e5e:	4b15      	ldr	r3, [pc, #84]	; (8000eb4 <TIM7_IRQHandler+0x68>)
 8000e60:	cb18      	ldmia	r3, {r3, r4}
 8000e62:	3301      	adds	r3, #1
 8000e64:	f144 0400 	adc.w	r4, r4, #0
 8000e68:	4a12      	ldr	r2, [pc, #72]	; (8000eb4 <TIM7_IRQHandler+0x68>)
 8000e6a:	e882 0018 	stmia.w	r2, {r3, r4}

		shimmerModulo = backlitTimer % SHIMMER_PERIOD;
 8000e6e:	4b11      	ldr	r3, [pc, #68]	; (8000eb4 <TIM7_IRQHandler+0x68>)
 8000e70:	e9d3 0100 	ldrd	r0, r1, [r3]
 8000e74:	f242 7210 	movw	r2, #10000	; 0x2710
 8000e78:	f04f 0300 	mov.w	r3, #0
 8000e7c:	f7ff f986 	bl	800018c <__aeabi_uldivmod>
 8000e80:	461c      	mov	r4, r3
 8000e82:	4613      	mov	r3, r2
 8000e84:	b29a      	uxth	r2, r3
 8000e86:	4b0c      	ldr	r3, [pc, #48]	; (8000eb8 <TIM7_IRQHandler+0x6c>)
 8000e88:	801a      	strh	r2, [r3, #0]

		if(shimmerDutyCycle < shimmerModulo)
 8000e8a:	4b0c      	ldr	r3, [pc, #48]	; (8000ebc <TIM7_IRQHandler+0x70>)
 8000e8c:	881a      	ldrh	r2, [r3, #0]
 8000e8e:	4b0a      	ldr	r3, [pc, #40]	; (8000eb8 <TIM7_IRQHandler+0x6c>)
 8000e90:	881b      	ldrh	r3, [r3, #0]
 8000e92:	429a      	cmp	r2, r3
 8000e94:	d203      	bcs.n	8000e9e <TIM7_IRQHandler+0x52>
		{
			gShimmerFlag = 0;
 8000e96:	4b0a      	ldr	r3, [pc, #40]	; (8000ec0 <TIM7_IRQHandler+0x74>)
 8000e98:	2200      	movs	r2, #0
 8000e9a:	701a      	strb	r2, [r3, #0]
 8000e9c:	e002      	b.n	8000ea4 <TIM7_IRQHandler+0x58>
		}
		else
		{
			gShimmerFlag = 1;
 8000e9e:	4b08      	ldr	r3, [pc, #32]	; (8000ec0 <TIM7_IRQHandler+0x74>)
 8000ea0:	2201      	movs	r2, #1
 8000ea2:	701a      	strb	r2, [r3, #0]
				GPIOB->BSRRH = GPIO_Pin_0;
				GPIOA->BSRRH = GPIO_Pin_7;
			}
		}*/

		TIM_ClearITPendingBit(TIM7, TIM_IT_Update);
 8000ea4:	2101      	movs	r1, #1
 8000ea6:	4802      	ldr	r0, [pc, #8]	; (8000eb0 <TIM7_IRQHandler+0x64>)
 8000ea8:	f7ff ffc0 	bl	8000e2c <TIM_ClearITPendingBit>
	}
}
 8000eac:	bf00      	nop
 8000eae:	bd98      	pop	{r3, r4, r7, pc}
 8000eb0:	40001400 	.word	0x40001400
 8000eb4:	20000028 	.word	0x20000028
 8000eb8:	20000030 	.word	0x20000030
 8000ebc:	20000000 	.word	0x20000000
 8000ec0:	20000024 	.word	0x20000024

08000ec4 <initSPI2>:
#include "mcu.h"

//TODO rework to STM32L mcu's

void initSPI2(void)
{
 8000ec4:	b580      	push	{r7, lr}
 8000ec6:	b088      	sub	sp, #32
 8000ec8:	af00      	add	r7, sp, #0
	GPIO_InitTypeDef GPIO_InitStructure;

	RCC_APB2PeriphClockCmd(RCC_APB2Periph_SPI1, ENABLE);
 8000eca:	2101      	movs	r1, #1
 8000ecc:	f44f 5080 	mov.w	r0, #4096	; 0x1000
 8000ed0:	f7ff feb2 	bl	8000c38 <RCC_APB2PeriphClockCmd>
	RCC_AHBPeriphClockCmd(RCC_AHBPeriph_GPIOB, ENABLE);
 8000ed4:	2101      	movs	r1, #1
 8000ed6:	2002      	movs	r0, #2
 8000ed8:	f7ff fe90 	bl	8000bfc <RCC_AHBPeriphClockCmd>

	GPIO_InitStructure.GPIO_Mode = GPIO_Mode_AF;
 8000edc:	2302      	movs	r3, #2
 8000ede:	773b      	strb	r3, [r7, #28]
	GPIO_InitStructure.GPIO_OType = GPIO_OType_PP;
 8000ee0:	2300      	movs	r3, #0
 8000ee2:	77bb      	strb	r3, [r7, #30]
	GPIO_InitStructure.GPIO_Speed = GPIO_Speed_40MHz;
 8000ee4:	2303      	movs	r3, #3
 8000ee6:	777b      	strb	r3, [r7, #29]
	GPIO_InitStructure.GPIO_PuPd = GPIO_PuPd_NOPULL;
 8000ee8:	2300      	movs	r3, #0
 8000eea:	77fb      	strb	r3, [r7, #31]

	//PB3 - SPI2_SCK
	//PB4 - SPI2_MISO
	//PB5 - SPI2_MOSI
	GPIO_InitStructure.GPIO_Pin = GPIO_Pin_3|GPIO_Pin_4|GPIO_Pin_5;
 8000eec:	2338      	movs	r3, #56	; 0x38
 8000eee:	61bb      	str	r3, [r7, #24]
	GPIO_Init(GPIOB, &GPIO_InitStructure);
 8000ef0:	f107 0318 	add.w	r3, r7, #24
 8000ef4:	4619      	mov	r1, r3
 8000ef6:	4819      	ldr	r0, [pc, #100]	; (8000f5c <initSPI2+0x98>)
 8000ef8:	f7ff fd92 	bl	8000a20 <GPIO_Init>

	GPIO_PinAFConfig(GPIOB, GPIO_PinSource3, GPIO_AF_SPI1);
 8000efc:	2205      	movs	r2, #5
 8000efe:	2103      	movs	r1, #3
 8000f00:	4816      	ldr	r0, [pc, #88]	; (8000f5c <initSPI2+0x98>)
 8000f02:	f7ff fe23 	bl	8000b4c <GPIO_PinAFConfig>
	GPIO_PinAFConfig(GPIOB, GPIO_PinSource4, GPIO_AF_SPI1);
 8000f06:	2205      	movs	r2, #5
 8000f08:	2104      	movs	r1, #4
 8000f0a:	4814      	ldr	r0, [pc, #80]	; (8000f5c <initSPI2+0x98>)
 8000f0c:	f7ff fe1e 	bl	8000b4c <GPIO_PinAFConfig>
	GPIO_PinAFConfig(GPIOB, GPIO_PinSource5, GPIO_AF_SPI1);
 8000f10:	2205      	movs	r2, #5
 8000f12:	2105      	movs	r1, #5
 8000f14:	4811      	ldr	r0, [pc, #68]	; (8000f5c <initSPI2+0x98>)
 8000f16:	f7ff fe19 	bl	8000b4c <GPIO_PinAFConfig>

	SPI_InitTypeDef  SPI_InitStructure;
	SPI_InitStructure.SPI_BaudRatePrescaler = SPI_BaudRatePrescaler_2;
 8000f1a:	2300      	movs	r3, #0
 8000f1c:	823b      	strh	r3, [r7, #16]
	SPI_InitStructure.SPI_CPHA = SPI_CPHA_1Edge;
 8000f1e:	2300      	movs	r3, #0
 8000f20:	81bb      	strh	r3, [r7, #12]
	SPI_InitStructure.SPI_CPOL = SPI_CPOL_Low;
 8000f22:	2300      	movs	r3, #0
 8000f24:	817b      	strh	r3, [r7, #10]
	SPI_InitStructure.SPI_CRCPolynomial = SPI_CRC_Rx;
 8000f26:	2301      	movs	r3, #1
 8000f28:	82bb      	strh	r3, [r7, #20]
	SPI_InitStructure.SPI_DataSize = SPI_DataSize_8b;
 8000f2a:	2300      	movs	r3, #0
 8000f2c:	813b      	strh	r3, [r7, #8]
	SPI_InitStructure.SPI_Direction = SPI_Direction_2Lines_FullDuplex;
 8000f2e:	2300      	movs	r3, #0
 8000f30:	80bb      	strh	r3, [r7, #4]
	SPI_InitStructure.SPI_FirstBit = SPI_FirstBit_MSB;
 8000f32:	2300      	movs	r3, #0
 8000f34:	827b      	strh	r3, [r7, #18]
	SPI_InitStructure.SPI_Mode = SPI_Mode_Master;
 8000f36:	f44f 7382 	mov.w	r3, #260	; 0x104
 8000f3a:	80fb      	strh	r3, [r7, #6]
	SPI_InitStructure.SPI_NSS = SPI_NSS_Soft;
 8000f3c:	f44f 7300 	mov.w	r3, #512	; 0x200
 8000f40:	81fb      	strh	r3, [r7, #14]

	/* Apply SPI configuration after enabling it */
	SPI_Init(SPI1, &SPI_InitStructure);
 8000f42:	1d3b      	adds	r3, r7, #4
 8000f44:	4619      	mov	r1, r3
 8000f46:	4806      	ldr	r0, [pc, #24]	; (8000f60 <initSPI2+0x9c>)
 8000f48:	f7ff fec6 	bl	8000cd8 <SPI_Init>
	/* SPI Peripheral Enable */
	SPI_Cmd(SPI1, ENABLE);
 8000f4c:	2101      	movs	r1, #1
 8000f4e:	4804      	ldr	r0, [pc, #16]	; (8000f60 <initSPI2+0x9c>)
 8000f50:	f7ff ff06 	bl	8000d60 <SPI_Cmd>
}
 8000f54:	bf00      	nop
 8000f56:	3720      	adds	r7, #32
 8000f58:	46bd      	mov	sp, r7
 8000f5a:	bd80      	pop	{r7, pc}
 8000f5c:	40020400 	.word	0x40020400
 8000f60:	40013000 	.word	0x40013000

08000f64 <readWriteSPI2>:

unsigned char readWriteSPI2(unsigned char txData)
{
 8000f64:	b580      	push	{r7, lr}
 8000f66:	b084      	sub	sp, #16
 8000f68:	af00      	add	r7, sp, #0
 8000f6a:	4603      	mov	r3, r0
 8000f6c:	71fb      	strb	r3, [r7, #7]
	unsigned char  rxData;

	SPI1->DR = txData;
 8000f6e:	4b0e      	ldr	r3, [pc, #56]	; (8000fa8 <readWriteSPI2+0x44>)
 8000f70:	79fa      	ldrb	r2, [r7, #7]
 8000f72:	b292      	uxth	r2, r2
 8000f74:	819a      	strh	r2, [r3, #12]
	// wait until TXE = 1
	while(SPI_I2S_GetFlagStatus(SPI1,SPI_I2S_FLAG_TXE) != SET);
 8000f76:	bf00      	nop
 8000f78:	2102      	movs	r1, #2
 8000f7a:	480b      	ldr	r0, [pc, #44]	; (8000fa8 <readWriteSPI2+0x44>)
 8000f7c:	f7ff ff10 	bl	8000da0 <SPI_I2S_GetFlagStatus>
 8000f80:	4603      	mov	r3, r0
 8000f82:	2b01      	cmp	r3, #1
 8000f84:	d1f8      	bne.n	8000f78 <readWriteSPI2+0x14>
	// wait until RXNE = 1
	while(SPI_I2S_GetFlagStatus(SPI1,SPI_I2S_FLAG_RXNE) != SET);
 8000f86:	bf00      	nop
 8000f88:	2101      	movs	r1, #1
 8000f8a:	4807      	ldr	r0, [pc, #28]	; (8000fa8 <readWriteSPI2+0x44>)
 8000f8c:	f7ff ff08 	bl	8000da0 <SPI_I2S_GetFlagStatus>
 8000f90:	4603      	mov	r3, r0
 8000f92:	2b01      	cmp	r3, #1
 8000f94:	d1f8      	bne.n	8000f88 <readWriteSPI2+0x24>
	// read the rx buff to clear the RXNE flag (garbage)
	rxData = SPI1->DR;
 8000f96:	4b04      	ldr	r3, [pc, #16]	; (8000fa8 <readWriteSPI2+0x44>)
 8000f98:	899b      	ldrh	r3, [r3, #12]
 8000f9a:	b29b      	uxth	r3, r3
 8000f9c:	73fb      	strb	r3, [r7, #15]

	return rxData;
 8000f9e:	7bfb      	ldrb	r3, [r7, #15]
}
 8000fa0:	4618      	mov	r0, r3
 8000fa2:	3710      	adds	r7, #16
 8000fa4:	46bd      	mov	sp, r7
 8000fa6:	bd80      	pop	{r7, pc}
 8000fa8:	40013000 	.word	0x40013000

08000fac <initCS_Pin>:

void initCS_Pin(void)
{
 8000fac:	b580      	push	{r7, lr}
 8000fae:	b082      	sub	sp, #8
 8000fb0:	af00      	add	r7, sp, #0
	GPIO_InitTypeDef GPIO_InitStructure;
	RCC_AHBPeriphClockCmd(RCC_AHBPeriph_GPIOB, ENABLE);
 8000fb2:	2101      	movs	r1, #1
 8000fb4:	2002      	movs	r0, #2
 8000fb6:	f7ff fe21 	bl	8000bfc <RCC_AHBPeriphClockCmd>

	GPIO_InitStructure.GPIO_OType = GPIO_OType_PP;
 8000fba:	2300      	movs	r3, #0
 8000fbc:	71bb      	strb	r3, [r7, #6]
	GPIO_InitStructure.GPIO_Speed = GPIO_Speed_40MHz;
 8000fbe:	2303      	movs	r3, #3
 8000fc0:	717b      	strb	r3, [r7, #5]
	GPIO_InitStructure.GPIO_PuPd = GPIO_PuPd_NOPULL;
 8000fc2:	2300      	movs	r3, #0
 8000fc4:	71fb      	strb	r3, [r7, #7]
	GPIO_InitStructure.GPIO_Pin = GPIO_Pin_10;
 8000fc6:	f44f 6380 	mov.w	r3, #1024	; 0x400
 8000fca:	603b      	str	r3, [r7, #0]
	GPIO_InitStructure.GPIO_Mode = GPIO_Mode_OUT;
 8000fcc:	2301      	movs	r3, #1
 8000fce:	713b      	strb	r3, [r7, #4]
	GPIO_Init(GPIOB, &GPIO_InitStructure);
 8000fd0:	463b      	mov	r3, r7
 8000fd2:	4619      	mov	r1, r3
 8000fd4:	4803      	ldr	r0, [pc, #12]	; (8000fe4 <initCS_Pin+0x38>)
 8000fd6:	f7ff fd23 	bl	8000a20 <GPIO_Init>
}
 8000fda:	bf00      	nop
 8000fdc:	3708      	adds	r7, #8
 8000fde:	46bd      	mov	sp, r7
 8000fe0:	bd80      	pop	{r7, pc}
 8000fe2:	bf00      	nop
 8000fe4:	40020400 	.word	0x40020400

08000fe8 <initCD_Pin>:

void initCD_Pin(void)
{
 8000fe8:	b580      	push	{r7, lr}
 8000fea:	b082      	sub	sp, #8
 8000fec:	af00      	add	r7, sp, #0
	GPIO_InitTypeDef GPIO_InitStructure;
	RCC_AHBPeriphClockCmd(RCC_AHBPeriph_GPIOA, ENABLE);
 8000fee:	2101      	movs	r1, #1
 8000ff0:	2001      	movs	r0, #1
 8000ff2:	f7ff fe03 	bl	8000bfc <RCC_AHBPeriphClockCmd>

	GPIO_InitStructure.GPIO_OType = GPIO_OType_PP;
 8000ff6:	2300      	movs	r3, #0
 8000ff8:	71bb      	strb	r3, [r7, #6]
	GPIO_InitStructure.GPIO_Speed = GPIO_Speed_40MHz;
 8000ffa:	2303      	movs	r3, #3
 8000ffc:	717b      	strb	r3, [r7, #5]
	GPIO_InitStructure.GPIO_PuPd = GPIO_PuPd_NOPULL;
 8000ffe:	2300      	movs	r3, #0
 8001000:	71fb      	strb	r3, [r7, #7]
	GPIO_InitStructure.GPIO_Pin = GPIO_Pin_8;
 8001002:	f44f 7380 	mov.w	r3, #256	; 0x100
 8001006:	603b      	str	r3, [r7, #0]
	GPIO_InitStructure.GPIO_Mode = GPIO_Mode_OUT;
 8001008:	2301      	movs	r3, #1
 800100a:	713b      	strb	r3, [r7, #4]
	GPIO_Init(GPIOA, &GPIO_InitStructure);
 800100c:	463b      	mov	r3, r7
 800100e:	4619      	mov	r1, r3
 8001010:	4803      	ldr	r0, [pc, #12]	; (8001020 <initCD_Pin+0x38>)
 8001012:	f7ff fd05 	bl	8000a20 <GPIO_Init>
}
 8001016:	bf00      	nop
 8001018:	3708      	adds	r7, #8
 800101a:	46bd      	mov	sp, r7
 800101c:	bd80      	pop	{r7, pc}
 800101e:	bf00      	nop
 8001020:	40020000 	.word	0x40020000

08001024 <cd_set>:

void cd_set(void)
{
 8001024:	b480      	push	{r7}
 8001026:	af00      	add	r7, sp, #0
	GPIOA->BSRRL = GPIO_Pin_8;
 8001028:	4b03      	ldr	r3, [pc, #12]	; (8001038 <cd_set+0x14>)
 800102a:	f44f 7280 	mov.w	r2, #256	; 0x100
 800102e:	831a      	strh	r2, [r3, #24]
}
 8001030:	bf00      	nop
 8001032:	46bd      	mov	sp, r7
 8001034:	bc80      	pop	{r7}
 8001036:	4770      	bx	lr
 8001038:	40020000 	.word	0x40020000

0800103c <cd_reset>:

void cd_reset(void)
{
 800103c:	b480      	push	{r7}
 800103e:	af00      	add	r7, sp, #0
	GPIOA->BSRRH = GPIO_Pin_8;
 8001040:	4b03      	ldr	r3, [pc, #12]	; (8001050 <cd_reset+0x14>)
 8001042:	f44f 7280 	mov.w	r2, #256	; 0x100
 8001046:	835a      	strh	r2, [r3, #26]
}
 8001048:	bf00      	nop
 800104a:	46bd      	mov	sp, r7
 800104c:	bc80      	pop	{r7}
 800104e:	4770      	bx	lr
 8001050:	40020000 	.word	0x40020000

08001054 <initRES_Pin>:

void initRES_Pin(void)
{
 8001054:	b580      	push	{r7, lr}
 8001056:	b082      	sub	sp, #8
 8001058:	af00      	add	r7, sp, #0
	GPIO_InitTypeDef GPIO_InitStructure;
	RCC_AHBPeriphClockCmd(RCC_AHBPeriph_GPIOA, ENABLE);
 800105a:	2101      	movs	r1, #1
 800105c:	2001      	movs	r0, #1
 800105e:	f7ff fdcd 	bl	8000bfc <RCC_AHBPeriphClockCmd>

	GPIO_InitStructure.GPIO_OType = GPIO_OType_PP;
 8001062:	2300      	movs	r3, #0
 8001064:	71bb      	strb	r3, [r7, #6]
	GPIO_InitStructure.GPIO_Speed = GPIO_Speed_40MHz;
 8001066:	2303      	movs	r3, #3
 8001068:	717b      	strb	r3, [r7, #5]
	GPIO_InitStructure.GPIO_PuPd = GPIO_PuPd_NOPULL;
 800106a:	2300      	movs	r3, #0
 800106c:	71fb      	strb	r3, [r7, #7]
	GPIO_InitStructure.GPIO_Pin = GPIO_Pin_9;
 800106e:	f44f 7300 	mov.w	r3, #512	; 0x200
 8001072:	603b      	str	r3, [r7, #0]
	GPIO_InitStructure.GPIO_Mode = GPIO_Mode_OUT;
 8001074:	2301      	movs	r3, #1
 8001076:	713b      	strb	r3, [r7, #4]
	GPIO_Init(GPIOA, &GPIO_InitStructure);
 8001078:	463b      	mov	r3, r7
 800107a:	4619      	mov	r1, r3
 800107c:	4803      	ldr	r0, [pc, #12]	; (800108c <initRES_Pin+0x38>)
 800107e:	f7ff fccf 	bl	8000a20 <GPIO_Init>
}
 8001082:	bf00      	nop
 8001084:	3708      	adds	r7, #8
 8001086:	46bd      	mov	sp, r7
 8001088:	bd80      	pop	{r7, pc}
 800108a:	bf00      	nop
 800108c:	40020000 	.word	0x40020000

08001090 <res_set>:

void res_set(void)
{
 8001090:	b480      	push	{r7}
 8001092:	af00      	add	r7, sp, #0
	GPIOA->BSRRL = GPIO_Pin_9;
 8001094:	4b03      	ldr	r3, [pc, #12]	; (80010a4 <res_set+0x14>)
 8001096:	f44f 7200 	mov.w	r2, #512	; 0x200
 800109a:	831a      	strh	r2, [r3, #24]
}
 800109c:	bf00      	nop
 800109e:	46bd      	mov	sp, r7
 80010a0:	bc80      	pop	{r7}
 80010a2:	4770      	bx	lr
 80010a4:	40020000 	.word	0x40020000

080010a8 <res_reset>:

void res_reset(void)
{
 80010a8:	b480      	push	{r7}
 80010aa:	af00      	add	r7, sp, #0
	GPIOA->BSRRH = GPIO_Pin_9;
 80010ac:	4b03      	ldr	r3, [pc, #12]	; (80010bc <res_reset+0x14>)
 80010ae:	f44f 7200 	mov.w	r2, #512	; 0x200
 80010b2:	835a      	strh	r2, [r3, #26]
}
 80010b4:	bf00      	nop
 80010b6:	46bd      	mov	sp, r7
 80010b8:	bc80      	pop	{r7}
 80010ba:	4770      	bx	lr
 80010bc:	40020000 	.word	0x40020000

080010c0 <lcdReset>:
uint16_t matrix_pom[128][128];
// Low-level LCD driving functions --------------------------------------------------------------------------

// Reset the LCD hardware
void lcdReset(void)
{
 80010c0:	b580      	push	{r7, lr}
 80010c2:	af00      	add	r7, sp, #0
	// Reset pin is active low (0 = reset, 1 = ready)
	res_reset();
 80010c4:	f7ff fff0 	bl	80010a8 <res_reset>
	Delay(10000);
 80010c8:	f242 7010 	movw	r0, #10000	; 0x2710
 80010cc:	f006 fbfc 	bl	80078c8 <Delay>

	res_set();
 80010d0:	f7ff ffde 	bl	8001090 <res_set>
	Delay(10000);
 80010d4:	f242 7010 	movw	r0, #10000	; 0x2710
 80010d8:	f006 fbf6 	bl	80078c8 <Delay>
}
 80010dc:	bf00      	nop
 80010de:	bd80      	pop	{r7, pc}

080010e0 <lcdWriteCommand>:

void lcdWriteCommand(uint8_t address)
{
 80010e0:	b580      	push	{r7, lr}
 80010e2:	b082      	sub	sp, #8
 80010e4:	af00      	add	r7, sp, #0
 80010e6:	4603      	mov	r3, r0
 80010e8:	71fb      	strb	r3, [r7, #7]
	cd_reset();
 80010ea:	f7ff ffa7 	bl	800103c <cd_reset>

	readWriteSPI2(address);
 80010ee:	79fb      	ldrb	r3, [r7, #7]
 80010f0:	4618      	mov	r0, r3
 80010f2:	f7ff ff37 	bl	8000f64 <readWriteSPI2>
}
 80010f6:	bf00      	nop
 80010f8:	3708      	adds	r7, #8
 80010fa:	46bd      	mov	sp, r7
 80010fc:	bd80      	pop	{r7, pc}
 80010fe:	bf00      	nop

08001100 <lcdWriteParameter>:

void lcdWriteParameter(uint8_t parameter)
{
 8001100:	b580      	push	{r7, lr}
 8001102:	b082      	sub	sp, #8
 8001104:	af00      	add	r7, sp, #0
 8001106:	4603      	mov	r3, r0
 8001108:	71fb      	strb	r3, [r7, #7]
	cd_set();
 800110a:	f7ff ff8b 	bl	8001024 <cd_set>

	readWriteSPI2(parameter);
 800110e:	79fb      	ldrb	r3, [r7, #7]
 8001110:	4618      	mov	r0, r3
 8001112:	f7ff ff27 	bl	8000f64 <readWriteSPI2>
}
 8001116:	bf00      	nop
 8001118:	3708      	adds	r7, #8
 800111a:	46bd      	mov	sp, r7
 800111c:	bd80      	pop	{r7, pc}
 800111e:	bf00      	nop

08001120 <lcdWriteData>:

void lcdWriteData(uint8_t dataByte1, uint8_t dataByte2)
{
 8001120:	b580      	push	{r7, lr}
 8001122:	b082      	sub	sp, #8
 8001124:	af00      	add	r7, sp, #0
 8001126:	4603      	mov	r3, r0
 8001128:	460a      	mov	r2, r1
 800112a:	71fb      	strb	r3, [r7, #7]
 800112c:	4613      	mov	r3, r2
 800112e:	71bb      	strb	r3, [r7, #6]
	cd_set();
 8001130:	f7ff ff78 	bl	8001024 <cd_set>

	readWriteSPI2(dataByte1);
 8001134:	79fb      	ldrb	r3, [r7, #7]
 8001136:	4618      	mov	r0, r3
 8001138:	f7ff ff14 	bl	8000f64 <readWriteSPI2>
	readWriteSPI2(dataByte2);
 800113c:	79bb      	ldrb	r3, [r7, #6]
 800113e:	4618      	mov	r0, r3
 8001140:	f7ff ff10 	bl	8000f64 <readWriteSPI2>
}
 8001144:	bf00      	nop
 8001146:	3708      	adds	r7, #8
 8001148:	46bd      	mov	sp, r7
 800114a:	bd80      	pop	{r7, pc}

0800114c <lcdInitialise>:

// Initialise the display with the require screen orientation
void lcdInitialise(uint8_t orientation)
{
 800114c:	b580      	push	{r7, lr}
 800114e:	b082      	sub	sp, #8
 8001150:	af00      	add	r7, sp, #0
 8001152:	4603      	mov	r3, r0
 8001154:	71fb      	strb	r3, [r7, #7]
	// Set up the IO ports for communication with the LCD


	// Hardware reset the LCD
	lcdReset();
 8001156:	f7ff ffb3 	bl	80010c0 <lcdReset>

    lcdWriteCommand(EXIT_SLEEP_MODE);
 800115a:	2011      	movs	r0, #17
 800115c:	f7ff ffc0 	bl	80010e0 <lcdWriteCommand>
    Delay(10000); // Wait for the screen to wake up
 8001160:	f242 7010 	movw	r0, #10000	; 0x2710
 8001164:	f006 fbb0 	bl	80078c8 <Delay>

    lcdWriteCommand(SET_PIXEL_FORMAT);
 8001168:	203a      	movs	r0, #58	; 0x3a
 800116a:	f7ff ffb9 	bl	80010e0 <lcdWriteCommand>
    lcdWriteParameter(0x05); // 16 bits per pixel
 800116e:	2005      	movs	r0, #5
 8001170:	f7ff ffc6 	bl	8001100 <lcdWriteParameter>

    lcdWriteCommand(SET_GAMMA_CURVE);
 8001174:	2026      	movs	r0, #38	; 0x26
 8001176:	f7ff ffb3 	bl	80010e0 <lcdWriteCommand>
    lcdWriteParameter(0x04); // Select gamma curve 3
 800117a:	2004      	movs	r0, #4
 800117c:	f7ff ffc0 	bl	8001100 <lcdWriteParameter>

    lcdWriteCommand(GAM_R_SEL);
 8001180:	20f2      	movs	r0, #242	; 0xf2
 8001182:	f7ff ffad 	bl	80010e0 <lcdWriteCommand>
    lcdWriteParameter(0x01); // Gamma adjustment enabled
 8001186:	2001      	movs	r0, #1
 8001188:	f7ff ffba 	bl	8001100 <lcdWriteParameter>

    lcdWriteCommand(POSITIVE_GAMMA_CORRECT);
 800118c:	20e0      	movs	r0, #224	; 0xe0
 800118e:	f7ff ffa7 	bl	80010e0 <lcdWriteCommand>
    lcdWriteParameter(0x3f); // 1st Parameter
 8001192:	203f      	movs	r0, #63	; 0x3f
 8001194:	f7ff ffb4 	bl	8001100 <lcdWriteParameter>
    lcdWriteParameter(0x25); // 2nd Parameter
 8001198:	2025      	movs	r0, #37	; 0x25
 800119a:	f7ff ffb1 	bl	8001100 <lcdWriteParameter>
    lcdWriteParameter(0x1c); // 3rd Parameter
 800119e:	201c      	movs	r0, #28
 80011a0:	f7ff ffae 	bl	8001100 <lcdWriteParameter>
    lcdWriteParameter(0x1e); // 4th Parameter
 80011a4:	201e      	movs	r0, #30
 80011a6:	f7ff ffab 	bl	8001100 <lcdWriteParameter>
    lcdWriteParameter(0x20); // 5th Parameter
 80011aa:	2020      	movs	r0, #32
 80011ac:	f7ff ffa8 	bl	8001100 <lcdWriteParameter>
    lcdWriteParameter(0x12); // 6th Parameter
 80011b0:	2012      	movs	r0, #18
 80011b2:	f7ff ffa5 	bl	8001100 <lcdWriteParameter>
    lcdWriteParameter(0x2a); // 7th Parameter
 80011b6:	202a      	movs	r0, #42	; 0x2a
 80011b8:	f7ff ffa2 	bl	8001100 <lcdWriteParameter>
    lcdWriteParameter(0x90); // 8th Parameter
 80011bc:	2090      	movs	r0, #144	; 0x90
 80011be:	f7ff ff9f 	bl	8001100 <lcdWriteParameter>
    lcdWriteParameter(0x24); // 9th Parameter
 80011c2:	2024      	movs	r0, #36	; 0x24
 80011c4:	f7ff ff9c 	bl	8001100 <lcdWriteParameter>
    lcdWriteParameter(0x11); // 10th Parameter
 80011c8:	2011      	movs	r0, #17
 80011ca:	f7ff ff99 	bl	8001100 <lcdWriteParameter>
    lcdWriteParameter(0x00); // 11th Parameter
 80011ce:	2000      	movs	r0, #0
 80011d0:	f7ff ff96 	bl	8001100 <lcdWriteParameter>
    lcdWriteParameter(0x00); // 12th Parameter
 80011d4:	2000      	movs	r0, #0
 80011d6:	f7ff ff93 	bl	8001100 <lcdWriteParameter>
    lcdWriteParameter(0x00); // 13th Parameter
 80011da:	2000      	movs	r0, #0
 80011dc:	f7ff ff90 	bl	8001100 <lcdWriteParameter>
    lcdWriteParameter(0x00); // 14th Parameter
 80011e0:	2000      	movs	r0, #0
 80011e2:	f7ff ff8d 	bl	8001100 <lcdWriteParameter>
    lcdWriteParameter(0x00); // 15th Parameter
 80011e6:	2000      	movs	r0, #0
 80011e8:	f7ff ff8a 	bl	8001100 <lcdWriteParameter>

    lcdWriteCommand(NEGATIVE_GAMMA_CORRECT);
 80011ec:	20e1      	movs	r0, #225	; 0xe1
 80011ee:	f7ff ff77 	bl	80010e0 <lcdWriteCommand>
    lcdWriteParameter(0x20); // 1st Parameter
 80011f2:	2020      	movs	r0, #32
 80011f4:	f7ff ff84 	bl	8001100 <lcdWriteParameter>
    lcdWriteParameter(0x20); // 2nd Parameter
 80011f8:	2020      	movs	r0, #32
 80011fa:	f7ff ff81 	bl	8001100 <lcdWriteParameter>
    lcdWriteParameter(0x20); // 3rd Parameter
 80011fe:	2020      	movs	r0, #32
 8001200:	f7ff ff7e 	bl	8001100 <lcdWriteParameter>
    lcdWriteParameter(0x20); // 4th Parameter
 8001204:	2020      	movs	r0, #32
 8001206:	f7ff ff7b 	bl	8001100 <lcdWriteParameter>
    lcdWriteParameter(0x05); // 5th Parameter
 800120a:	2005      	movs	r0, #5
 800120c:	f7ff ff78 	bl	8001100 <lcdWriteParameter>
    lcdWriteParameter(0x00); // 6th Parameter
 8001210:	2000      	movs	r0, #0
 8001212:	f7ff ff75 	bl	8001100 <lcdWriteParameter>
    lcdWriteParameter(0x15); // 7th Parameter
 8001216:	2015      	movs	r0, #21
 8001218:	f7ff ff72 	bl	8001100 <lcdWriteParameter>
    lcdWriteParameter(0xa7); // 8th Parameter
 800121c:	20a7      	movs	r0, #167	; 0xa7
 800121e:	f7ff ff6f 	bl	8001100 <lcdWriteParameter>
    lcdWriteParameter(0x3d); // 9th Parameter
 8001222:	203d      	movs	r0, #61	; 0x3d
 8001224:	f7ff ff6c 	bl	8001100 <lcdWriteParameter>
    lcdWriteParameter(0x18); // 10th Parameter
 8001228:	2018      	movs	r0, #24
 800122a:	f7ff ff69 	bl	8001100 <lcdWriteParameter>
    lcdWriteParameter(0x25); // 11th Parameter
 800122e:	2025      	movs	r0, #37	; 0x25
 8001230:	f7ff ff66 	bl	8001100 <lcdWriteParameter>
    lcdWriteParameter(0x2a); // 12th Parameter
 8001234:	202a      	movs	r0, #42	; 0x2a
 8001236:	f7ff ff63 	bl	8001100 <lcdWriteParameter>
    lcdWriteParameter(0x2b); // 13th Parameter
 800123a:	202b      	movs	r0, #43	; 0x2b
 800123c:	f7ff ff60 	bl	8001100 <lcdWriteParameter>
    lcdWriteParameter(0x2b); // 14th Parameter
 8001240:	202b      	movs	r0, #43	; 0x2b
 8001242:	f7ff ff5d 	bl	8001100 <lcdWriteParameter>
    lcdWriteParameter(0x3a); // 15th Parameter
 8001246:	203a      	movs	r0, #58	; 0x3a
 8001248:	f7ff ff5a 	bl	8001100 <lcdWriteParameter>

    lcdWriteCommand(FRAME_RATE_CONTROL1);
 800124c:	20b1      	movs	r0, #177	; 0xb1
 800124e:	f7ff ff47 	bl	80010e0 <lcdWriteCommand>
    lcdWriteParameter(0x08); // DIVA = 8
 8001252:	2008      	movs	r0, #8
 8001254:	f7ff ff54 	bl	8001100 <lcdWriteParameter>
    lcdWriteParameter(0x08); // VPA = 8
 8001258:	2008      	movs	r0, #8
 800125a:	f7ff ff51 	bl	8001100 <lcdWriteParameter>

    lcdWriteCommand(DISPLAY_INVERSION);
 800125e:	20b4      	movs	r0, #180	; 0xb4
 8001260:	f7ff ff3e 	bl	80010e0 <lcdWriteCommand>
    lcdWriteParameter(0x07); // NLA = 1, NLB = 1, NLC = 1 (all on Frame Inversion)
 8001264:	2007      	movs	r0, #7
 8001266:	f7ff ff4b 	bl	8001100 <lcdWriteParameter>

    lcdWriteCommand(POWER_CONTROL1);
 800126a:	20c0      	movs	r0, #192	; 0xc0
 800126c:	f7ff ff38 	bl	80010e0 <lcdWriteCommand>
    lcdWriteParameter(0x0a); // VRH = 10:  GVDD = 4.30
 8001270:	200a      	movs	r0, #10
 8001272:	f7ff ff45 	bl	8001100 <lcdWriteParameter>
    lcdWriteParameter(0x02); // VC = 2: VCI1 = 2.65
 8001276:	2002      	movs	r0, #2
 8001278:	f7ff ff42 	bl	8001100 <lcdWriteParameter>

    lcdWriteCommand(POWER_CONTROL2);
 800127c:	20c1      	movs	r0, #193	; 0xc1
 800127e:	f7ff ff2f 	bl	80010e0 <lcdWriteCommand>
    lcdWriteParameter(0x02); // BT = 2: AVDD = 2xVCI1, VCL = -1xVCI1, VGH = 5xVCI1, VGL = -2xVCI1
 8001282:	2002      	movs	r0, #2
 8001284:	f7ff ff3c 	bl	8001100 <lcdWriteParameter>

    lcdWriteCommand(VCOM_CONTROL1);
 8001288:	20c5      	movs	r0, #197	; 0xc5
 800128a:	f7ff ff29 	bl	80010e0 <lcdWriteCommand>
    lcdWriteParameter(0x50); // VMH = 80: VCOMH voltage = 4.5
 800128e:	2050      	movs	r0, #80	; 0x50
 8001290:	f7ff ff36 	bl	8001100 <lcdWriteParameter>
    lcdWriteParameter(0x5b); // VML = 91: VCOML voltage = -0.225
 8001294:	205b      	movs	r0, #91	; 0x5b
 8001296:	f7ff ff33 	bl	8001100 <lcdWriteParameter>

    lcdWriteCommand(VCOM_OFFSET_CONTROL);
 800129a:	20c7      	movs	r0, #199	; 0xc7
 800129c:	f7ff ff20 	bl	80010e0 <lcdWriteCommand>
    lcdWriteParameter(0x40); // nVM = 0, VMF = 64: VCOMH output = VMH, VCOML output = VML
 80012a0:	2040      	movs	r0, #64	; 0x40
 80012a2:	f7ff ff2d 	bl	8001100 <lcdWriteParameter>

    lcdWriteCommand(SET_COLUMN_ADDRESS);
 80012a6:	202a      	movs	r0, #42	; 0x2a
 80012a8:	f7ff ff1a 	bl	80010e0 <lcdWriteCommand>
    lcdWriteParameter(0x20); // XSH
 80012ac:	2020      	movs	r0, #32
 80012ae:	f7ff ff27 	bl	8001100 <lcdWriteParameter>
    lcdWriteParameter(0x00); // XSL
 80012b2:	2000      	movs	r0, #0
 80012b4:	f7ff ff24 	bl	8001100 <lcdWriteParameter>
    lcdWriteParameter(0x20); // XEH
 80012b8:	2020      	movs	r0, #32
 80012ba:	f7ff ff21 	bl	8001100 <lcdWriteParameter>
    lcdWriteParameter(0x7f); // XEL (128 pixels x)
 80012be:	207f      	movs	r0, #127	; 0x7f
 80012c0:	f7ff ff1e 	bl	8001100 <lcdWriteParameter>

    lcdWriteCommand(SET_PAGE_ADDRESS);
 80012c4:	202b      	movs	r0, #43	; 0x2b
 80012c6:	f7ff ff0b 	bl	80010e0 <lcdWriteCommand>
    lcdWriteParameter(0x00);
 80012ca:	2000      	movs	r0, #0
 80012cc:	f7ff ff18 	bl	8001100 <lcdWriteParameter>
    lcdWriteParameter(0x20);
 80012d0:	2020      	movs	r0, #32
 80012d2:	f7ff ff15 	bl	8001100 <lcdWriteParameter>
    lcdWriteParameter(0x00);
 80012d6:	2000      	movs	r0, #0
 80012d8:	f7ff ff12 	bl	8001100 <lcdWriteParameter>
    lcdWriteParameter(0xA0); // 128 pixels y
 80012dc:	20a0      	movs	r0, #160	; 0xa0
 80012de:	f7ff ff0f 	bl	8001100 <lcdWriteParameter>

	// Select display orientation
    lcdWriteCommand(SET_ADDRESS_MODE);
 80012e2:	2036      	movs	r0, #54	; 0x36
 80012e4:	f7ff fefc 	bl	80010e0 <lcdWriteCommand>
	lcdWriteParameter(orientation);
 80012e8:	79fb      	ldrb	r3, [r7, #7]
 80012ea:	4618      	mov	r0, r3
 80012ec:	f7ff ff08 	bl	8001100 <lcdWriteParameter>

	// Set the display to on
    lcdWriteCommand(SET_DISPLAY_ON);
 80012f0:	2029      	movs	r0, #41	; 0x29
 80012f2:	f7ff fef5 	bl	80010e0 <lcdWriteCommand>
    lcdWriteCommand(WRITE_MEMORY_START);
 80012f6:	202c      	movs	r0, #44	; 0x2c
 80012f8:	f7ff fef2 	bl	80010e0 <lcdWriteCommand>
}
 80012fc:	bf00      	nop
 80012fe:	3708      	adds	r7, #8
 8001300:	46bd      	mov	sp, r7
 8001302:	bd80      	pop	{r7, pc}

08001304 <lcdClearDisplay>:

// LCD graphics functions -----------------------------------------------------------------------------------

void lcdClearDisplay(uint16_t colour)
{
 8001304:	b580      	push	{r7, lr}
 8001306:	b084      	sub	sp, #16
 8001308:	af00      	add	r7, sp, #0
 800130a:	4603      	mov	r3, r0
 800130c:	80fb      	strh	r3, [r7, #6]
	uint16_t pixel;

	// Set the column address to 0-127
	lcdWriteCommand(SET_COLUMN_ADDRESS);
 800130e:	202a      	movs	r0, #42	; 0x2a
 8001310:	f7ff fee6 	bl	80010e0 <lcdWriteCommand>
	    lcdWriteParameter(0x20); // XSH
 8001314:	2020      	movs	r0, #32
 8001316:	f7ff fef3 	bl	8001100 <lcdWriteParameter>
	    lcdWriteParameter(0x00); // XSL
 800131a:	2000      	movs	r0, #0
 800131c:	f7ff fef0 	bl	8001100 <lcdWriteParameter>
	    lcdWriteParameter(0x20); // XEH
 8001320:	2020      	movs	r0, #32
 8001322:	f7ff feed 	bl	8001100 <lcdWriteParameter>
	    lcdWriteParameter(0x7f); // XEL (128 pixels x)
 8001326:	207f      	movs	r0, #127	; 0x7f
 8001328:	f7ff feea 	bl	8001100 <lcdWriteParameter>

	    lcdWriteCommand(SET_PAGE_ADDRESS);
 800132c:	202b      	movs	r0, #43	; 0x2b
 800132e:	f7ff fed7 	bl	80010e0 <lcdWriteCommand>
	    lcdWriteParameter(0x00);
 8001332:	2000      	movs	r0, #0
 8001334:	f7ff fee4 	bl	8001100 <lcdWriteParameter>
	    lcdWriteParameter(0x20);
 8001338:	2020      	movs	r0, #32
 800133a:	f7ff fee1 	bl	8001100 <lcdWriteParameter>
	    lcdWriteParameter(0x00);
 800133e:	2000      	movs	r0, #0
 8001340:	f7ff fede 	bl	8001100 <lcdWriteParameter>
	    lcdWriteParameter(0xA0); // 128 pixels y
 8001344:	20a0      	movs	r0, #160	; 0xa0
 8001346:	f7ff fedb 	bl	8001100 <lcdWriteParameter>

	// Plot the pixels
	lcdWriteCommand(WRITE_MEMORY_START);
 800134a:	202c      	movs	r0, #44	; 0x2c
 800134c:	f7ff fec8 	bl	80010e0 <lcdWriteCommand>
	for(pixel = 0; pixel < 16385; pixel++) lcdWriteData(colour >> 8, colour);
 8001350:	2300      	movs	r3, #0
 8001352:	81fb      	strh	r3, [r7, #14]
 8001354:	e00c      	b.n	8001370 <lcdClearDisplay+0x6c>
 8001356:	88fb      	ldrh	r3, [r7, #6]
 8001358:	0a1b      	lsrs	r3, r3, #8
 800135a:	b29b      	uxth	r3, r3
 800135c:	b2db      	uxtb	r3, r3
 800135e:	88fa      	ldrh	r2, [r7, #6]
 8001360:	b2d2      	uxtb	r2, r2
 8001362:	4611      	mov	r1, r2
 8001364:	4618      	mov	r0, r3
 8001366:	f7ff fedb 	bl	8001120 <lcdWriteData>
 800136a:	89fb      	ldrh	r3, [r7, #14]
 800136c:	3301      	adds	r3, #1
 800136e:	81fb      	strh	r3, [r7, #14]
 8001370:	89fb      	ldrh	r3, [r7, #14]
 8001372:	f5b3 4f80 	cmp.w	r3, #16384	; 0x4000
 8001376:	d9ee      	bls.n	8001356 <lcdClearDisplay+0x52>
}
 8001378:	bf00      	nop
 800137a:	3710      	adds	r7, #16
 800137c:	46bd      	mov	sp, r7
 800137e:	bd80      	pop	{r7, pc}

08001380 <lcdPutCh>:

// LCD text manipulation functions --------------------------------------------------------------------------
#define pgm_read_byte_near(address_short) (uint16_t)(address_short)
// Plot a character at the specified x, y co-ordinates (top left hand corner of character)
void lcdPutCh(unsigned char character, uint8_t x, uint8_t y, uint16_t fgColour, uint16_t bgColour)
{
 8001380:	b590      	push	{r4, r7, lr}
 8001382:	b085      	sub	sp, #20
 8001384:	af00      	add	r7, sp, #0
 8001386:	4604      	mov	r4, r0
 8001388:	4608      	mov	r0, r1
 800138a:	4611      	mov	r1, r2
 800138c:	461a      	mov	r2, r3
 800138e:	4623      	mov	r3, r4
 8001390:	71fb      	strb	r3, [r7, #7]
 8001392:	4603      	mov	r3, r0
 8001394:	71bb      	strb	r3, [r7, #6]
 8001396:	460b      	mov	r3, r1
 8001398:	717b      	strb	r3, [r7, #5]
 800139a:	4613      	mov	r3, r2
 800139c:	807b      	strh	r3, [r7, #2]

	// To speed up plotting we define a x window of 6 pixels and then
	// write out one row at a time.  This means the LCD will correctly
	// update the memory pointer saving us a good few bytes

	lcdWriteCommand(SET_COLUMN_ADDRESS); // Horizontal Address Start Position
 800139e:	202a      	movs	r0, #42	; 0x2a
 80013a0:	f7ff fe9e 	bl	80010e0 <lcdWriteCommand>
	lcdWriteParameter(0x20);
 80013a4:	2020      	movs	r0, #32
 80013a6:	f7ff feab 	bl	8001100 <lcdWriteParameter>
	lcdWriteParameter(x);
 80013aa:	79bb      	ldrb	r3, [r7, #6]
 80013ac:	4618      	mov	r0, r3
 80013ae:	f7ff fea7 	bl	8001100 <lcdWriteParameter>
	lcdWriteParameter(0x20);
 80013b2:	2020      	movs	r0, #32
 80013b4:	f7ff fea4 	bl	8001100 <lcdWriteParameter>
	lcdWriteParameter(x+5);
 80013b8:	79bb      	ldrb	r3, [r7, #6]
 80013ba:	3305      	adds	r3, #5
 80013bc:	b2db      	uxtb	r3, r3
 80013be:	4618      	mov	r0, r3
 80013c0:	f7ff fe9e 	bl	8001100 <lcdWriteParameter>

	lcdWriteCommand(SET_PAGE_ADDRESS); // Vertical Address end Position
 80013c4:	202b      	movs	r0, #43	; 0x2b
 80013c6:	f7ff fe8b 	bl	80010e0 <lcdWriteCommand>
	lcdWriteParameter(0x00);
 80013ca:	2000      	movs	r0, #0
 80013cc:	f7ff fe98 	bl	8001100 <lcdWriteParameter>
	lcdWriteParameter(y+32);
 80013d0:	797b      	ldrb	r3, [r7, #5]
 80013d2:	3320      	adds	r3, #32
 80013d4:	b2db      	uxtb	r3, r3
 80013d6:	4618      	mov	r0, r3
 80013d8:	f7ff fe92 	bl	8001100 <lcdWriteParameter>
	lcdWriteParameter(0x00);
 80013dc:	2000      	movs	r0, #0
 80013de:	f7ff fe8f 	bl	8001100 <lcdWriteParameter>
	lcdWriteParameter(0xA0);
 80013e2:	20a0      	movs	r0, #160	; 0xa0
 80013e4:	f7ff fe8c 	bl	8001100 <lcdWriteParameter>

	lcdWriteCommand(WRITE_MEMORY_START);
 80013e8:	202c      	movs	r0, #44	; 0x2c
 80013ea:	f7ff fe79 	bl	80010e0 <lcdWriteCommand>

	// Plot the font data
	for (row = 0; row < 8; row++)
 80013ee:	2300      	movs	r3, #0
 80013f0:	73fb      	strb	r3, [r7, #15]
 80013f2:	e032      	b.n	800145a <lcdPutCh+0xda>
	{
		for (column = 0; column < 6; column++)
 80013f4:	2300      	movs	r3, #0
 80013f6:	73bb      	strb	r3, [r7, #14]
 80013f8:	e029      	b.n	800144e <lcdPutCh+0xce>
		{
			if ((font5x8[character][column]) & (1 << row))
 80013fa:	79fa      	ldrb	r2, [r7, #7]
 80013fc:	7bb9      	ldrb	r1, [r7, #14]
 80013fe:	481a      	ldr	r0, [pc, #104]	; (8001468 <lcdPutCh+0xe8>)
 8001400:	4613      	mov	r3, r2
 8001402:	005b      	lsls	r3, r3, #1
 8001404:	4413      	add	r3, r2
 8001406:	005b      	lsls	r3, r3, #1
 8001408:	4403      	add	r3, r0
 800140a:	440b      	add	r3, r1
 800140c:	781b      	ldrb	r3, [r3, #0]
 800140e:	461a      	mov	r2, r3
 8001410:	7bfb      	ldrb	r3, [r7, #15]
 8001412:	fa42 f303 	asr.w	r3, r2, r3
 8001416:	f003 0301 	and.w	r3, r3, #1
 800141a:	2b00      	cmp	r3, #0
 800141c:	d00a      	beq.n	8001434 <lcdPutCh+0xb4>
				lcdWriteData(fgColour>>8, fgColour);
 800141e:	887b      	ldrh	r3, [r7, #2]
 8001420:	0a1b      	lsrs	r3, r3, #8
 8001422:	b29b      	uxth	r3, r3
 8001424:	b2db      	uxtb	r3, r3
 8001426:	887a      	ldrh	r2, [r7, #2]
 8001428:	b2d2      	uxtb	r2, r2
 800142a:	4611      	mov	r1, r2
 800142c:	4618      	mov	r0, r3
 800142e:	f7ff fe77 	bl	8001120 <lcdWriteData>
 8001432:	e009      	b.n	8001448 <lcdPutCh+0xc8>
			else lcdWriteData(bgColour >> 8, bgColour);
 8001434:	8c3b      	ldrh	r3, [r7, #32]
 8001436:	0a1b      	lsrs	r3, r3, #8
 8001438:	b29b      	uxth	r3, r3
 800143a:	b2db      	uxtb	r3, r3
 800143c:	8c3a      	ldrh	r2, [r7, #32]
 800143e:	b2d2      	uxtb	r2, r2
 8001440:	4611      	mov	r1, r2
 8001442:	4618      	mov	r0, r3
 8001444:	f7ff fe6c 	bl	8001120 <lcdWriteData>
	lcdWriteCommand(WRITE_MEMORY_START);

	// Plot the font data
	for (row = 0; row < 8; row++)
	{
		for (column = 0; column < 6; column++)
 8001448:	7bbb      	ldrb	r3, [r7, #14]
 800144a:	3301      	adds	r3, #1
 800144c:	73bb      	strb	r3, [r7, #14]
 800144e:	7bbb      	ldrb	r3, [r7, #14]
 8001450:	2b05      	cmp	r3, #5
 8001452:	d9d2      	bls.n	80013fa <lcdPutCh+0x7a>
	lcdWriteParameter(0xA0);

	lcdWriteCommand(WRITE_MEMORY_START);

	// Plot the font data
	for (row = 0; row < 8; row++)
 8001454:	7bfb      	ldrb	r3, [r7, #15]
 8001456:	3301      	adds	r3, #1
 8001458:	73fb      	strb	r3, [r7, #15]
 800145a:	7bfb      	ldrb	r3, [r7, #15]
 800145c:	2b07      	cmp	r3, #7
 800145e:	d9c9      	bls.n	80013f4 <lcdPutCh+0x74>
			if ((font5x8[character][column]) & (1 << row))
				lcdWriteData(fgColour>>8, fgColour);
			else lcdWriteData(bgColour >> 8, bgColour);
		}
	}
}
 8001460:	bf00      	nop
 8001462:	3714      	adds	r7, #20
 8001464:	46bd      	mov	sp, r7
 8001466:	bd90      	pop	{r4, r7, pc}
 8001468:	08007fec 	.word	0x08007fec

0800146c <decodeRgbValue>:

// Translates a 3 byte RGB value into a 2 byte value for the LCD (values should be 0-31)
uint16_t decodeRgbValue(uint8_t r, uint8_t g, uint8_t b)
{
 800146c:	b480      	push	{r7}
 800146e:	b083      	sub	sp, #12
 8001470:	af00      	add	r7, sp, #0
 8001472:	4603      	mov	r3, r0
 8001474:	71fb      	strb	r3, [r7, #7]
 8001476:	460b      	mov	r3, r1
 8001478:	71bb      	strb	r3, [r7, #6]
 800147a:	4613      	mov	r3, r2
 800147c:	717b      	strb	r3, [r7, #5]
	return (b << 11) | (g << 6) | (r);
 800147e:	797b      	ldrb	r3, [r7, #5]
 8001480:	02db      	lsls	r3, r3, #11
 8001482:	b21a      	sxth	r2, r3
 8001484:	79bb      	ldrb	r3, [r7, #6]
 8001486:	019b      	lsls	r3, r3, #6
 8001488:	b21b      	sxth	r3, r3
 800148a:	4313      	orrs	r3, r2
 800148c:	b21a      	sxth	r2, r3
 800148e:	79fb      	ldrb	r3, [r7, #7]
 8001490:	b21b      	sxth	r3, r3
 8001492:	4313      	orrs	r3, r2
 8001494:	b21b      	sxth	r3, r3
 8001496:	b29b      	uxth	r3, r3
}
 8001498:	4618      	mov	r0, r3
 800149a:	370c      	adds	r7, #12
 800149c:	46bd      	mov	sp, r7
 800149e:	bc80      	pop	{r7}
 80014a0:	4770      	bx	lr
 80014a2:	bf00      	nop

080014a4 <lcdTextX>:

// This routine takes a row number from 0 to 20 and
// returns the x coordinate on the screen (0-127) to make
// it easy to place text
uint8_t lcdTextX(uint8_t x) { return x*6; }
 80014a4:	b480      	push	{r7}
 80014a6:	b083      	sub	sp, #12
 80014a8:	af00      	add	r7, sp, #0
 80014aa:	4603      	mov	r3, r0
 80014ac:	71fb      	strb	r3, [r7, #7]
 80014ae:	79fb      	ldrb	r3, [r7, #7]
 80014b0:	461a      	mov	r2, r3
 80014b2:	0052      	lsls	r2, r2, #1
 80014b4:	4413      	add	r3, r2
 80014b6:	005b      	lsls	r3, r3, #1
 80014b8:	b2db      	uxtb	r3, r3
 80014ba:	4618      	mov	r0, r3
 80014bc:	370c      	adds	r7, #12
 80014be:	46bd      	mov	sp, r7
 80014c0:	bc80      	pop	{r7}
 80014c2:	4770      	bx	lr

080014c4 <lcdTextY>:

// This routine takes a column number from 0 to 20 and
// returns the y coordinate on the screen (0-127) to make
// it easy to place text
uint8_t lcdTextY(uint8_t y) { return y*8; }
 80014c4:	b480      	push	{r7}
 80014c6:	b083      	sub	sp, #12
 80014c8:	af00      	add	r7, sp, #0
 80014ca:	4603      	mov	r3, r0
 80014cc:	71fb      	strb	r3, [r7, #7]
 80014ce:	79fb      	ldrb	r3, [r7, #7]
 80014d0:	00db      	lsls	r3, r3, #3
 80014d2:	b2db      	uxtb	r3, r3
 80014d4:	4618      	mov	r0, r3
 80014d6:	370c      	adds	r7, #12
 80014d8:	46bd      	mov	sp, r7
 80014da:	bc80      	pop	{r7}
 80014dc:	4770      	bx	lr
 80014de:	bf00      	nop

080014e0 <lcdPutS>:

// Plot a string of characters to the LCD
void lcdPutS(const char *string, uint8_t x, uint8_t y, uint16_t fgColour, uint16_t bgColour)
{
 80014e0:	b590      	push	{r4, r7, lr}
 80014e2:	b087      	sub	sp, #28
 80014e4:	af02      	add	r7, sp, #8
 80014e6:	6078      	str	r0, [r7, #4]
 80014e8:	4608      	mov	r0, r1
 80014ea:	4611      	mov	r1, r2
 80014ec:	461a      	mov	r2, r3
 80014ee:	4603      	mov	r3, r0
 80014f0:	70fb      	strb	r3, [r7, #3]
 80014f2:	460b      	mov	r3, r1
 80014f4:	70bb      	strb	r3, [r7, #2]
 80014f6:	4613      	mov	r3, r2
 80014f8:	803b      	strh	r3, [r7, #0]
	uint8_t origin = x;
 80014fa:	78fb      	ldrb	r3, [r7, #3]
 80014fc:	73bb      	strb	r3, [r7, #14]
	uint8_t characterNumber;

	for (characterNumber = 0; characterNumber < strlen(string); characterNumber++)
 80014fe:	2300      	movs	r3, #0
 8001500:	73fb      	strb	r3, [r7, #15]
 8001502:	e01c      	b.n	800153e <lcdPutS+0x5e>
	{
		// Check if we are out of bounds and move to
		// the next line if we are
		if (x > 121)
 8001504:	78fb      	ldrb	r3, [r7, #3]
 8001506:	2b79      	cmp	r3, #121	; 0x79
 8001508:	d904      	bls.n	8001514 <lcdPutS+0x34>
		{
			x = origin;
 800150a:	7bbb      	ldrb	r3, [r7, #14]
 800150c:	70fb      	strb	r3, [r7, #3]
			y += 8;
 800150e:	78bb      	ldrb	r3, [r7, #2]
 8001510:	3308      	adds	r3, #8
 8001512:	70bb      	strb	r3, [r7, #2]
		}

		// If we move past the bottom of the screen just exit
		if (y > 120) break;
 8001514:	78bb      	ldrb	r3, [r7, #2]
 8001516:	2b78      	cmp	r3, #120	; 0x78
 8001518:	d819      	bhi.n	800154e <lcdPutS+0x6e>

		// Plot the current character
		lcdPutCh(string[characterNumber], x, y, fgColour, bgColour);
 800151a:	7bfb      	ldrb	r3, [r7, #15]
 800151c:	687a      	ldr	r2, [r7, #4]
 800151e:	4413      	add	r3, r2
 8001520:	7818      	ldrb	r0, [r3, #0]
 8001522:	883c      	ldrh	r4, [r7, #0]
 8001524:	78ba      	ldrb	r2, [r7, #2]
 8001526:	78f9      	ldrb	r1, [r7, #3]
 8001528:	8c3b      	ldrh	r3, [r7, #32]
 800152a:	9300      	str	r3, [sp, #0]
 800152c:	4623      	mov	r3, r4
 800152e:	f7ff ff27 	bl	8001380 <lcdPutCh>
		x += 6;
 8001532:	78fb      	ldrb	r3, [r7, #3]
 8001534:	3306      	adds	r3, #6
 8001536:	70fb      	strb	r3, [r7, #3]
void lcdPutS(const char *string, uint8_t x, uint8_t y, uint16_t fgColour, uint16_t bgColour)
{
	uint8_t origin = x;
	uint8_t characterNumber;

	for (characterNumber = 0; characterNumber < strlen(string); characterNumber++)
 8001538:	7bfb      	ldrb	r3, [r7, #15]
 800153a:	3301      	adds	r3, #1
 800153c:	73fb      	strb	r3, [r7, #15]
 800153e:	7bfc      	ldrb	r4, [r7, #15]
 8001540:	6878      	ldr	r0, [r7, #4]
 8001542:	f7fe fe1b 	bl	800017c <strlen>
 8001546:	4603      	mov	r3, r0
 8001548:	429c      	cmp	r4, r3
 800154a:	d3db      	bcc.n	8001504 <lcdPutS+0x24>

		// Plot the current character
		lcdPutCh(string[characterNumber], x, y, fgColour, bgColour);
		x += 6;
	}
}
 800154c:	e000      	b.n	8001550 <lcdPutS+0x70>
			x = origin;
			y += 8;
		}

		// If we move past the bottom of the screen just exit
		if (y > 120) break;
 800154e:	bf00      	nop

		// Plot the current character
		lcdPutCh(string[characterNumber], x, y, fgColour, bgColour);
		x += 6;
	}
}
 8001550:	bf00      	nop
 8001552:	3714      	adds	r7, #20
 8001554:	46bd      	mov	sp, r7
 8001556:	bd90      	pop	{r4, r7, pc}

08001558 <matrixPlot>:

void matrixPlot(uint16_t matrix[128][128], int cisloTvaru){
 8001558:	b580      	push	{r7, lr}
 800155a:	f5ad 5d78 	sub.w	sp, sp, #15872	; 0x3e00
 800155e:	b088      	sub	sp, #32
 8001560:	af00      	add	r7, sp, #0
 8001562:	f107 0320 	add.w	r3, r7, #32
 8001566:	3b1c      	subs	r3, #28
 8001568:	6018      	str	r0, [r3, #0]
 800156a:	f107 0320 	add.w	r3, r7, #32
 800156e:	3b20      	subs	r3, #32
 8001570:	6019      	str	r1, [r3, #0]

	uint16_t pixels[62*128];
	uint16_t colour;

	int countPix=0;
 8001572:	2300      	movs	r3, #0
 8001574:	f507 5278 	add.w	r2, r7, #15872	; 0x3e00
 8001578:	f102 0218 	add.w	r2, r2, #24
 800157c:	6013      	str	r3, [r2, #0]
	for(int i=0;i<128;i++){
 800157e:	2300      	movs	r3, #0
 8001580:	f507 5278 	add.w	r2, r7, #15872	; 0x3e00
 8001584:	f102 0214 	add.w	r2, r2, #20
 8001588:	6013      	str	r3, [r2, #0]
 800158a:	e04a      	b.n	8001622 <matrixPlot+0xca>
		for(int j=56;j<118;j++){
 800158c:	2338      	movs	r3, #56	; 0x38
 800158e:	f507 5278 	add.w	r2, r7, #15872	; 0x3e00
 8001592:	f102 0210 	add.w	r2, r2, #16
 8001596:	6013      	str	r3, [r2, #0]
 8001598:	e031      	b.n	80015fe <matrixPlot+0xa6>
			pixels[countPix]=matrix[j][i];
 800159a:	f507 5378 	add.w	r3, r7, #15872	; 0x3e00
 800159e:	f103 0310 	add.w	r3, r3, #16
 80015a2:	681b      	ldr	r3, [r3, #0]
 80015a4:	021a      	lsls	r2, r3, #8
 80015a6:	f107 0320 	add.w	r3, r7, #32
 80015aa:	3b1c      	subs	r3, #28
 80015ac:	681b      	ldr	r3, [r3, #0]
 80015ae:	4413      	add	r3, r2
 80015b0:	f507 5278 	add.w	r2, r7, #15872	; 0x3e00
 80015b4:	f102 0214 	add.w	r2, r2, #20
 80015b8:	6812      	ldr	r2, [r2, #0]
 80015ba:	f833 1012 	ldrh.w	r1, [r3, r2, lsl #1]
 80015be:	f107 0320 	add.w	r3, r7, #32
 80015c2:	3b14      	subs	r3, #20
 80015c4:	f507 5278 	add.w	r2, r7, #15872	; 0x3e00
 80015c8:	f102 0218 	add.w	r2, r2, #24
 80015cc:	6812      	ldr	r2, [r2, #0]
 80015ce:	f823 1012 	strh.w	r1, [r3, r2, lsl #1]
			countPix++;
 80015d2:	f507 5378 	add.w	r3, r7, #15872	; 0x3e00
 80015d6:	f103 0318 	add.w	r3, r3, #24
 80015da:	681b      	ldr	r3, [r3, #0]
 80015dc:	3301      	adds	r3, #1
 80015de:	f507 5278 	add.w	r2, r7, #15872	; 0x3e00
 80015e2:	f102 0218 	add.w	r2, r2, #24
 80015e6:	6013      	str	r3, [r2, #0]
	uint16_t pixels[62*128];
	uint16_t colour;

	int countPix=0;
	for(int i=0;i<128;i++){
		for(int j=56;j<118;j++){
 80015e8:	f507 5378 	add.w	r3, r7, #15872	; 0x3e00
 80015ec:	f103 0310 	add.w	r3, r3, #16
 80015f0:	681b      	ldr	r3, [r3, #0]
 80015f2:	3301      	adds	r3, #1
 80015f4:	f507 5278 	add.w	r2, r7, #15872	; 0x3e00
 80015f8:	f102 0210 	add.w	r2, r2, #16
 80015fc:	6013      	str	r3, [r2, #0]
 80015fe:	f507 5378 	add.w	r3, r7, #15872	; 0x3e00
 8001602:	f103 0310 	add.w	r3, r3, #16
 8001606:	681b      	ldr	r3, [r3, #0]
 8001608:	2b75      	cmp	r3, #117	; 0x75
 800160a:	ddc6      	ble.n	800159a <matrixPlot+0x42>

	uint16_t pixels[62*128];
	uint16_t colour;

	int countPix=0;
	for(int i=0;i<128;i++){
 800160c:	f507 5378 	add.w	r3, r7, #15872	; 0x3e00
 8001610:	f103 0314 	add.w	r3, r3, #20
 8001614:	681b      	ldr	r3, [r3, #0]
 8001616:	3301      	adds	r3, #1
 8001618:	f507 5278 	add.w	r2, r7, #15872	; 0x3e00
 800161c:	f102 0214 	add.w	r2, r2, #20
 8001620:	6013      	str	r3, [r2, #0]
 8001622:	f507 5378 	add.w	r3, r7, #15872	; 0x3e00
 8001626:	f103 0314 	add.w	r3, r3, #20
 800162a:	681b      	ldr	r3, [r3, #0]
 800162c:	2b7f      	cmp	r3, #127	; 0x7f
 800162e:	ddad      	ble.n	800158c <matrixPlot+0x34>
			pixels[countPix]=matrix[j][i];
			countPix++;
		}
	}

	lcdWriteCommand(SET_COLUMN_ADDRESS); // Horizontal Address Start Position
 8001630:	202a      	movs	r0, #42	; 0x2a
 8001632:	f7ff fd55 	bl	80010e0 <lcdWriteCommand>
	lcdWriteParameter(0x20);
 8001636:	2020      	movs	r0, #32
 8001638:	f7ff fd62 	bl	8001100 <lcdWriteParameter>
	lcdWriteParameter(56);
 800163c:	2038      	movs	r0, #56	; 0x38
 800163e:	f7ff fd5f 	bl	8001100 <lcdWriteParameter>
	lcdWriteParameter(0x20);
 8001642:	2020      	movs	r0, #32
 8001644:	f7ff fd5c 	bl	8001100 <lcdWriteParameter>
	lcdWriteParameter(117);
 8001648:	2075      	movs	r0, #117	; 0x75
 800164a:	f7ff fd59 	bl	8001100 <lcdWriteParameter>

	lcdWriteCommand(SET_PAGE_ADDRESS); // Vertical Address end Position
 800164e:	202b      	movs	r0, #43	; 0x2b
 8001650:	f7ff fd46 	bl	80010e0 <lcdWriteCommand>
	lcdWriteParameter(56);
 8001654:	2038      	movs	r0, #56	; 0x38
 8001656:	f7ff fd53 	bl	8001100 <lcdWriteParameter>
	lcdWriteParameter(0x20);
 800165a:	2020      	movs	r0, #32
 800165c:	f7ff fd50 	bl	8001100 <lcdWriteParameter>
	lcdWriteParameter(56);
 8001660:	2038      	movs	r0, #56	; 0x38
 8001662:	f7ff fd4d 	bl	8001100 <lcdWriteParameter>
	lcdWriteParameter(160);
 8001666:	20a0      	movs	r0, #160	; 0xa0
 8001668:	f7ff fd4a 	bl	8001100 <lcdWriteParameter>

	lcdWriteCommand(WRITE_MEMORY_START);
 800166c:	202c      	movs	r0, #44	; 0x2c
 800166e:	f7ff fd37 	bl	80010e0 <lcdWriteCommand>

	for (int x = 0; x < (62*128); x++){
 8001672:	2300      	movs	r3, #0
 8001674:	f507 5278 	add.w	r2, r7, #15872	; 0x3e00
 8001678:	f102 020c 	add.w	r2, r2, #12
 800167c:	6013      	str	r3, [r2, #0]
 800167e:	e1c1      	b.n	8001a04 <matrixPlot+0x4ac>
		if (pixels[x]==0){
 8001680:	f107 0320 	add.w	r3, r7, #32
 8001684:	3b14      	subs	r3, #20
 8001686:	f507 5278 	add.w	r2, r7, #15872	; 0x3e00
 800168a:	f102 020c 	add.w	r2, r2, #12
 800168e:	6812      	ldr	r2, [r2, #0]
 8001690:	f833 3012 	ldrh.w	r3, [r3, r2, lsl #1]
 8001694:	2b00      	cmp	r3, #0
 8001696:	d10b      	bne.n	80016b0 <matrixPlot+0x158>
			colour = decodeRgbValue(0, 0, 0);
 8001698:	2200      	movs	r2, #0
 800169a:	2100      	movs	r1, #0
 800169c:	2000      	movs	r0, #0
 800169e:	f7ff fee5 	bl	800146c <decodeRgbValue>
 80016a2:	4603      	mov	r3, r0
 80016a4:	f507 5278 	add.w	r2, r7, #15872	; 0x3e00
 80016a8:	f102 021e 	add.w	r2, r2, #30
 80016ac:	8013      	strh	r3, [r2, #0]
 80016ae:	e18c      	b.n	80019ca <matrixPlot+0x472>
		}
		else if (pixels[x]==1){
 80016b0:	f107 0320 	add.w	r3, r7, #32
 80016b4:	3b14      	subs	r3, #20
 80016b6:	f507 5278 	add.w	r2, r7, #15872	; 0x3e00
 80016ba:	f102 020c 	add.w	r2, r2, #12
 80016be:	6812      	ldr	r2, [r2, #0]
 80016c0:	f833 3012 	ldrh.w	r3, [r3, r2, lsl #1]
 80016c4:	2b01      	cmp	r3, #1
 80016c6:	f040 80c1 	bne.w	800184c <matrixPlot+0x2f4>
			if (cisloTvaru == 0)
 80016ca:	f107 0320 	add.w	r3, r7, #32
 80016ce:	3b20      	subs	r3, #32
 80016d0:	681b      	ldr	r3, [r3, #0]
 80016d2:	2b00      	cmp	r3, #0
 80016d4:	d10a      	bne.n	80016ec <matrixPlot+0x194>
				colour = decodeRgbValue(31, 31, 0);
 80016d6:	2200      	movs	r2, #0
 80016d8:	211f      	movs	r1, #31
 80016da:	201f      	movs	r0, #31
 80016dc:	f7ff fec6 	bl	800146c <decodeRgbValue>
 80016e0:	4603      	mov	r3, r0
 80016e2:	f507 5278 	add.w	r2, r7, #15872	; 0x3e00
 80016e6:	f102 021e 	add.w	r2, r2, #30
 80016ea:	8013      	strh	r3, [r2, #0]
			if (cisloTvaru == 1 || cisloTvaru == 2)
 80016ec:	f107 0320 	add.w	r3, r7, #32
 80016f0:	3b20      	subs	r3, #32
 80016f2:	681b      	ldr	r3, [r3, #0]
 80016f4:	2b01      	cmp	r3, #1
 80016f6:	d005      	beq.n	8001704 <matrixPlot+0x1ac>
 80016f8:	f107 0320 	add.w	r3, r7, #32
 80016fc:	3b20      	subs	r3, #32
 80016fe:	681b      	ldr	r3, [r3, #0]
 8001700:	2b02      	cmp	r3, #2
 8001702:	d10a      	bne.n	800171a <matrixPlot+0x1c2>
				colour = decodeRgbValue(0, 31, 31);
 8001704:	221f      	movs	r2, #31
 8001706:	211f      	movs	r1, #31
 8001708:	2000      	movs	r0, #0
 800170a:	f7ff feaf 	bl	800146c <decodeRgbValue>
 800170e:	4603      	mov	r3, r0
 8001710:	f507 5278 	add.w	r2, r7, #15872	; 0x3e00
 8001714:	f102 021e 	add.w	r2, r2, #30
 8001718:	8013      	strh	r3, [r2, #0]
			if (cisloTvaru == 3 || cisloTvaru == 4)
 800171a:	f107 0320 	add.w	r3, r7, #32
 800171e:	3b20      	subs	r3, #32
 8001720:	681b      	ldr	r3, [r3, #0]
 8001722:	2b03      	cmp	r3, #3
 8001724:	d005      	beq.n	8001732 <matrixPlot+0x1da>
 8001726:	f107 0320 	add.w	r3, r7, #32
 800172a:	3b20      	subs	r3, #32
 800172c:	681b      	ldr	r3, [r3, #0]
 800172e:	2b04      	cmp	r3, #4
 8001730:	d10a      	bne.n	8001748 <matrixPlot+0x1f0>
				colour = decodeRgbValue(31, 0, 0);
 8001732:	2200      	movs	r2, #0
 8001734:	2100      	movs	r1, #0
 8001736:	201f      	movs	r0, #31
 8001738:	f7ff fe98 	bl	800146c <decodeRgbValue>
 800173c:	4603      	mov	r3, r0
 800173e:	f507 5278 	add.w	r2, r7, #15872	; 0x3e00
 8001742:	f102 021e 	add.w	r2, r2, #30
 8001746:	8013      	strh	r3, [r2, #0]
			if (cisloTvaru == 5 || cisloTvaru == 6)
 8001748:	f107 0320 	add.w	r3, r7, #32
 800174c:	3b20      	subs	r3, #32
 800174e:	681b      	ldr	r3, [r3, #0]
 8001750:	2b05      	cmp	r3, #5
 8001752:	d005      	beq.n	8001760 <matrixPlot+0x208>
 8001754:	f107 0320 	add.w	r3, r7, #32
 8001758:	3b20      	subs	r3, #32
 800175a:	681b      	ldr	r3, [r3, #0]
 800175c:	2b06      	cmp	r3, #6
 800175e:	d10a      	bne.n	8001776 <matrixPlot+0x21e>
				colour = decodeRgbValue(0, 31, 0);
 8001760:	2200      	movs	r2, #0
 8001762:	211f      	movs	r1, #31
 8001764:	2000      	movs	r0, #0
 8001766:	f7ff fe81 	bl	800146c <decodeRgbValue>
 800176a:	4603      	mov	r3, r0
 800176c:	f507 5278 	add.w	r2, r7, #15872	; 0x3e00
 8001770:	f102 021e 	add.w	r2, r2, #30
 8001774:	8013      	strh	r3, [r2, #0]
			if (cisloTvaru == 7 || cisloTvaru == 8 || cisloTvaru == 9 || cisloTvaru == 10)
 8001776:	f107 0320 	add.w	r3, r7, #32
 800177a:	3b20      	subs	r3, #32
 800177c:	681b      	ldr	r3, [r3, #0]
 800177e:	2b07      	cmp	r3, #7
 8001780:	d011      	beq.n	80017a6 <matrixPlot+0x24e>
 8001782:	f107 0320 	add.w	r3, r7, #32
 8001786:	3b20      	subs	r3, #32
 8001788:	681b      	ldr	r3, [r3, #0]
 800178a:	2b08      	cmp	r3, #8
 800178c:	d00b      	beq.n	80017a6 <matrixPlot+0x24e>
 800178e:	f107 0320 	add.w	r3, r7, #32
 8001792:	3b20      	subs	r3, #32
 8001794:	681b      	ldr	r3, [r3, #0]
 8001796:	2b09      	cmp	r3, #9
 8001798:	d005      	beq.n	80017a6 <matrixPlot+0x24e>
 800179a:	f107 0320 	add.w	r3, r7, #32
 800179e:	3b20      	subs	r3, #32
 80017a0:	681b      	ldr	r3, [r3, #0]
 80017a2:	2b0a      	cmp	r3, #10
 80017a4:	d10a      	bne.n	80017bc <matrixPlot+0x264>
				colour = decodeRgbValue(0, 0, 31);
 80017a6:	221f      	movs	r2, #31
 80017a8:	2100      	movs	r1, #0
 80017aa:	2000      	movs	r0, #0
 80017ac:	f7ff fe5e 	bl	800146c <decodeRgbValue>
 80017b0:	4603      	mov	r3, r0
 80017b2:	f507 5278 	add.w	r2, r7, #15872	; 0x3e00
 80017b6:	f102 021e 	add.w	r2, r2, #30
 80017ba:	8013      	strh	r3, [r2, #0]
			if (cisloTvaru == 11 || cisloTvaru == 12 || cisloTvaru == 13 || cisloTvaru == 14)
 80017bc:	f107 0320 	add.w	r3, r7, #32
 80017c0:	3b20      	subs	r3, #32
 80017c2:	681b      	ldr	r3, [r3, #0]
 80017c4:	2b0b      	cmp	r3, #11
 80017c6:	d011      	beq.n	80017ec <matrixPlot+0x294>
 80017c8:	f107 0320 	add.w	r3, r7, #32
 80017cc:	3b20      	subs	r3, #32
 80017ce:	681b      	ldr	r3, [r3, #0]
 80017d0:	2b0c      	cmp	r3, #12
 80017d2:	d00b      	beq.n	80017ec <matrixPlot+0x294>
 80017d4:	f107 0320 	add.w	r3, r7, #32
 80017d8:	3b20      	subs	r3, #32
 80017da:	681b      	ldr	r3, [r3, #0]
 80017dc:	2b0d      	cmp	r3, #13
 80017de:	d005      	beq.n	80017ec <matrixPlot+0x294>
 80017e0:	f107 0320 	add.w	r3, r7, #32
 80017e4:	3b20      	subs	r3, #32
 80017e6:	681b      	ldr	r3, [r3, #0]
 80017e8:	2b0e      	cmp	r3, #14
 80017ea:	d10a      	bne.n	8001802 <matrixPlot+0x2aa>
				colour = decodeRgbValue(15, 0, 31);
 80017ec:	221f      	movs	r2, #31
 80017ee:	2100      	movs	r1, #0
 80017f0:	200f      	movs	r0, #15
 80017f2:	f7ff fe3b 	bl	800146c <decodeRgbValue>
 80017f6:	4603      	mov	r3, r0
 80017f8:	f507 5278 	add.w	r2, r7, #15872	; 0x3e00
 80017fc:	f102 021e 	add.w	r2, r2, #30
 8001800:	8013      	strh	r3, [r2, #0]
			if (cisloTvaru == 15 || cisloTvaru == 16 || cisloTvaru == 17 || cisloTvaru == 18)
 8001802:	f107 0320 	add.w	r3, r7, #32
 8001806:	3b20      	subs	r3, #32
 8001808:	681b      	ldr	r3, [r3, #0]
 800180a:	2b0f      	cmp	r3, #15
 800180c:	d012      	beq.n	8001834 <matrixPlot+0x2dc>
 800180e:	f107 0320 	add.w	r3, r7, #32
 8001812:	3b20      	subs	r3, #32
 8001814:	681b      	ldr	r3, [r3, #0]
 8001816:	2b10      	cmp	r3, #16
 8001818:	d00c      	beq.n	8001834 <matrixPlot+0x2dc>
 800181a:	f107 0320 	add.w	r3, r7, #32
 800181e:	3b20      	subs	r3, #32
 8001820:	681b      	ldr	r3, [r3, #0]
 8001822:	2b11      	cmp	r3, #17
 8001824:	d006      	beq.n	8001834 <matrixPlot+0x2dc>
 8001826:	f107 0320 	add.w	r3, r7, #32
 800182a:	3b20      	subs	r3, #32
 800182c:	681b      	ldr	r3, [r3, #0]
 800182e:	2b12      	cmp	r3, #18
 8001830:	f040 80cb 	bne.w	80019ca <matrixPlot+0x472>
				colour = decodeRgbValue(31, 15, 31);
 8001834:	221f      	movs	r2, #31
 8001836:	210f      	movs	r1, #15
 8001838:	201f      	movs	r0, #31
 800183a:	f7ff fe17 	bl	800146c <decodeRgbValue>
 800183e:	4603      	mov	r3, r0
 8001840:	f507 5278 	add.w	r2, r7, #15872	; 0x3e00
 8001844:	f102 021e 	add.w	r2, r2, #30
 8001848:	8013      	strh	r3, [r2, #0]
 800184a:	e0be      	b.n	80019ca <matrixPlot+0x472>
		}
		else if (pixels[x]==2){
 800184c:	f107 0320 	add.w	r3, r7, #32
 8001850:	3b14      	subs	r3, #20
 8001852:	f507 5278 	add.w	r2, r7, #15872	; 0x3e00
 8001856:	f102 020c 	add.w	r2, r2, #12
 800185a:	6812      	ldr	r2, [r2, #0]
 800185c:	f833 3012 	ldrh.w	r3, [r3, r2, lsl #1]
 8001860:	2b02      	cmp	r3, #2
 8001862:	d10b      	bne.n	800187c <matrixPlot+0x324>
			colour = decodeRgbValue(31, 31, 31);
 8001864:	221f      	movs	r2, #31
 8001866:	211f      	movs	r1, #31
 8001868:	201f      	movs	r0, #31
 800186a:	f7ff fdff 	bl	800146c <decodeRgbValue>
 800186e:	4603      	mov	r3, r0
 8001870:	f507 5278 	add.w	r2, r7, #15872	; 0x3e00
 8001874:	f102 021e 	add.w	r2, r2, #30
 8001878:	8013      	strh	r3, [r2, #0]
 800187a:	e0a6      	b.n	80019ca <matrixPlot+0x472>
		}
		else if (pixels[x]==3){
 800187c:	f107 0320 	add.w	r3, r7, #32
 8001880:	3b14      	subs	r3, #20
 8001882:	f507 5278 	add.w	r2, r7, #15872	; 0x3e00
 8001886:	f102 020c 	add.w	r2, r2, #12
 800188a:	6812      	ldr	r2, [r2, #0]
 800188c:	f833 3012 	ldrh.w	r3, [r3, r2, lsl #1]
 8001890:	2b03      	cmp	r3, #3
 8001892:	d10b      	bne.n	80018ac <matrixPlot+0x354>
			colour = decodeRgbValue(31, 31, 0);
 8001894:	2200      	movs	r2, #0
 8001896:	211f      	movs	r1, #31
 8001898:	201f      	movs	r0, #31
 800189a:	f7ff fde7 	bl	800146c <decodeRgbValue>
 800189e:	4603      	mov	r3, r0
 80018a0:	f507 5278 	add.w	r2, r7, #15872	; 0x3e00
 80018a4:	f102 021e 	add.w	r2, r2, #30
 80018a8:	8013      	strh	r3, [r2, #0]
 80018aa:	e08e      	b.n	80019ca <matrixPlot+0x472>
		}
		else if (pixels[x]==4){
 80018ac:	f107 0320 	add.w	r3, r7, #32
 80018b0:	3b14      	subs	r3, #20
 80018b2:	f507 5278 	add.w	r2, r7, #15872	; 0x3e00
 80018b6:	f102 020c 	add.w	r2, r2, #12
 80018ba:	6812      	ldr	r2, [r2, #0]
 80018bc:	f833 3012 	ldrh.w	r3, [r3, r2, lsl #1]
 80018c0:	2b04      	cmp	r3, #4
 80018c2:	d10b      	bne.n	80018dc <matrixPlot+0x384>
			colour = decodeRgbValue(0, 31, 31);
 80018c4:	221f      	movs	r2, #31
 80018c6:	211f      	movs	r1, #31
 80018c8:	2000      	movs	r0, #0
 80018ca:	f7ff fdcf 	bl	800146c <decodeRgbValue>
 80018ce:	4603      	mov	r3, r0
 80018d0:	f507 5278 	add.w	r2, r7, #15872	; 0x3e00
 80018d4:	f102 021e 	add.w	r2, r2, #30
 80018d8:	8013      	strh	r3, [r2, #0]
 80018da:	e076      	b.n	80019ca <matrixPlot+0x472>
		}
		else if (pixels[x]==5){
 80018dc:	f107 0320 	add.w	r3, r7, #32
 80018e0:	3b14      	subs	r3, #20
 80018e2:	f507 5278 	add.w	r2, r7, #15872	; 0x3e00
 80018e6:	f102 020c 	add.w	r2, r2, #12
 80018ea:	6812      	ldr	r2, [r2, #0]
 80018ec:	f833 3012 	ldrh.w	r3, [r3, r2, lsl #1]
 80018f0:	2b05      	cmp	r3, #5
 80018f2:	d10b      	bne.n	800190c <matrixPlot+0x3b4>
			colour = decodeRgbValue(31, 0, 0);
 80018f4:	2200      	movs	r2, #0
 80018f6:	2100      	movs	r1, #0
 80018f8:	201f      	movs	r0, #31
 80018fa:	f7ff fdb7 	bl	800146c <decodeRgbValue>
 80018fe:	4603      	mov	r3, r0
 8001900:	f507 5278 	add.w	r2, r7, #15872	; 0x3e00
 8001904:	f102 021e 	add.w	r2, r2, #30
 8001908:	8013      	strh	r3, [r2, #0]
 800190a:	e05e      	b.n	80019ca <matrixPlot+0x472>
		}
		else if (pixels[x]==6){
 800190c:	f107 0320 	add.w	r3, r7, #32
 8001910:	3b14      	subs	r3, #20
 8001912:	f507 5278 	add.w	r2, r7, #15872	; 0x3e00
 8001916:	f102 020c 	add.w	r2, r2, #12
 800191a:	6812      	ldr	r2, [r2, #0]
 800191c:	f833 3012 	ldrh.w	r3, [r3, r2, lsl #1]
 8001920:	2b06      	cmp	r3, #6
 8001922:	d10b      	bne.n	800193c <matrixPlot+0x3e4>
			colour = decodeRgbValue(0, 31, 0);
 8001924:	2200      	movs	r2, #0
 8001926:	211f      	movs	r1, #31
 8001928:	2000      	movs	r0, #0
 800192a:	f7ff fd9f 	bl	800146c <decodeRgbValue>
 800192e:	4603      	mov	r3, r0
 8001930:	f507 5278 	add.w	r2, r7, #15872	; 0x3e00
 8001934:	f102 021e 	add.w	r2, r2, #30
 8001938:	8013      	strh	r3, [r2, #0]
 800193a:	e046      	b.n	80019ca <matrixPlot+0x472>
		}
		else if (pixels[x]==7){
 800193c:	f107 0320 	add.w	r3, r7, #32
 8001940:	3b14      	subs	r3, #20
 8001942:	f507 5278 	add.w	r2, r7, #15872	; 0x3e00
 8001946:	f102 020c 	add.w	r2, r2, #12
 800194a:	6812      	ldr	r2, [r2, #0]
 800194c:	f833 3012 	ldrh.w	r3, [r3, r2, lsl #1]
 8001950:	2b07      	cmp	r3, #7
 8001952:	d10b      	bne.n	800196c <matrixPlot+0x414>
			colour = decodeRgbValue(0, 0, 31);
 8001954:	221f      	movs	r2, #31
 8001956:	2100      	movs	r1, #0
 8001958:	2000      	movs	r0, #0
 800195a:	f7ff fd87 	bl	800146c <decodeRgbValue>
 800195e:	4603      	mov	r3, r0
 8001960:	f507 5278 	add.w	r2, r7, #15872	; 0x3e00
 8001964:	f102 021e 	add.w	r2, r2, #30
 8001968:	8013      	strh	r3, [r2, #0]
 800196a:	e02e      	b.n	80019ca <matrixPlot+0x472>
		}
		else if (pixels[x]==8){
 800196c:	f107 0320 	add.w	r3, r7, #32
 8001970:	3b14      	subs	r3, #20
 8001972:	f507 5278 	add.w	r2, r7, #15872	; 0x3e00
 8001976:	f102 020c 	add.w	r2, r2, #12
 800197a:	6812      	ldr	r2, [r2, #0]
 800197c:	f833 3012 	ldrh.w	r3, [r3, r2, lsl #1]
 8001980:	2b08      	cmp	r3, #8
 8001982:	d10b      	bne.n	800199c <matrixPlot+0x444>
			colour = decodeRgbValue(15, 0, 31);
 8001984:	221f      	movs	r2, #31
 8001986:	2100      	movs	r1, #0
 8001988:	200f      	movs	r0, #15
 800198a:	f7ff fd6f 	bl	800146c <decodeRgbValue>
 800198e:	4603      	mov	r3, r0
 8001990:	f507 5278 	add.w	r2, r7, #15872	; 0x3e00
 8001994:	f102 021e 	add.w	r2, r2, #30
 8001998:	8013      	strh	r3, [r2, #0]
 800199a:	e016      	b.n	80019ca <matrixPlot+0x472>
		}
		else if (pixels[x]==9){
 800199c:	f107 0320 	add.w	r3, r7, #32
 80019a0:	3b14      	subs	r3, #20
 80019a2:	f507 5278 	add.w	r2, r7, #15872	; 0x3e00
 80019a6:	f102 020c 	add.w	r2, r2, #12
 80019aa:	6812      	ldr	r2, [r2, #0]
 80019ac:	f833 3012 	ldrh.w	r3, [r3, r2, lsl #1]
 80019b0:	2b09      	cmp	r3, #9
 80019b2:	d10a      	bne.n	80019ca <matrixPlot+0x472>
			colour = decodeRgbValue(31, 15, 31);
 80019b4:	221f      	movs	r2, #31
 80019b6:	210f      	movs	r1, #15
 80019b8:	201f      	movs	r0, #31
 80019ba:	f7ff fd57 	bl	800146c <decodeRgbValue>
 80019be:	4603      	mov	r3, r0
 80019c0:	f507 5278 	add.w	r2, r7, #15872	; 0x3e00
 80019c4:	f102 021e 	add.w	r2, r2, #30
 80019c8:	8013      	strh	r3, [r2, #0]
		}
		lcdWriteData(colour >> 8, colour);;
 80019ca:	f507 5378 	add.w	r3, r7, #15872	; 0x3e00
 80019ce:	f103 031e 	add.w	r3, r3, #30
 80019d2:	881b      	ldrh	r3, [r3, #0]
 80019d4:	0a1b      	lsrs	r3, r3, #8
 80019d6:	b29b      	uxth	r3, r3
 80019d8:	b2db      	uxtb	r3, r3
 80019da:	f507 5278 	add.w	r2, r7, #15872	; 0x3e00
 80019de:	f102 021e 	add.w	r2, r2, #30
 80019e2:	8812      	ldrh	r2, [r2, #0]
 80019e4:	b2d2      	uxtb	r2, r2
 80019e6:	4611      	mov	r1, r2
 80019e8:	4618      	mov	r0, r3
 80019ea:	f7ff fb99 	bl	8001120 <lcdWriteData>
	lcdWriteParameter(56);
	lcdWriteParameter(160);

	lcdWriteCommand(WRITE_MEMORY_START);

	for (int x = 0; x < (62*128); x++){
 80019ee:	f507 5378 	add.w	r3, r7, #15872	; 0x3e00
 80019f2:	f103 030c 	add.w	r3, r3, #12
 80019f6:	681b      	ldr	r3, [r3, #0]
 80019f8:	3301      	adds	r3, #1
 80019fa:	f507 5278 	add.w	r2, r7, #15872	; 0x3e00
 80019fe:	f102 020c 	add.w	r2, r2, #12
 8001a02:	6013      	str	r3, [r2, #0]
 8001a04:	f507 5378 	add.w	r3, r7, #15872	; 0x3e00
 8001a08:	f103 030c 	add.w	r3, r3, #12
 8001a0c:	681b      	ldr	r3, [r3, #0]
 8001a0e:	f5b3 5ff8 	cmp.w	r3, #7936	; 0x1f00
 8001a12:	f6ff ae35 	blt.w	8001680 <matrixPlot+0x128>
			colour = decodeRgbValue(31, 15, 31);
		}
		lcdWriteData(colour >> 8, colour);;
	}

}
 8001a16:	bf00      	nop
 8001a18:	f507 5778 	add.w	r7, r7, #15872	; 0x3e00
 8001a1c:	3720      	adds	r7, #32
 8001a1e:	46bd      	mov	sp, r7
 8001a20:	bd80      	pop	{r7, pc}
 8001a22:	bf00      	nop

08001a24 <createDeleteBlock>:

void createDeleteBlock(uint16_t matrix[128][128], int16_t x0, int16_t y0, int cisloTvaru, int volba){
 8001a24:	b480      	push	{r7}
 8001a26:	b0ab      	sub	sp, #172	; 0xac
 8001a28:	af00      	add	r7, sp, #0
 8001a2a:	60f8      	str	r0, [r7, #12]
 8001a2c:	607b      	str	r3, [r7, #4]
 8001a2e:	460b      	mov	r3, r1
 8001a30:	817b      	strh	r3, [r7, #10]
 8001a32:	4613      	mov	r3, r2
 8001a34:	813b      	strh	r3, [r7, #8]
	// ak objekt je stvorec
	if (cisloTvaru == 0){
 8001a36:	687b      	ldr	r3, [r7, #4]
 8001a38:	2b00      	cmp	r3, #0
 8001a3a:	d134      	bne.n	8001aa6 <createDeleteBlock+0x82>
		for(int i=0;i<12;i++)
 8001a3c:	2300      	movs	r3, #0
 8001a3e:	f8c7 30a4 	str.w	r3, [r7, #164]	; 0xa4
 8001a42:	e02a      	b.n	8001a9a <createDeleteBlock+0x76>
			for(int j=0;j<12;j++)
 8001a44:	2300      	movs	r3, #0
 8001a46:	f8c7 30a0 	str.w	r3, [r7, #160]	; 0xa0
 8001a4a:	e01d      	b.n	8001a88 <createDeleteBlock+0x64>
				if (y0-j>1)
 8001a4c:	f9b7 2008 	ldrsh.w	r2, [r7, #8]
 8001a50:	f8d7 30a0 	ldr.w	r3, [r7, #160]	; 0xa0
 8001a54:	1ad3      	subs	r3, r2, r3
 8001a56:	2b01      	cmp	r3, #1
 8001a58:	dd11      	ble.n	8001a7e <createDeleteBlock+0x5a>
					matrix[x0+i][y0-j]=volba;
 8001a5a:	f9b7 200a 	ldrsh.w	r2, [r7, #10]
 8001a5e:	f8d7 30a4 	ldr.w	r3, [r7, #164]	; 0xa4
 8001a62:	4413      	add	r3, r2
 8001a64:	021b      	lsls	r3, r3, #8
 8001a66:	68fa      	ldr	r2, [r7, #12]
 8001a68:	4413      	add	r3, r2
 8001a6a:	f9b7 1008 	ldrsh.w	r1, [r7, #8]
 8001a6e:	f8d7 20a0 	ldr.w	r2, [r7, #160]	; 0xa0
 8001a72:	1a8a      	subs	r2, r1, r2
 8001a74:	f8d7 10b0 	ldr.w	r1, [r7, #176]	; 0xb0
 8001a78:	b289      	uxth	r1, r1
 8001a7a:	f823 1012 	strh.w	r1, [r3, r2, lsl #1]

void createDeleteBlock(uint16_t matrix[128][128], int16_t x0, int16_t y0, int cisloTvaru, int volba){
	// ak objekt je stvorec
	if (cisloTvaru == 0){
		for(int i=0;i<12;i++)
			for(int j=0;j<12;j++)
 8001a7e:	f8d7 30a0 	ldr.w	r3, [r7, #160]	; 0xa0
 8001a82:	3301      	adds	r3, #1
 8001a84:	f8c7 30a0 	str.w	r3, [r7, #160]	; 0xa0
 8001a88:	f8d7 30a0 	ldr.w	r3, [r7, #160]	; 0xa0
 8001a8c:	2b0b      	cmp	r3, #11
 8001a8e:	dddd      	ble.n	8001a4c <createDeleteBlock+0x28>
}

void createDeleteBlock(uint16_t matrix[128][128], int16_t x0, int16_t y0, int cisloTvaru, int volba){
	// ak objekt je stvorec
	if (cisloTvaru == 0){
		for(int i=0;i<12;i++)
 8001a90:	f8d7 30a4 	ldr.w	r3, [r7, #164]	; 0xa4
 8001a94:	3301      	adds	r3, #1
 8001a96:	f8c7 30a4 	str.w	r3, [r7, #164]	; 0xa4
 8001a9a:	f8d7 30a4 	ldr.w	r3, [r7, #164]	; 0xa4
 8001a9e:	2b0b      	cmp	r3, #11
 8001aa0:	ddd0      	ble.n	8001a44 <createDeleteBlock+0x20>
					if (j>5 && i<6)
						matrix[x0+i][y0-j]=volba;
				}
			}
	}
}
 8001aa2:	f000 bd2a 	b.w	80024fa <createDeleteBlock+0xad6>
			for(int j=0;j<12;j++)
				if (y0-j>1)
					matrix[x0+i][y0-j]=volba;
	}
	// ak objekt je obdlznik |
	else if (cisloTvaru == 1){
 8001aa6:	687b      	ldr	r3, [r7, #4]
 8001aa8:	2b01      	cmp	r3, #1
 8001aaa:	d134      	bne.n	8001b16 <createDeleteBlock+0xf2>
		for(int i=0;i<6;i++)
 8001aac:	2300      	movs	r3, #0
 8001aae:	f8c7 309c 	str.w	r3, [r7, #156]	; 0x9c
 8001ab2:	e02a      	b.n	8001b0a <createDeleteBlock+0xe6>
			for(int j=0;j<24;j++)
 8001ab4:	2300      	movs	r3, #0
 8001ab6:	f8c7 3098 	str.w	r3, [r7, #152]	; 0x98
 8001aba:	e01d      	b.n	8001af8 <createDeleteBlock+0xd4>
				if (y0-j>1)
 8001abc:	f9b7 2008 	ldrsh.w	r2, [r7, #8]
 8001ac0:	f8d7 3098 	ldr.w	r3, [r7, #152]	; 0x98
 8001ac4:	1ad3      	subs	r3, r2, r3
 8001ac6:	2b01      	cmp	r3, #1
 8001ac8:	dd11      	ble.n	8001aee <createDeleteBlock+0xca>
					matrix[x0+i][y0-j]=volba;
 8001aca:	f9b7 200a 	ldrsh.w	r2, [r7, #10]
 8001ace:	f8d7 309c 	ldr.w	r3, [r7, #156]	; 0x9c
 8001ad2:	4413      	add	r3, r2
 8001ad4:	021b      	lsls	r3, r3, #8
 8001ad6:	68fa      	ldr	r2, [r7, #12]
 8001ad8:	4413      	add	r3, r2
 8001ada:	f9b7 1008 	ldrsh.w	r1, [r7, #8]
 8001ade:	f8d7 2098 	ldr.w	r2, [r7, #152]	; 0x98
 8001ae2:	1a8a      	subs	r2, r1, r2
 8001ae4:	f8d7 10b0 	ldr.w	r1, [r7, #176]	; 0xb0
 8001ae8:	b289      	uxth	r1, r1
 8001aea:	f823 1012 	strh.w	r1, [r3, r2, lsl #1]
					matrix[x0+i][y0-j]=volba;
	}
	// ak objekt je obdlznik |
	else if (cisloTvaru == 1){
		for(int i=0;i<6;i++)
			for(int j=0;j<24;j++)
 8001aee:	f8d7 3098 	ldr.w	r3, [r7, #152]	; 0x98
 8001af2:	3301      	adds	r3, #1
 8001af4:	f8c7 3098 	str.w	r3, [r7, #152]	; 0x98
 8001af8:	f8d7 3098 	ldr.w	r3, [r7, #152]	; 0x98
 8001afc:	2b17      	cmp	r3, #23
 8001afe:	dddd      	ble.n	8001abc <createDeleteBlock+0x98>
				if (y0-j>1)
					matrix[x0+i][y0-j]=volba;
	}
	// ak objekt je obdlznik |
	else if (cisloTvaru == 1){
		for(int i=0;i<6;i++)
 8001b00:	f8d7 309c 	ldr.w	r3, [r7, #156]	; 0x9c
 8001b04:	3301      	adds	r3, #1
 8001b06:	f8c7 309c 	str.w	r3, [r7, #156]	; 0x9c
 8001b0a:	f8d7 309c 	ldr.w	r3, [r7, #156]	; 0x9c
 8001b0e:	2b05      	cmp	r3, #5
 8001b10:	ddd0      	ble.n	8001ab4 <createDeleteBlock+0x90>
					if (j>5 && i<6)
						matrix[x0+i][y0-j]=volba;
				}
			}
	}
}
 8001b12:	f000 bcf2 	b.w	80024fa <createDeleteBlock+0xad6>
			for(int j=0;j<24;j++)
				if (y0-j>1)
					matrix[x0+i][y0-j]=volba;
	}
	// ak objekt je obdlznik _
	else if (cisloTvaru == 2){
 8001b16:	687b      	ldr	r3, [r7, #4]
 8001b18:	2b02      	cmp	r3, #2
 8001b1a:	d134      	bne.n	8001b86 <createDeleteBlock+0x162>
		for(int i=0;i<24;i++)
 8001b1c:	2300      	movs	r3, #0
 8001b1e:	f8c7 3094 	str.w	r3, [r7, #148]	; 0x94
 8001b22:	e02a      	b.n	8001b7a <createDeleteBlock+0x156>
			for(int j=0;j<6;j++)
 8001b24:	2300      	movs	r3, #0
 8001b26:	f8c7 3090 	str.w	r3, [r7, #144]	; 0x90
 8001b2a:	e01d      	b.n	8001b68 <createDeleteBlock+0x144>
				if (y0-j>1)
 8001b2c:	f9b7 2008 	ldrsh.w	r2, [r7, #8]
 8001b30:	f8d7 3090 	ldr.w	r3, [r7, #144]	; 0x90
 8001b34:	1ad3      	subs	r3, r2, r3
 8001b36:	2b01      	cmp	r3, #1
 8001b38:	dd11      	ble.n	8001b5e <createDeleteBlock+0x13a>
					matrix[x0+i][y0-j]=volba;
 8001b3a:	f9b7 200a 	ldrsh.w	r2, [r7, #10]
 8001b3e:	f8d7 3094 	ldr.w	r3, [r7, #148]	; 0x94
 8001b42:	4413      	add	r3, r2
 8001b44:	021b      	lsls	r3, r3, #8
 8001b46:	68fa      	ldr	r2, [r7, #12]
 8001b48:	4413      	add	r3, r2
 8001b4a:	f9b7 1008 	ldrsh.w	r1, [r7, #8]
 8001b4e:	f8d7 2090 	ldr.w	r2, [r7, #144]	; 0x90
 8001b52:	1a8a      	subs	r2, r1, r2
 8001b54:	f8d7 10b0 	ldr.w	r1, [r7, #176]	; 0xb0
 8001b58:	b289      	uxth	r1, r1
 8001b5a:	f823 1012 	strh.w	r1, [r3, r2, lsl #1]
					matrix[x0+i][y0-j]=volba;
	}
	// ak objekt je obdlznik _
	else if (cisloTvaru == 2){
		for(int i=0;i<24;i++)
			for(int j=0;j<6;j++)
 8001b5e:	f8d7 3090 	ldr.w	r3, [r7, #144]	; 0x90
 8001b62:	3301      	adds	r3, #1
 8001b64:	f8c7 3090 	str.w	r3, [r7, #144]	; 0x90
 8001b68:	f8d7 3090 	ldr.w	r3, [r7, #144]	; 0x90
 8001b6c:	2b05      	cmp	r3, #5
 8001b6e:	dddd      	ble.n	8001b2c <createDeleteBlock+0x108>
				if (y0-j>1)
					matrix[x0+i][y0-j]=volba;
	}
	// ak objekt je obdlznik _
	else if (cisloTvaru == 2){
		for(int i=0;i<24;i++)
 8001b70:	f8d7 3094 	ldr.w	r3, [r7, #148]	; 0x94
 8001b74:	3301      	adds	r3, #1
 8001b76:	f8c7 3094 	str.w	r3, [r7, #148]	; 0x94
 8001b7a:	f8d7 3094 	ldr.w	r3, [r7, #148]	; 0x94
 8001b7e:	2b17      	cmp	r3, #23
 8001b80:	ddd0      	ble.n	8001b24 <createDeleteBlock+0x100>
					if (j>5 && i<6)
						matrix[x0+i][y0-j]=volba;
				}
			}
	}
}
 8001b82:	f000 bcba 	b.w	80024fa <createDeleteBlock+0xad6>
			for(int j=0;j<6;j++)
				if (y0-j>1)
					matrix[x0+i][y0-j]=volba;
	}
	// ak objekt je Z
	else if (cisloTvaru == 3){
 8001b86:	687b      	ldr	r3, [r7, #4]
 8001b88:	2b03      	cmp	r3, #3
 8001b8a:	d156      	bne.n	8001c3a <createDeleteBlock+0x216>
		for(int i=0;i<18;i++)
 8001b8c:	2300      	movs	r3, #0
 8001b8e:	f8c7 308c 	str.w	r3, [r7, #140]	; 0x8c
 8001b92:	e04c      	b.n	8001c2e <createDeleteBlock+0x20a>
			for(int j=0;j<12;j++){
 8001b94:	2300      	movs	r3, #0
 8001b96:	f8c7 3088 	str.w	r3, [r7, #136]	; 0x88
 8001b9a:	e03f      	b.n	8001c1c <createDeleteBlock+0x1f8>
				if (y0-j>1){
 8001b9c:	f9b7 2008 	ldrsh.w	r2, [r7, #8]
 8001ba0:	f8d7 3088 	ldr.w	r3, [r7, #136]	; 0x88
 8001ba4:	1ad3      	subs	r3, r2, r3
 8001ba6:	2b01      	cmp	r3, #1
 8001ba8:	dd33      	ble.n	8001c12 <createDeleteBlock+0x1ee>
					if (j<6 && i>5)
 8001baa:	f8d7 3088 	ldr.w	r3, [r7, #136]	; 0x88
 8001bae:	2b05      	cmp	r3, #5
 8001bb0:	dc15      	bgt.n	8001bde <createDeleteBlock+0x1ba>
 8001bb2:	f8d7 308c 	ldr.w	r3, [r7, #140]	; 0x8c
 8001bb6:	2b05      	cmp	r3, #5
 8001bb8:	dd11      	ble.n	8001bde <createDeleteBlock+0x1ba>
						matrix[x0+i][y0-j]=volba;
 8001bba:	f9b7 200a 	ldrsh.w	r2, [r7, #10]
 8001bbe:	f8d7 308c 	ldr.w	r3, [r7, #140]	; 0x8c
 8001bc2:	4413      	add	r3, r2
 8001bc4:	021b      	lsls	r3, r3, #8
 8001bc6:	68fa      	ldr	r2, [r7, #12]
 8001bc8:	4413      	add	r3, r2
 8001bca:	f9b7 1008 	ldrsh.w	r1, [r7, #8]
 8001bce:	f8d7 2088 	ldr.w	r2, [r7, #136]	; 0x88
 8001bd2:	1a8a      	subs	r2, r1, r2
 8001bd4:	f8d7 10b0 	ldr.w	r1, [r7, #176]	; 0xb0
 8001bd8:	b289      	uxth	r1, r1
 8001bda:	f823 1012 	strh.w	r1, [r3, r2, lsl #1]
					if (j>5 && i<12)
 8001bde:	f8d7 3088 	ldr.w	r3, [r7, #136]	; 0x88
 8001be2:	2b05      	cmp	r3, #5
 8001be4:	dd15      	ble.n	8001c12 <createDeleteBlock+0x1ee>
 8001be6:	f8d7 308c 	ldr.w	r3, [r7, #140]	; 0x8c
 8001bea:	2b0b      	cmp	r3, #11
 8001bec:	dc11      	bgt.n	8001c12 <createDeleteBlock+0x1ee>
						matrix[x0+i][y0-j]=volba;
 8001bee:	f9b7 200a 	ldrsh.w	r2, [r7, #10]
 8001bf2:	f8d7 308c 	ldr.w	r3, [r7, #140]	; 0x8c
 8001bf6:	4413      	add	r3, r2
 8001bf8:	021b      	lsls	r3, r3, #8
 8001bfa:	68fa      	ldr	r2, [r7, #12]
 8001bfc:	4413      	add	r3, r2
 8001bfe:	f9b7 1008 	ldrsh.w	r1, [r7, #8]
 8001c02:	f8d7 2088 	ldr.w	r2, [r7, #136]	; 0x88
 8001c06:	1a8a      	subs	r2, r1, r2
 8001c08:	f8d7 10b0 	ldr.w	r1, [r7, #176]	; 0xb0
 8001c0c:	b289      	uxth	r1, r1
 8001c0e:	f823 1012 	strh.w	r1, [r3, r2, lsl #1]
					matrix[x0+i][y0-j]=volba;
	}
	// ak objekt je Z
	else if (cisloTvaru == 3){
		for(int i=0;i<18;i++)
			for(int j=0;j<12;j++){
 8001c12:	f8d7 3088 	ldr.w	r3, [r7, #136]	; 0x88
 8001c16:	3301      	adds	r3, #1
 8001c18:	f8c7 3088 	str.w	r3, [r7, #136]	; 0x88
 8001c1c:	f8d7 3088 	ldr.w	r3, [r7, #136]	; 0x88
 8001c20:	2b0b      	cmp	r3, #11
 8001c22:	ddbb      	ble.n	8001b9c <createDeleteBlock+0x178>
				if (y0-j>1)
					matrix[x0+i][y0-j]=volba;
	}
	// ak objekt je Z
	else if (cisloTvaru == 3){
		for(int i=0;i<18;i++)
 8001c24:	f8d7 308c 	ldr.w	r3, [r7, #140]	; 0x8c
 8001c28:	3301      	adds	r3, #1
 8001c2a:	f8c7 308c 	str.w	r3, [r7, #140]	; 0x8c
 8001c2e:	f8d7 308c 	ldr.w	r3, [r7, #140]	; 0x8c
 8001c32:	2b11      	cmp	r3, #17
 8001c34:	ddae      	ble.n	8001b94 <createDeleteBlock+0x170>
					if (j>5 && i<6)
						matrix[x0+i][y0-j]=volba;
				}
			}
	}
}
 8001c36:	f000 bc60 	b.w	80024fa <createDeleteBlock+0xad6>

				}
			}
	}
	// ak objekt je N
	else if (cisloTvaru == 4){
 8001c3a:	687b      	ldr	r3, [r7, #4]
 8001c3c:	2b04      	cmp	r3, #4
 8001c3e:	d16f      	bne.n	8001d20 <createDeleteBlock+0x2fc>
		for(int i=0;i<12;i++)
 8001c40:	2300      	movs	r3, #0
 8001c42:	f8c7 3084 	str.w	r3, [r7, #132]	; 0x84
 8001c46:	e066      	b.n	8001d16 <createDeleteBlock+0x2f2>
			for(int j=0;j<18;j++){
 8001c48:	2300      	movs	r3, #0
 8001c4a:	f8c7 3080 	str.w	r3, [r7, #128]	; 0x80
 8001c4e:	e059      	b.n	8001d04 <createDeleteBlock+0x2e0>
				if (y0-j>1){
 8001c50:	f9b7 2008 	ldrsh.w	r2, [r7, #8]
 8001c54:	f8d7 3080 	ldr.w	r3, [r7, #128]	; 0x80
 8001c58:	1ad3      	subs	r3, r2, r3
 8001c5a:	2b01      	cmp	r3, #1
 8001c5c:	dd4d      	ble.n	8001cfa <createDeleteBlock+0x2d6>
					if (j>5 && i>5)
 8001c5e:	f8d7 3080 	ldr.w	r3, [r7, #128]	; 0x80
 8001c62:	2b05      	cmp	r3, #5
 8001c64:	dd15      	ble.n	8001c92 <createDeleteBlock+0x26e>
 8001c66:	f8d7 3084 	ldr.w	r3, [r7, #132]	; 0x84
 8001c6a:	2b05      	cmp	r3, #5
 8001c6c:	dd11      	ble.n	8001c92 <createDeleteBlock+0x26e>
						matrix[x0+i][y0-j]=volba;
 8001c6e:	f9b7 200a 	ldrsh.w	r2, [r7, #10]
 8001c72:	f8d7 3084 	ldr.w	r3, [r7, #132]	; 0x84
 8001c76:	4413      	add	r3, r2
 8001c78:	021b      	lsls	r3, r3, #8
 8001c7a:	68fa      	ldr	r2, [r7, #12]
 8001c7c:	4413      	add	r3, r2
 8001c7e:	f9b7 1008 	ldrsh.w	r1, [r7, #8]
 8001c82:	f8d7 2080 	ldr.w	r2, [r7, #128]	; 0x80
 8001c86:	1a8a      	subs	r2, r1, r2
 8001c88:	f8d7 10b0 	ldr.w	r1, [r7, #176]	; 0xb0
 8001c8c:	b289      	uxth	r1, r1
 8001c8e:	f823 1012 	strh.w	r1, [r3, r2, lsl #1]
					if (j>5 && j<12)
 8001c92:	f8d7 3080 	ldr.w	r3, [r7, #128]	; 0x80
 8001c96:	2b05      	cmp	r3, #5
 8001c98:	dd15      	ble.n	8001cc6 <createDeleteBlock+0x2a2>
 8001c9a:	f8d7 3080 	ldr.w	r3, [r7, #128]	; 0x80
 8001c9e:	2b0b      	cmp	r3, #11
 8001ca0:	dc11      	bgt.n	8001cc6 <createDeleteBlock+0x2a2>
						matrix[x0+i][y0-j]=volba;
 8001ca2:	f9b7 200a 	ldrsh.w	r2, [r7, #10]
 8001ca6:	f8d7 3084 	ldr.w	r3, [r7, #132]	; 0x84
 8001caa:	4413      	add	r3, r2
 8001cac:	021b      	lsls	r3, r3, #8
 8001cae:	68fa      	ldr	r2, [r7, #12]
 8001cb0:	4413      	add	r3, r2
 8001cb2:	f9b7 1008 	ldrsh.w	r1, [r7, #8]
 8001cb6:	f8d7 2080 	ldr.w	r2, [r7, #128]	; 0x80
 8001cba:	1a8a      	subs	r2, r1, r2
 8001cbc:	f8d7 10b0 	ldr.w	r1, [r7, #176]	; 0xb0
 8001cc0:	b289      	uxth	r1, r1
 8001cc2:	f823 1012 	strh.w	r1, [r3, r2, lsl #1]
					if (j<12 && i<6)
 8001cc6:	f8d7 3080 	ldr.w	r3, [r7, #128]	; 0x80
 8001cca:	2b0b      	cmp	r3, #11
 8001ccc:	dc15      	bgt.n	8001cfa <createDeleteBlock+0x2d6>
 8001cce:	f8d7 3084 	ldr.w	r3, [r7, #132]	; 0x84
 8001cd2:	2b05      	cmp	r3, #5
 8001cd4:	dc11      	bgt.n	8001cfa <createDeleteBlock+0x2d6>
						matrix[x0+i][y0-j]=volba;
 8001cd6:	f9b7 200a 	ldrsh.w	r2, [r7, #10]
 8001cda:	f8d7 3084 	ldr.w	r3, [r7, #132]	; 0x84
 8001cde:	4413      	add	r3, r2
 8001ce0:	021b      	lsls	r3, r3, #8
 8001ce2:	68fa      	ldr	r2, [r7, #12]
 8001ce4:	4413      	add	r3, r2
 8001ce6:	f9b7 1008 	ldrsh.w	r1, [r7, #8]
 8001cea:	f8d7 2080 	ldr.w	r2, [r7, #128]	; 0x80
 8001cee:	1a8a      	subs	r2, r1, r2
 8001cf0:	f8d7 10b0 	ldr.w	r1, [r7, #176]	; 0xb0
 8001cf4:	b289      	uxth	r1, r1
 8001cf6:	f823 1012 	strh.w	r1, [r3, r2, lsl #1]
			}
	}
	// ak objekt je N
	else if (cisloTvaru == 4){
		for(int i=0;i<12;i++)
			for(int j=0;j<18;j++){
 8001cfa:	f8d7 3080 	ldr.w	r3, [r7, #128]	; 0x80
 8001cfe:	3301      	adds	r3, #1
 8001d00:	f8c7 3080 	str.w	r3, [r7, #128]	; 0x80
 8001d04:	f8d7 3080 	ldr.w	r3, [r7, #128]	; 0x80
 8001d08:	2b11      	cmp	r3, #17
 8001d0a:	dda1      	ble.n	8001c50 <createDeleteBlock+0x22c>
				}
			}
	}
	// ak objekt je N
	else if (cisloTvaru == 4){
		for(int i=0;i<12;i++)
 8001d0c:	f8d7 3084 	ldr.w	r3, [r7, #132]	; 0x84
 8001d10:	3301      	adds	r3, #1
 8001d12:	f8c7 3084 	str.w	r3, [r7, #132]	; 0x84
 8001d16:	f8d7 3084 	ldr.w	r3, [r7, #132]	; 0x84
 8001d1a:	2b0b      	cmp	r3, #11
 8001d1c:	dd94      	ble.n	8001c48 <createDeleteBlock+0x224>
					if (j>5 && i<6)
						matrix[x0+i][y0-j]=volba;
				}
			}
	}
}
 8001d1e:	e3ec      	b.n	80024fa <createDeleteBlock+0xad6>
						matrix[x0+i][y0-j]=volba;
				}
			}
	}
	// ak objekt je opan Z
	else if (cisloTvaru == 5){
 8001d20:	687b      	ldr	r3, [r7, #4]
 8001d22:	2b05      	cmp	r3, #5
 8001d24:	d144      	bne.n	8001db0 <createDeleteBlock+0x38c>
		for(int i=0;i<18;i++)
 8001d26:	2300      	movs	r3, #0
 8001d28:	67fb      	str	r3, [r7, #124]	; 0x7c
 8001d2a:	e03d      	b.n	8001da8 <createDeleteBlock+0x384>
			for(int j=0;j<12;j++){
 8001d2c:	2300      	movs	r3, #0
 8001d2e:	67bb      	str	r3, [r7, #120]	; 0x78
 8001d30:	e034      	b.n	8001d9c <createDeleteBlock+0x378>
				if (y0-j>1){
 8001d32:	f9b7 2008 	ldrsh.w	r2, [r7, #8]
 8001d36:	6fbb      	ldr	r3, [r7, #120]	; 0x78
 8001d38:	1ad3      	subs	r3, r2, r3
 8001d3a:	2b01      	cmp	r3, #1
 8001d3c:	dd2b      	ble.n	8001d96 <createDeleteBlock+0x372>
					if (j>5 && i>5)
 8001d3e:	6fbb      	ldr	r3, [r7, #120]	; 0x78
 8001d40:	2b05      	cmp	r3, #5
 8001d42:	dd12      	ble.n	8001d6a <createDeleteBlock+0x346>
 8001d44:	6ffb      	ldr	r3, [r7, #124]	; 0x7c
 8001d46:	2b05      	cmp	r3, #5
 8001d48:	dd0f      	ble.n	8001d6a <createDeleteBlock+0x346>
						matrix[x0+i][y0-j]=volba;
 8001d4a:	f9b7 200a 	ldrsh.w	r2, [r7, #10]
 8001d4e:	6ffb      	ldr	r3, [r7, #124]	; 0x7c
 8001d50:	4413      	add	r3, r2
 8001d52:	021b      	lsls	r3, r3, #8
 8001d54:	68fa      	ldr	r2, [r7, #12]
 8001d56:	4413      	add	r3, r2
 8001d58:	f9b7 1008 	ldrsh.w	r1, [r7, #8]
 8001d5c:	6fba      	ldr	r2, [r7, #120]	; 0x78
 8001d5e:	1a8a      	subs	r2, r1, r2
 8001d60:	f8d7 10b0 	ldr.w	r1, [r7, #176]	; 0xb0
 8001d64:	b289      	uxth	r1, r1
 8001d66:	f823 1012 	strh.w	r1, [r3, r2, lsl #1]
					if (j<6 && i<12)
 8001d6a:	6fbb      	ldr	r3, [r7, #120]	; 0x78
 8001d6c:	2b05      	cmp	r3, #5
 8001d6e:	dc12      	bgt.n	8001d96 <createDeleteBlock+0x372>
 8001d70:	6ffb      	ldr	r3, [r7, #124]	; 0x7c
 8001d72:	2b0b      	cmp	r3, #11
 8001d74:	dc0f      	bgt.n	8001d96 <createDeleteBlock+0x372>
						matrix[x0+i][y0-j]=volba;
 8001d76:	f9b7 200a 	ldrsh.w	r2, [r7, #10]
 8001d7a:	6ffb      	ldr	r3, [r7, #124]	; 0x7c
 8001d7c:	4413      	add	r3, r2
 8001d7e:	021b      	lsls	r3, r3, #8
 8001d80:	68fa      	ldr	r2, [r7, #12]
 8001d82:	4413      	add	r3, r2
 8001d84:	f9b7 1008 	ldrsh.w	r1, [r7, #8]
 8001d88:	6fba      	ldr	r2, [r7, #120]	; 0x78
 8001d8a:	1a8a      	subs	r2, r1, r2
 8001d8c:	f8d7 10b0 	ldr.w	r1, [r7, #176]	; 0xb0
 8001d90:	b289      	uxth	r1, r1
 8001d92:	f823 1012 	strh.w	r1, [r3, r2, lsl #1]
			}
	}
	// ak objekt je opan Z
	else if (cisloTvaru == 5){
		for(int i=0;i<18;i++)
			for(int j=0;j<12;j++){
 8001d96:	6fbb      	ldr	r3, [r7, #120]	; 0x78
 8001d98:	3301      	adds	r3, #1
 8001d9a:	67bb      	str	r3, [r7, #120]	; 0x78
 8001d9c:	6fbb      	ldr	r3, [r7, #120]	; 0x78
 8001d9e:	2b0b      	cmp	r3, #11
 8001da0:	ddc7      	ble.n	8001d32 <createDeleteBlock+0x30e>
				}
			}
	}
	// ak objekt je opan Z
	else if (cisloTvaru == 5){
		for(int i=0;i<18;i++)
 8001da2:	6ffb      	ldr	r3, [r7, #124]	; 0x7c
 8001da4:	3301      	adds	r3, #1
 8001da6:	67fb      	str	r3, [r7, #124]	; 0x7c
 8001da8:	6ffb      	ldr	r3, [r7, #124]	; 0x7c
 8001daa:	2b11      	cmp	r3, #17
 8001dac:	ddbe      	ble.n	8001d2c <createDeleteBlock+0x308>
					if (j>5 && i<6)
						matrix[x0+i][y0-j]=volba;
				}
			}
	}
}
 8001dae:	e3a4      	b.n	80024fa <createDeleteBlock+0xad6>
						matrix[x0+i][y0-j]=volba;
				}
			}
	}
	// ak objekt je opacny N
	else if (cisloTvaru == 6){
 8001db0:	687b      	ldr	r3, [r7, #4]
 8001db2:	2b06      	cmp	r3, #6
 8001db4:	d15a      	bne.n	8001e6c <createDeleteBlock+0x448>
		for(int i=0;i<12;i++)
 8001db6:	2300      	movs	r3, #0
 8001db8:	677b      	str	r3, [r7, #116]	; 0x74
 8001dba:	e053      	b.n	8001e64 <createDeleteBlock+0x440>
			for(int j=0;j<18;j++){
 8001dbc:	2300      	movs	r3, #0
 8001dbe:	673b      	str	r3, [r7, #112]	; 0x70
 8001dc0:	e04a      	b.n	8001e58 <createDeleteBlock+0x434>
				if (y0-j>1){
 8001dc2:	f9b7 2008 	ldrsh.w	r2, [r7, #8]
 8001dc6:	6f3b      	ldr	r3, [r7, #112]	; 0x70
 8001dc8:	1ad3      	subs	r3, r2, r3
 8001dca:	2b01      	cmp	r3, #1
 8001dcc:	dd41      	ble.n	8001e52 <createDeleteBlock+0x42e>
					if (j>5 && i<6)
 8001dce:	6f3b      	ldr	r3, [r7, #112]	; 0x70
 8001dd0:	2b05      	cmp	r3, #5
 8001dd2:	dd12      	ble.n	8001dfa <createDeleteBlock+0x3d6>
 8001dd4:	6f7b      	ldr	r3, [r7, #116]	; 0x74
 8001dd6:	2b05      	cmp	r3, #5
 8001dd8:	dc0f      	bgt.n	8001dfa <createDeleteBlock+0x3d6>
						matrix[x0+i][y0-j]=volba;
 8001dda:	f9b7 200a 	ldrsh.w	r2, [r7, #10]
 8001dde:	6f7b      	ldr	r3, [r7, #116]	; 0x74
 8001de0:	4413      	add	r3, r2
 8001de2:	021b      	lsls	r3, r3, #8
 8001de4:	68fa      	ldr	r2, [r7, #12]
 8001de6:	4413      	add	r3, r2
 8001de8:	f9b7 1008 	ldrsh.w	r1, [r7, #8]
 8001dec:	6f3a      	ldr	r2, [r7, #112]	; 0x70
 8001dee:	1a8a      	subs	r2, r1, r2
 8001df0:	f8d7 10b0 	ldr.w	r1, [r7, #176]	; 0xb0
 8001df4:	b289      	uxth	r1, r1
 8001df6:	f823 1012 	strh.w	r1, [r3, r2, lsl #1]
					if (j>5 && j<12)
 8001dfa:	6f3b      	ldr	r3, [r7, #112]	; 0x70
 8001dfc:	2b05      	cmp	r3, #5
 8001dfe:	dd12      	ble.n	8001e26 <createDeleteBlock+0x402>
 8001e00:	6f3b      	ldr	r3, [r7, #112]	; 0x70
 8001e02:	2b0b      	cmp	r3, #11
 8001e04:	dc0f      	bgt.n	8001e26 <createDeleteBlock+0x402>
						matrix[x0+i][y0-j]=volba;
 8001e06:	f9b7 200a 	ldrsh.w	r2, [r7, #10]
 8001e0a:	6f7b      	ldr	r3, [r7, #116]	; 0x74
 8001e0c:	4413      	add	r3, r2
 8001e0e:	021b      	lsls	r3, r3, #8
 8001e10:	68fa      	ldr	r2, [r7, #12]
 8001e12:	4413      	add	r3, r2
 8001e14:	f9b7 1008 	ldrsh.w	r1, [r7, #8]
 8001e18:	6f3a      	ldr	r2, [r7, #112]	; 0x70
 8001e1a:	1a8a      	subs	r2, r1, r2
 8001e1c:	f8d7 10b0 	ldr.w	r1, [r7, #176]	; 0xb0
 8001e20:	b289      	uxth	r1, r1
 8001e22:	f823 1012 	strh.w	r1, [r3, r2, lsl #1]
					if (j<12 && i>5)
 8001e26:	6f3b      	ldr	r3, [r7, #112]	; 0x70
 8001e28:	2b0b      	cmp	r3, #11
 8001e2a:	dc12      	bgt.n	8001e52 <createDeleteBlock+0x42e>
 8001e2c:	6f7b      	ldr	r3, [r7, #116]	; 0x74
 8001e2e:	2b05      	cmp	r3, #5
 8001e30:	dd0f      	ble.n	8001e52 <createDeleteBlock+0x42e>
						matrix[x0+i][y0-j]=volba;
 8001e32:	f9b7 200a 	ldrsh.w	r2, [r7, #10]
 8001e36:	6f7b      	ldr	r3, [r7, #116]	; 0x74
 8001e38:	4413      	add	r3, r2
 8001e3a:	021b      	lsls	r3, r3, #8
 8001e3c:	68fa      	ldr	r2, [r7, #12]
 8001e3e:	4413      	add	r3, r2
 8001e40:	f9b7 1008 	ldrsh.w	r1, [r7, #8]
 8001e44:	6f3a      	ldr	r2, [r7, #112]	; 0x70
 8001e46:	1a8a      	subs	r2, r1, r2
 8001e48:	f8d7 10b0 	ldr.w	r1, [r7, #176]	; 0xb0
 8001e4c:	b289      	uxth	r1, r1
 8001e4e:	f823 1012 	strh.w	r1, [r3, r2, lsl #1]
			}
	}
	// ak objekt je opacny N
	else if (cisloTvaru == 6){
		for(int i=0;i<12;i++)
			for(int j=0;j<18;j++){
 8001e52:	6f3b      	ldr	r3, [r7, #112]	; 0x70
 8001e54:	3301      	adds	r3, #1
 8001e56:	673b      	str	r3, [r7, #112]	; 0x70
 8001e58:	6f3b      	ldr	r3, [r7, #112]	; 0x70
 8001e5a:	2b11      	cmp	r3, #17
 8001e5c:	ddb1      	ble.n	8001dc2 <createDeleteBlock+0x39e>
				}
			}
	}
	// ak objekt je opacny N
	else if (cisloTvaru == 6){
		for(int i=0;i<12;i++)
 8001e5e:	6f7b      	ldr	r3, [r7, #116]	; 0x74
 8001e60:	3301      	adds	r3, #1
 8001e62:	677b      	str	r3, [r7, #116]	; 0x74
 8001e64:	6f7b      	ldr	r3, [r7, #116]	; 0x74
 8001e66:	2b0b      	cmp	r3, #11
 8001e68:	dda8      	ble.n	8001dbc <createDeleteBlock+0x398>
					if (j>5 && i<6)
						matrix[x0+i][y0-j]=volba;
				}
			}
	}
}
 8001e6a:	e346      	b.n	80024fa <createDeleteBlock+0xad6>
						matrix[x0+i][y0-j]=volba;
				}
			}
	}
	// ak objekt je L
	else if (cisloTvaru == 7){
 8001e6c:	687b      	ldr	r3, [r7, #4]
 8001e6e:	2b07      	cmp	r3, #7
 8001e70:	d141      	bne.n	8001ef6 <createDeleteBlock+0x4d2>
		for(int i=0;i<12;i++)
 8001e72:	2300      	movs	r3, #0
 8001e74:	66fb      	str	r3, [r7, #108]	; 0x6c
 8001e76:	e03a      	b.n	8001eee <createDeleteBlock+0x4ca>
			for(int j=0;j<18;j++){
 8001e78:	2300      	movs	r3, #0
 8001e7a:	66bb      	str	r3, [r7, #104]	; 0x68
 8001e7c:	e031      	b.n	8001ee2 <createDeleteBlock+0x4be>
				if (y0-j>1){
 8001e7e:	f9b7 2008 	ldrsh.w	r2, [r7, #8]
 8001e82:	6ebb      	ldr	r3, [r7, #104]	; 0x68
 8001e84:	1ad3      	subs	r3, r2, r3
 8001e86:	2b01      	cmp	r3, #1
 8001e88:	dd28      	ble.n	8001edc <createDeleteBlock+0x4b8>
					if (j>5 && i<6)
 8001e8a:	6ebb      	ldr	r3, [r7, #104]	; 0x68
 8001e8c:	2b05      	cmp	r3, #5
 8001e8e:	dd12      	ble.n	8001eb6 <createDeleteBlock+0x492>
 8001e90:	6efb      	ldr	r3, [r7, #108]	; 0x6c
 8001e92:	2b05      	cmp	r3, #5
 8001e94:	dc0f      	bgt.n	8001eb6 <createDeleteBlock+0x492>
						matrix[x0+i][y0-j]=volba;
 8001e96:	f9b7 200a 	ldrsh.w	r2, [r7, #10]
 8001e9a:	6efb      	ldr	r3, [r7, #108]	; 0x6c
 8001e9c:	4413      	add	r3, r2
 8001e9e:	021b      	lsls	r3, r3, #8
 8001ea0:	68fa      	ldr	r2, [r7, #12]
 8001ea2:	4413      	add	r3, r2
 8001ea4:	f9b7 1008 	ldrsh.w	r1, [r7, #8]
 8001ea8:	6eba      	ldr	r2, [r7, #104]	; 0x68
 8001eaa:	1a8a      	subs	r2, r1, r2
 8001eac:	f8d7 10b0 	ldr.w	r1, [r7, #176]	; 0xb0
 8001eb0:	b289      	uxth	r1, r1
 8001eb2:	f823 1012 	strh.w	r1, [r3, r2, lsl #1]
					if (j<6)
 8001eb6:	6ebb      	ldr	r3, [r7, #104]	; 0x68
 8001eb8:	2b05      	cmp	r3, #5
 8001eba:	dc0f      	bgt.n	8001edc <createDeleteBlock+0x4b8>
						matrix[x0+i][y0-j]=volba;
 8001ebc:	f9b7 200a 	ldrsh.w	r2, [r7, #10]
 8001ec0:	6efb      	ldr	r3, [r7, #108]	; 0x6c
 8001ec2:	4413      	add	r3, r2
 8001ec4:	021b      	lsls	r3, r3, #8
 8001ec6:	68fa      	ldr	r2, [r7, #12]
 8001ec8:	4413      	add	r3, r2
 8001eca:	f9b7 1008 	ldrsh.w	r1, [r7, #8]
 8001ece:	6eba      	ldr	r2, [r7, #104]	; 0x68
 8001ed0:	1a8a      	subs	r2, r1, r2
 8001ed2:	f8d7 10b0 	ldr.w	r1, [r7, #176]	; 0xb0
 8001ed6:	b289      	uxth	r1, r1
 8001ed8:	f823 1012 	strh.w	r1, [r3, r2, lsl #1]
			}
	}
	// ak objekt je L
	else if (cisloTvaru == 7){
		for(int i=0;i<12;i++)
			for(int j=0;j<18;j++){
 8001edc:	6ebb      	ldr	r3, [r7, #104]	; 0x68
 8001ede:	3301      	adds	r3, #1
 8001ee0:	66bb      	str	r3, [r7, #104]	; 0x68
 8001ee2:	6ebb      	ldr	r3, [r7, #104]	; 0x68
 8001ee4:	2b11      	cmp	r3, #17
 8001ee6:	ddca      	ble.n	8001e7e <createDeleteBlock+0x45a>
				}
			}
	}
	// ak objekt je L
	else if (cisloTvaru == 7){
		for(int i=0;i<12;i++)
 8001ee8:	6efb      	ldr	r3, [r7, #108]	; 0x6c
 8001eea:	3301      	adds	r3, #1
 8001eec:	66fb      	str	r3, [r7, #108]	; 0x6c
 8001eee:	6efb      	ldr	r3, [r7, #108]	; 0x6c
 8001ef0:	2b0b      	cmp	r3, #11
 8001ef2:	ddc1      	ble.n	8001e78 <createDeleteBlock+0x454>
					if (j>5 && i<6)
						matrix[x0+i][y0-j]=volba;
				}
			}
	}
}
 8001ef4:	e301      	b.n	80024fa <createDeleteBlock+0xad6>
						matrix[x0+i][y0-j]=volba;
				}
			}
	}
	// ak objekt je _.
	else if (cisloTvaru == 8){
 8001ef6:	687b      	ldr	r3, [r7, #4]
 8001ef8:	2b08      	cmp	r3, #8
 8001efa:	d141      	bne.n	8001f80 <createDeleteBlock+0x55c>
		for(int i=0;i<18;i++)
 8001efc:	2300      	movs	r3, #0
 8001efe:	667b      	str	r3, [r7, #100]	; 0x64
 8001f00:	e03a      	b.n	8001f78 <createDeleteBlock+0x554>
			for(int j=0;j<12;j++){
 8001f02:	2300      	movs	r3, #0
 8001f04:	663b      	str	r3, [r7, #96]	; 0x60
 8001f06:	e031      	b.n	8001f6c <createDeleteBlock+0x548>
				if (y0-j>1){
 8001f08:	f9b7 2008 	ldrsh.w	r2, [r7, #8]
 8001f0c:	6e3b      	ldr	r3, [r7, #96]	; 0x60
 8001f0e:	1ad3      	subs	r3, r2, r3
 8001f10:	2b01      	cmp	r3, #1
 8001f12:	dd28      	ble.n	8001f66 <createDeleteBlock+0x542>
					if (j<6)
 8001f14:	6e3b      	ldr	r3, [r7, #96]	; 0x60
 8001f16:	2b05      	cmp	r3, #5
 8001f18:	dc0f      	bgt.n	8001f3a <createDeleteBlock+0x516>
						matrix[x0+i][y0-j]=volba;
 8001f1a:	f9b7 200a 	ldrsh.w	r2, [r7, #10]
 8001f1e:	6e7b      	ldr	r3, [r7, #100]	; 0x64
 8001f20:	4413      	add	r3, r2
 8001f22:	021b      	lsls	r3, r3, #8
 8001f24:	68fa      	ldr	r2, [r7, #12]
 8001f26:	4413      	add	r3, r2
 8001f28:	f9b7 1008 	ldrsh.w	r1, [r7, #8]
 8001f2c:	6e3a      	ldr	r2, [r7, #96]	; 0x60
 8001f2e:	1a8a      	subs	r2, r1, r2
 8001f30:	f8d7 10b0 	ldr.w	r1, [r7, #176]	; 0xb0
 8001f34:	b289      	uxth	r1, r1
 8001f36:	f823 1012 	strh.w	r1, [r3, r2, lsl #1]
					if (j>5 && i>11)
 8001f3a:	6e3b      	ldr	r3, [r7, #96]	; 0x60
 8001f3c:	2b05      	cmp	r3, #5
 8001f3e:	dd12      	ble.n	8001f66 <createDeleteBlock+0x542>
 8001f40:	6e7b      	ldr	r3, [r7, #100]	; 0x64
 8001f42:	2b0b      	cmp	r3, #11
 8001f44:	dd0f      	ble.n	8001f66 <createDeleteBlock+0x542>
						matrix[x0+i][y0-j]=volba;
 8001f46:	f9b7 200a 	ldrsh.w	r2, [r7, #10]
 8001f4a:	6e7b      	ldr	r3, [r7, #100]	; 0x64
 8001f4c:	4413      	add	r3, r2
 8001f4e:	021b      	lsls	r3, r3, #8
 8001f50:	68fa      	ldr	r2, [r7, #12]
 8001f52:	4413      	add	r3, r2
 8001f54:	f9b7 1008 	ldrsh.w	r1, [r7, #8]
 8001f58:	6e3a      	ldr	r2, [r7, #96]	; 0x60
 8001f5a:	1a8a      	subs	r2, r1, r2
 8001f5c:	f8d7 10b0 	ldr.w	r1, [r7, #176]	; 0xb0
 8001f60:	b289      	uxth	r1, r1
 8001f62:	f823 1012 	strh.w	r1, [r3, r2, lsl #1]
			}
	}
	// ak objekt je _.
	else if (cisloTvaru == 8){
		for(int i=0;i<18;i++)
			for(int j=0;j<12;j++){
 8001f66:	6e3b      	ldr	r3, [r7, #96]	; 0x60
 8001f68:	3301      	adds	r3, #1
 8001f6a:	663b      	str	r3, [r7, #96]	; 0x60
 8001f6c:	6e3b      	ldr	r3, [r7, #96]	; 0x60
 8001f6e:	2b0b      	cmp	r3, #11
 8001f70:	ddca      	ble.n	8001f08 <createDeleteBlock+0x4e4>
				}
			}
	}
	// ak objekt je _.
	else if (cisloTvaru == 8){
		for(int i=0;i<18;i++)
 8001f72:	6e7b      	ldr	r3, [r7, #100]	; 0x64
 8001f74:	3301      	adds	r3, #1
 8001f76:	667b      	str	r3, [r7, #100]	; 0x64
 8001f78:	6e7b      	ldr	r3, [r7, #100]	; 0x64
 8001f7a:	2b11      	cmp	r3, #17
 8001f7c:	ddc1      	ble.n	8001f02 <createDeleteBlock+0x4de>
					if (j>5 && i<6)
						matrix[x0+i][y0-j]=volba;
				}
			}
	}
}
 8001f7e:	e2bc      	b.n	80024fa <createDeleteBlock+0xad6>
						matrix[x0+i][y0-j]=volba;
				}
			}
	}
	// ak objekt je '|
	else if (cisloTvaru == 9){
 8001f80:	687b      	ldr	r3, [r7, #4]
 8001f82:	2b09      	cmp	r3, #9
 8001f84:	d141      	bne.n	800200a <createDeleteBlock+0x5e6>
		for(int i=0;i<12;i++)
 8001f86:	2300      	movs	r3, #0
 8001f88:	65fb      	str	r3, [r7, #92]	; 0x5c
 8001f8a:	e03a      	b.n	8002002 <createDeleteBlock+0x5de>
			for(int j=0;j<18;j++){
 8001f8c:	2300      	movs	r3, #0
 8001f8e:	65bb      	str	r3, [r7, #88]	; 0x58
 8001f90:	e031      	b.n	8001ff6 <createDeleteBlock+0x5d2>
				if (y0-j>1){
 8001f92:	f9b7 2008 	ldrsh.w	r2, [r7, #8]
 8001f96:	6dbb      	ldr	r3, [r7, #88]	; 0x58
 8001f98:	1ad3      	subs	r3, r2, r3
 8001f9a:	2b01      	cmp	r3, #1
 8001f9c:	dd28      	ble.n	8001ff0 <createDeleteBlock+0x5cc>
					if (j<12 && i>5)
 8001f9e:	6dbb      	ldr	r3, [r7, #88]	; 0x58
 8001fa0:	2b0b      	cmp	r3, #11
 8001fa2:	dc12      	bgt.n	8001fca <createDeleteBlock+0x5a6>
 8001fa4:	6dfb      	ldr	r3, [r7, #92]	; 0x5c
 8001fa6:	2b05      	cmp	r3, #5
 8001fa8:	dd0f      	ble.n	8001fca <createDeleteBlock+0x5a6>
						matrix[x0+i][y0-j]=volba;
 8001faa:	f9b7 200a 	ldrsh.w	r2, [r7, #10]
 8001fae:	6dfb      	ldr	r3, [r7, #92]	; 0x5c
 8001fb0:	4413      	add	r3, r2
 8001fb2:	021b      	lsls	r3, r3, #8
 8001fb4:	68fa      	ldr	r2, [r7, #12]
 8001fb6:	4413      	add	r3, r2
 8001fb8:	f9b7 1008 	ldrsh.w	r1, [r7, #8]
 8001fbc:	6dba      	ldr	r2, [r7, #88]	; 0x58
 8001fbe:	1a8a      	subs	r2, r1, r2
 8001fc0:	f8d7 10b0 	ldr.w	r1, [r7, #176]	; 0xb0
 8001fc4:	b289      	uxth	r1, r1
 8001fc6:	f823 1012 	strh.w	r1, [r3, r2, lsl #1]
					if (j>11)
 8001fca:	6dbb      	ldr	r3, [r7, #88]	; 0x58
 8001fcc:	2b0b      	cmp	r3, #11
 8001fce:	dd0f      	ble.n	8001ff0 <createDeleteBlock+0x5cc>
						matrix[x0+i][y0-j]=volba;
 8001fd0:	f9b7 200a 	ldrsh.w	r2, [r7, #10]
 8001fd4:	6dfb      	ldr	r3, [r7, #92]	; 0x5c
 8001fd6:	4413      	add	r3, r2
 8001fd8:	021b      	lsls	r3, r3, #8
 8001fda:	68fa      	ldr	r2, [r7, #12]
 8001fdc:	4413      	add	r3, r2
 8001fde:	f9b7 1008 	ldrsh.w	r1, [r7, #8]
 8001fe2:	6dba      	ldr	r2, [r7, #88]	; 0x58
 8001fe4:	1a8a      	subs	r2, r1, r2
 8001fe6:	f8d7 10b0 	ldr.w	r1, [r7, #176]	; 0xb0
 8001fea:	b289      	uxth	r1, r1
 8001fec:	f823 1012 	strh.w	r1, [r3, r2, lsl #1]
			}
	}
	// ak objekt je '|
	else if (cisloTvaru == 9){
		for(int i=0;i<12;i++)
			for(int j=0;j<18;j++){
 8001ff0:	6dbb      	ldr	r3, [r7, #88]	; 0x58
 8001ff2:	3301      	adds	r3, #1
 8001ff4:	65bb      	str	r3, [r7, #88]	; 0x58
 8001ff6:	6dbb      	ldr	r3, [r7, #88]	; 0x58
 8001ff8:	2b11      	cmp	r3, #17
 8001ffa:	ddca      	ble.n	8001f92 <createDeleteBlock+0x56e>
				}
			}
	}
	// ak objekt je '|
	else if (cisloTvaru == 9){
		for(int i=0;i<12;i++)
 8001ffc:	6dfb      	ldr	r3, [r7, #92]	; 0x5c
 8001ffe:	3301      	adds	r3, #1
 8002000:	65fb      	str	r3, [r7, #92]	; 0x5c
 8002002:	6dfb      	ldr	r3, [r7, #92]	; 0x5c
 8002004:	2b0b      	cmp	r3, #11
 8002006:	ddc1      	ble.n	8001f8c <createDeleteBlock+0x568>
					if (j>5 && i<6)
						matrix[x0+i][y0-j]=volba;
				}
			}
	}
}
 8002008:	e277      	b.n	80024fa <createDeleteBlock+0xad6>
						matrix[x0+i][y0-j]=volba;
				}
			}
	}
	// ak objekt je ,..
	else if (cisloTvaru == 10){
 800200a:	687b      	ldr	r3, [r7, #4]
 800200c:	2b0a      	cmp	r3, #10
 800200e:	d141      	bne.n	8002094 <createDeleteBlock+0x670>
		for(int i=0;i<18;i++)
 8002010:	2300      	movs	r3, #0
 8002012:	657b      	str	r3, [r7, #84]	; 0x54
 8002014:	e03a      	b.n	800208c <createDeleteBlock+0x668>
			for(int j=0;j<12;j++){
 8002016:	2300      	movs	r3, #0
 8002018:	653b      	str	r3, [r7, #80]	; 0x50
 800201a:	e031      	b.n	8002080 <createDeleteBlock+0x65c>
				if (y0-j>1){
 800201c:	f9b7 2008 	ldrsh.w	r2, [r7, #8]
 8002020:	6d3b      	ldr	r3, [r7, #80]	; 0x50
 8002022:	1ad3      	subs	r3, r2, r3
 8002024:	2b01      	cmp	r3, #1
 8002026:	dd28      	ble.n	800207a <createDeleteBlock+0x656>
					if (j<6 && i<6)
 8002028:	6d3b      	ldr	r3, [r7, #80]	; 0x50
 800202a:	2b05      	cmp	r3, #5
 800202c:	dc12      	bgt.n	8002054 <createDeleteBlock+0x630>
 800202e:	6d7b      	ldr	r3, [r7, #84]	; 0x54
 8002030:	2b05      	cmp	r3, #5
 8002032:	dc0f      	bgt.n	8002054 <createDeleteBlock+0x630>
						matrix[x0+i][y0-j]=volba;
 8002034:	f9b7 200a 	ldrsh.w	r2, [r7, #10]
 8002038:	6d7b      	ldr	r3, [r7, #84]	; 0x54
 800203a:	4413      	add	r3, r2
 800203c:	021b      	lsls	r3, r3, #8
 800203e:	68fa      	ldr	r2, [r7, #12]
 8002040:	4413      	add	r3, r2
 8002042:	f9b7 1008 	ldrsh.w	r1, [r7, #8]
 8002046:	6d3a      	ldr	r2, [r7, #80]	; 0x50
 8002048:	1a8a      	subs	r2, r1, r2
 800204a:	f8d7 10b0 	ldr.w	r1, [r7, #176]	; 0xb0
 800204e:	b289      	uxth	r1, r1
 8002050:	f823 1012 	strh.w	r1, [r3, r2, lsl #1]
					if (j>5)
 8002054:	6d3b      	ldr	r3, [r7, #80]	; 0x50
 8002056:	2b05      	cmp	r3, #5
 8002058:	dd0f      	ble.n	800207a <createDeleteBlock+0x656>
						matrix[x0+i][y0-j]=volba;
 800205a:	f9b7 200a 	ldrsh.w	r2, [r7, #10]
 800205e:	6d7b      	ldr	r3, [r7, #84]	; 0x54
 8002060:	4413      	add	r3, r2
 8002062:	021b      	lsls	r3, r3, #8
 8002064:	68fa      	ldr	r2, [r7, #12]
 8002066:	4413      	add	r3, r2
 8002068:	f9b7 1008 	ldrsh.w	r1, [r7, #8]
 800206c:	6d3a      	ldr	r2, [r7, #80]	; 0x50
 800206e:	1a8a      	subs	r2, r1, r2
 8002070:	f8d7 10b0 	ldr.w	r1, [r7, #176]	; 0xb0
 8002074:	b289      	uxth	r1, r1
 8002076:	f823 1012 	strh.w	r1, [r3, r2, lsl #1]
			}
	}
	// ak objekt je ,..
	else if (cisloTvaru == 10){
		for(int i=0;i<18;i++)
			for(int j=0;j<12;j++){
 800207a:	6d3b      	ldr	r3, [r7, #80]	; 0x50
 800207c:	3301      	adds	r3, #1
 800207e:	653b      	str	r3, [r7, #80]	; 0x50
 8002080:	6d3b      	ldr	r3, [r7, #80]	; 0x50
 8002082:	2b0b      	cmp	r3, #11
 8002084:	ddca      	ble.n	800201c <createDeleteBlock+0x5f8>
				}
			}
	}
	// ak objekt je ,..
	else if (cisloTvaru == 10){
		for(int i=0;i<18;i++)
 8002086:	6d7b      	ldr	r3, [r7, #84]	; 0x54
 8002088:	3301      	adds	r3, #1
 800208a:	657b      	str	r3, [r7, #84]	; 0x54
 800208c:	6d7b      	ldr	r3, [r7, #84]	; 0x54
 800208e:	2b11      	cmp	r3, #17
 8002090:	ddc1      	ble.n	8002016 <createDeleteBlock+0x5f2>
					if (j>5 && i<6)
						matrix[x0+i][y0-j]=volba;
				}
			}
	}
}
 8002092:	e232      	b.n	80024fa <createDeleteBlock+0xad6>
						matrix[x0+i][y0-j]=volba;
				}
			}
	}
	// ak objekt je _._
	else if (cisloTvaru == 11){
 8002094:	687b      	ldr	r3, [r7, #4]
 8002096:	2b0b      	cmp	r3, #11
 8002098:	d144      	bne.n	8002124 <createDeleteBlock+0x700>
		for(int i=0;i<18;i++)
 800209a:	2300      	movs	r3, #0
 800209c:	64fb      	str	r3, [r7, #76]	; 0x4c
 800209e:	e03d      	b.n	800211c <createDeleteBlock+0x6f8>
			for(int j=0;j<12;j++){
 80020a0:	2300      	movs	r3, #0
 80020a2:	64bb      	str	r3, [r7, #72]	; 0x48
 80020a4:	e034      	b.n	8002110 <createDeleteBlock+0x6ec>
				if (y0-j>1){
 80020a6:	f9b7 2008 	ldrsh.w	r2, [r7, #8]
 80020aa:	6cbb      	ldr	r3, [r7, #72]	; 0x48
 80020ac:	1ad3      	subs	r3, r2, r3
 80020ae:	2b01      	cmp	r3, #1
 80020b0:	dd2b      	ble.n	800210a <createDeleteBlock+0x6e6>
					if (j<6)
 80020b2:	6cbb      	ldr	r3, [r7, #72]	; 0x48
 80020b4:	2b05      	cmp	r3, #5
 80020b6:	dc0f      	bgt.n	80020d8 <createDeleteBlock+0x6b4>
						matrix[x0+i][y0-j]=volba;
 80020b8:	f9b7 200a 	ldrsh.w	r2, [r7, #10]
 80020bc:	6cfb      	ldr	r3, [r7, #76]	; 0x4c
 80020be:	4413      	add	r3, r2
 80020c0:	021b      	lsls	r3, r3, #8
 80020c2:	68fa      	ldr	r2, [r7, #12]
 80020c4:	4413      	add	r3, r2
 80020c6:	f9b7 1008 	ldrsh.w	r1, [r7, #8]
 80020ca:	6cba      	ldr	r2, [r7, #72]	; 0x48
 80020cc:	1a8a      	subs	r2, r1, r2
 80020ce:	f8d7 10b0 	ldr.w	r1, [r7, #176]	; 0xb0
 80020d2:	b289      	uxth	r1, r1
 80020d4:	f823 1012 	strh.w	r1, [r3, r2, lsl #1]
					if (j>5 && (i>5 && i<12))
 80020d8:	6cbb      	ldr	r3, [r7, #72]	; 0x48
 80020da:	2b05      	cmp	r3, #5
 80020dc:	dd15      	ble.n	800210a <createDeleteBlock+0x6e6>
 80020de:	6cfb      	ldr	r3, [r7, #76]	; 0x4c
 80020e0:	2b05      	cmp	r3, #5
 80020e2:	dd12      	ble.n	800210a <createDeleteBlock+0x6e6>
 80020e4:	6cfb      	ldr	r3, [r7, #76]	; 0x4c
 80020e6:	2b0b      	cmp	r3, #11
 80020e8:	dc0f      	bgt.n	800210a <createDeleteBlock+0x6e6>
						matrix[x0+i][y0-j]=volba;
 80020ea:	f9b7 200a 	ldrsh.w	r2, [r7, #10]
 80020ee:	6cfb      	ldr	r3, [r7, #76]	; 0x4c
 80020f0:	4413      	add	r3, r2
 80020f2:	021b      	lsls	r3, r3, #8
 80020f4:	68fa      	ldr	r2, [r7, #12]
 80020f6:	4413      	add	r3, r2
 80020f8:	f9b7 1008 	ldrsh.w	r1, [r7, #8]
 80020fc:	6cba      	ldr	r2, [r7, #72]	; 0x48
 80020fe:	1a8a      	subs	r2, r1, r2
 8002100:	f8d7 10b0 	ldr.w	r1, [r7, #176]	; 0xb0
 8002104:	b289      	uxth	r1, r1
 8002106:	f823 1012 	strh.w	r1, [r3, r2, lsl #1]
			}
	}
	// ak objekt je _._
	else if (cisloTvaru == 11){
		for(int i=0;i<18;i++)
			for(int j=0;j<12;j++){
 800210a:	6cbb      	ldr	r3, [r7, #72]	; 0x48
 800210c:	3301      	adds	r3, #1
 800210e:	64bb      	str	r3, [r7, #72]	; 0x48
 8002110:	6cbb      	ldr	r3, [r7, #72]	; 0x48
 8002112:	2b0b      	cmp	r3, #11
 8002114:	ddc7      	ble.n	80020a6 <createDeleteBlock+0x682>
				}
			}
	}
	// ak objekt je _._
	else if (cisloTvaru == 11){
		for(int i=0;i<18;i++)
 8002116:	6cfb      	ldr	r3, [r7, #76]	; 0x4c
 8002118:	3301      	adds	r3, #1
 800211a:	64fb      	str	r3, [r7, #76]	; 0x4c
 800211c:	6cfb      	ldr	r3, [r7, #76]	; 0x4c
 800211e:	2b11      	cmp	r3, #17
 8002120:	ddbe      	ble.n	80020a0 <createDeleteBlock+0x67c>
					if (j>5 && i<6)
						matrix[x0+i][y0-j]=volba;
				}
			}
	}
}
 8002122:	e1ea      	b.n	80024fa <createDeleteBlock+0xad6>
						matrix[x0+i][y0-j]=volba;
				}
			}
	}
	// ak objekt je -|
	else if (cisloTvaru == 12){
 8002124:	687b      	ldr	r3, [r7, #4]
 8002126:	2b0c      	cmp	r3, #12
 8002128:	d144      	bne.n	80021b4 <createDeleteBlock+0x790>
		for(int i=0;i<12;i++)
 800212a:	2300      	movs	r3, #0
 800212c:	647b      	str	r3, [r7, #68]	; 0x44
 800212e:	e03d      	b.n	80021ac <createDeleteBlock+0x788>
			for(int j=0;j<18;j++){
 8002130:	2300      	movs	r3, #0
 8002132:	643b      	str	r3, [r7, #64]	; 0x40
 8002134:	e034      	b.n	80021a0 <createDeleteBlock+0x77c>
				if (y0-j>1){
 8002136:	f9b7 2008 	ldrsh.w	r2, [r7, #8]
 800213a:	6c3b      	ldr	r3, [r7, #64]	; 0x40
 800213c:	1ad3      	subs	r3, r2, r3
 800213e:	2b01      	cmp	r3, #1
 8002140:	dd2b      	ble.n	800219a <createDeleteBlock+0x776>
					if ((j>5 && j<12) && (i<6))
 8002142:	6c3b      	ldr	r3, [r7, #64]	; 0x40
 8002144:	2b05      	cmp	r3, #5
 8002146:	dd15      	ble.n	8002174 <createDeleteBlock+0x750>
 8002148:	6c3b      	ldr	r3, [r7, #64]	; 0x40
 800214a:	2b0b      	cmp	r3, #11
 800214c:	dc12      	bgt.n	8002174 <createDeleteBlock+0x750>
 800214e:	6c7b      	ldr	r3, [r7, #68]	; 0x44
 8002150:	2b05      	cmp	r3, #5
 8002152:	dc0f      	bgt.n	8002174 <createDeleteBlock+0x750>
						matrix[x0+i][y0-j]=volba;
 8002154:	f9b7 200a 	ldrsh.w	r2, [r7, #10]
 8002158:	6c7b      	ldr	r3, [r7, #68]	; 0x44
 800215a:	4413      	add	r3, r2
 800215c:	021b      	lsls	r3, r3, #8
 800215e:	68fa      	ldr	r2, [r7, #12]
 8002160:	4413      	add	r3, r2
 8002162:	f9b7 1008 	ldrsh.w	r1, [r7, #8]
 8002166:	6c3a      	ldr	r2, [r7, #64]	; 0x40
 8002168:	1a8a      	subs	r2, r1, r2
 800216a:	f8d7 10b0 	ldr.w	r1, [r7, #176]	; 0xb0
 800216e:	b289      	uxth	r1, r1
 8002170:	f823 1012 	strh.w	r1, [r3, r2, lsl #1]
					if (i>5)
 8002174:	6c7b      	ldr	r3, [r7, #68]	; 0x44
 8002176:	2b05      	cmp	r3, #5
 8002178:	dd0f      	ble.n	800219a <createDeleteBlock+0x776>
						matrix[x0+i][y0-j]=volba;
 800217a:	f9b7 200a 	ldrsh.w	r2, [r7, #10]
 800217e:	6c7b      	ldr	r3, [r7, #68]	; 0x44
 8002180:	4413      	add	r3, r2
 8002182:	021b      	lsls	r3, r3, #8
 8002184:	68fa      	ldr	r2, [r7, #12]
 8002186:	4413      	add	r3, r2
 8002188:	f9b7 1008 	ldrsh.w	r1, [r7, #8]
 800218c:	6c3a      	ldr	r2, [r7, #64]	; 0x40
 800218e:	1a8a      	subs	r2, r1, r2
 8002190:	f8d7 10b0 	ldr.w	r1, [r7, #176]	; 0xb0
 8002194:	b289      	uxth	r1, r1
 8002196:	f823 1012 	strh.w	r1, [r3, r2, lsl #1]
			}
	}
	// ak objekt je -|
	else if (cisloTvaru == 12){
		for(int i=0;i<12;i++)
			for(int j=0;j<18;j++){
 800219a:	6c3b      	ldr	r3, [r7, #64]	; 0x40
 800219c:	3301      	adds	r3, #1
 800219e:	643b      	str	r3, [r7, #64]	; 0x40
 80021a0:	6c3b      	ldr	r3, [r7, #64]	; 0x40
 80021a2:	2b11      	cmp	r3, #17
 80021a4:	ddc7      	ble.n	8002136 <createDeleteBlock+0x712>
				}
			}
	}
	// ak objekt je -|
	else if (cisloTvaru == 12){
		for(int i=0;i<12;i++)
 80021a6:	6c7b      	ldr	r3, [r7, #68]	; 0x44
 80021a8:	3301      	adds	r3, #1
 80021aa:	647b      	str	r3, [r7, #68]	; 0x44
 80021ac:	6c7b      	ldr	r3, [r7, #68]	; 0x44
 80021ae:	2b0b      	cmp	r3, #11
 80021b0:	ddbe      	ble.n	8002130 <createDeleteBlock+0x70c>
					if (j>5 && i<6)
						matrix[x0+i][y0-j]=volba;
				}
			}
	}
}
 80021b2:	e1a2      	b.n	80024fa <createDeleteBlock+0xad6>
						matrix[x0+i][y0-j]=volba;
				}
			}
	}
	// ak objekt je ..,..
	else if (cisloTvaru == 13){
 80021b4:	687b      	ldr	r3, [r7, #4]
 80021b6:	2b0d      	cmp	r3, #13
 80021b8:	d144      	bne.n	8002244 <createDeleteBlock+0x820>
		for(int i=0;i<18;i++)
 80021ba:	2300      	movs	r3, #0
 80021bc:	63fb      	str	r3, [r7, #60]	; 0x3c
 80021be:	e03d      	b.n	800223c <createDeleteBlock+0x818>
			for(int j=0;j<12;j++){
 80021c0:	2300      	movs	r3, #0
 80021c2:	63bb      	str	r3, [r7, #56]	; 0x38
 80021c4:	e034      	b.n	8002230 <createDeleteBlock+0x80c>
				if (y0-j>1){
 80021c6:	f9b7 2008 	ldrsh.w	r2, [r7, #8]
 80021ca:	6bbb      	ldr	r3, [r7, #56]	; 0x38
 80021cc:	1ad3      	subs	r3, r2, r3
 80021ce:	2b01      	cmp	r3, #1
 80021d0:	dd2b      	ble.n	800222a <createDeleteBlock+0x806>
					if (j<6 && (i>5 && i<12))
 80021d2:	6bbb      	ldr	r3, [r7, #56]	; 0x38
 80021d4:	2b05      	cmp	r3, #5
 80021d6:	dc15      	bgt.n	8002204 <createDeleteBlock+0x7e0>
 80021d8:	6bfb      	ldr	r3, [r7, #60]	; 0x3c
 80021da:	2b05      	cmp	r3, #5
 80021dc:	dd12      	ble.n	8002204 <createDeleteBlock+0x7e0>
 80021de:	6bfb      	ldr	r3, [r7, #60]	; 0x3c
 80021e0:	2b0b      	cmp	r3, #11
 80021e2:	dc0f      	bgt.n	8002204 <createDeleteBlock+0x7e0>
						matrix[x0+i][y0-j]=volba;
 80021e4:	f9b7 200a 	ldrsh.w	r2, [r7, #10]
 80021e8:	6bfb      	ldr	r3, [r7, #60]	; 0x3c
 80021ea:	4413      	add	r3, r2
 80021ec:	021b      	lsls	r3, r3, #8
 80021ee:	68fa      	ldr	r2, [r7, #12]
 80021f0:	4413      	add	r3, r2
 80021f2:	f9b7 1008 	ldrsh.w	r1, [r7, #8]
 80021f6:	6bba      	ldr	r2, [r7, #56]	; 0x38
 80021f8:	1a8a      	subs	r2, r1, r2
 80021fa:	f8d7 10b0 	ldr.w	r1, [r7, #176]	; 0xb0
 80021fe:	b289      	uxth	r1, r1
 8002200:	f823 1012 	strh.w	r1, [r3, r2, lsl #1]
					if (j>5)
 8002204:	6bbb      	ldr	r3, [r7, #56]	; 0x38
 8002206:	2b05      	cmp	r3, #5
 8002208:	dd0f      	ble.n	800222a <createDeleteBlock+0x806>
						matrix[x0+i][y0-j]=volba;
 800220a:	f9b7 200a 	ldrsh.w	r2, [r7, #10]
 800220e:	6bfb      	ldr	r3, [r7, #60]	; 0x3c
 8002210:	4413      	add	r3, r2
 8002212:	021b      	lsls	r3, r3, #8
 8002214:	68fa      	ldr	r2, [r7, #12]
 8002216:	4413      	add	r3, r2
 8002218:	f9b7 1008 	ldrsh.w	r1, [r7, #8]
 800221c:	6bba      	ldr	r2, [r7, #56]	; 0x38
 800221e:	1a8a      	subs	r2, r1, r2
 8002220:	f8d7 10b0 	ldr.w	r1, [r7, #176]	; 0xb0
 8002224:	b289      	uxth	r1, r1
 8002226:	f823 1012 	strh.w	r1, [r3, r2, lsl #1]
			}
	}
	// ak objekt je ..,..
	else if (cisloTvaru == 13){
		for(int i=0;i<18;i++)
			for(int j=0;j<12;j++){
 800222a:	6bbb      	ldr	r3, [r7, #56]	; 0x38
 800222c:	3301      	adds	r3, #1
 800222e:	63bb      	str	r3, [r7, #56]	; 0x38
 8002230:	6bbb      	ldr	r3, [r7, #56]	; 0x38
 8002232:	2b0b      	cmp	r3, #11
 8002234:	ddc7      	ble.n	80021c6 <createDeleteBlock+0x7a2>
				}
			}
	}
	// ak objekt je ..,..
	else if (cisloTvaru == 13){
		for(int i=0;i<18;i++)
 8002236:	6bfb      	ldr	r3, [r7, #60]	; 0x3c
 8002238:	3301      	adds	r3, #1
 800223a:	63fb      	str	r3, [r7, #60]	; 0x3c
 800223c:	6bfb      	ldr	r3, [r7, #60]	; 0x3c
 800223e:	2b11      	cmp	r3, #17
 8002240:	ddbe      	ble.n	80021c0 <createDeleteBlock+0x79c>
					if (j>5 && i<6)
						matrix[x0+i][y0-j]=volba;
				}
			}
	}
}
 8002242:	e15a      	b.n	80024fa <createDeleteBlock+0xad6>
						matrix[x0+i][y0-j]=volba;
				}
			}
	}
	// ak objekt je |-
	else if (cisloTvaru == 14){
 8002244:	687b      	ldr	r3, [r7, #4]
 8002246:	2b0e      	cmp	r3, #14
 8002248:	d144      	bne.n	80022d4 <createDeleteBlock+0x8b0>
		for(int i=0;i<12;i++)
 800224a:	2300      	movs	r3, #0
 800224c:	637b      	str	r3, [r7, #52]	; 0x34
 800224e:	e03d      	b.n	80022cc <createDeleteBlock+0x8a8>
			for(int j=0;j<18;j++){
 8002250:	2300      	movs	r3, #0
 8002252:	633b      	str	r3, [r7, #48]	; 0x30
 8002254:	e034      	b.n	80022c0 <createDeleteBlock+0x89c>
				if (y0-j>1){
 8002256:	f9b7 2008 	ldrsh.w	r2, [r7, #8]
 800225a:	6b3b      	ldr	r3, [r7, #48]	; 0x30
 800225c:	1ad3      	subs	r3, r2, r3
 800225e:	2b01      	cmp	r3, #1
 8002260:	dd2b      	ble.n	80022ba <createDeleteBlock+0x896>
					if (i<6)
 8002262:	6b7b      	ldr	r3, [r7, #52]	; 0x34
 8002264:	2b05      	cmp	r3, #5
 8002266:	dc0f      	bgt.n	8002288 <createDeleteBlock+0x864>
						matrix[x0+i][y0-j]=volba;
 8002268:	f9b7 200a 	ldrsh.w	r2, [r7, #10]
 800226c:	6b7b      	ldr	r3, [r7, #52]	; 0x34
 800226e:	4413      	add	r3, r2
 8002270:	021b      	lsls	r3, r3, #8
 8002272:	68fa      	ldr	r2, [r7, #12]
 8002274:	4413      	add	r3, r2
 8002276:	f9b7 1008 	ldrsh.w	r1, [r7, #8]
 800227a:	6b3a      	ldr	r2, [r7, #48]	; 0x30
 800227c:	1a8a      	subs	r2, r1, r2
 800227e:	f8d7 10b0 	ldr.w	r1, [r7, #176]	; 0xb0
 8002282:	b289      	uxth	r1, r1
 8002284:	f823 1012 	strh.w	r1, [r3, r2, lsl #1]
					if ((j>5 && j<12) && (i>5))
 8002288:	6b3b      	ldr	r3, [r7, #48]	; 0x30
 800228a:	2b05      	cmp	r3, #5
 800228c:	dd15      	ble.n	80022ba <createDeleteBlock+0x896>
 800228e:	6b3b      	ldr	r3, [r7, #48]	; 0x30
 8002290:	2b0b      	cmp	r3, #11
 8002292:	dc12      	bgt.n	80022ba <createDeleteBlock+0x896>
 8002294:	6b7b      	ldr	r3, [r7, #52]	; 0x34
 8002296:	2b05      	cmp	r3, #5
 8002298:	dd0f      	ble.n	80022ba <createDeleteBlock+0x896>
						matrix[x0+i][y0-j]=volba;
 800229a:	f9b7 200a 	ldrsh.w	r2, [r7, #10]
 800229e:	6b7b      	ldr	r3, [r7, #52]	; 0x34
 80022a0:	4413      	add	r3, r2
 80022a2:	021b      	lsls	r3, r3, #8
 80022a4:	68fa      	ldr	r2, [r7, #12]
 80022a6:	4413      	add	r3, r2
 80022a8:	f9b7 1008 	ldrsh.w	r1, [r7, #8]
 80022ac:	6b3a      	ldr	r2, [r7, #48]	; 0x30
 80022ae:	1a8a      	subs	r2, r1, r2
 80022b0:	f8d7 10b0 	ldr.w	r1, [r7, #176]	; 0xb0
 80022b4:	b289      	uxth	r1, r1
 80022b6:	f823 1012 	strh.w	r1, [r3, r2, lsl #1]
			}
	}
	// ak objekt je |-
	else if (cisloTvaru == 14){
		for(int i=0;i<12;i++)
			for(int j=0;j<18;j++){
 80022ba:	6b3b      	ldr	r3, [r7, #48]	; 0x30
 80022bc:	3301      	adds	r3, #1
 80022be:	633b      	str	r3, [r7, #48]	; 0x30
 80022c0:	6b3b      	ldr	r3, [r7, #48]	; 0x30
 80022c2:	2b11      	cmp	r3, #17
 80022c4:	ddc7      	ble.n	8002256 <createDeleteBlock+0x832>
				}
			}
	}
	// ak objekt je |-
	else if (cisloTvaru == 14){
		for(int i=0;i<12;i++)
 80022c6:	6b7b      	ldr	r3, [r7, #52]	; 0x34
 80022c8:	3301      	adds	r3, #1
 80022ca:	637b      	str	r3, [r7, #52]	; 0x34
 80022cc:	6b7b      	ldr	r3, [r7, #52]	; 0x34
 80022ce:	2b0b      	cmp	r3, #11
 80022d0:	ddbe      	ble.n	8002250 <createDeleteBlock+0x82c>
					if (j>5 && i<6)
						matrix[x0+i][y0-j]=volba;
				}
			}
	}
}
 80022d2:	e112      	b.n	80024fa <createDeleteBlock+0xad6>
						matrix[x0+i][y0-j]=volba;
				}
			}
	}
	// ak objekt je opacny L
	else if (cisloTvaru == 15){
 80022d4:	687b      	ldr	r3, [r7, #4]
 80022d6:	2b0f      	cmp	r3, #15
 80022d8:	d141      	bne.n	800235e <createDeleteBlock+0x93a>
		for(int i=0;i<12;i++)
 80022da:	2300      	movs	r3, #0
 80022dc:	62fb      	str	r3, [r7, #44]	; 0x2c
 80022de:	e03a      	b.n	8002356 <createDeleteBlock+0x932>
			for(int j=0;j<18;j++){
 80022e0:	2300      	movs	r3, #0
 80022e2:	62bb      	str	r3, [r7, #40]	; 0x28
 80022e4:	e031      	b.n	800234a <createDeleteBlock+0x926>
				if (y0-j>1){
 80022e6:	f9b7 2008 	ldrsh.w	r2, [r7, #8]
 80022ea:	6abb      	ldr	r3, [r7, #40]	; 0x28
 80022ec:	1ad3      	subs	r3, r2, r3
 80022ee:	2b01      	cmp	r3, #1
 80022f0:	dd28      	ble.n	8002344 <createDeleteBlock+0x920>
					if (j<6)
 80022f2:	6abb      	ldr	r3, [r7, #40]	; 0x28
 80022f4:	2b05      	cmp	r3, #5
 80022f6:	dc0f      	bgt.n	8002318 <createDeleteBlock+0x8f4>
						matrix[x0+i][y0-j]=volba;
 80022f8:	f9b7 200a 	ldrsh.w	r2, [r7, #10]
 80022fc:	6afb      	ldr	r3, [r7, #44]	; 0x2c
 80022fe:	4413      	add	r3, r2
 8002300:	021b      	lsls	r3, r3, #8
 8002302:	68fa      	ldr	r2, [r7, #12]
 8002304:	4413      	add	r3, r2
 8002306:	f9b7 1008 	ldrsh.w	r1, [r7, #8]
 800230a:	6aba      	ldr	r2, [r7, #40]	; 0x28
 800230c:	1a8a      	subs	r2, r1, r2
 800230e:	f8d7 10b0 	ldr.w	r1, [r7, #176]	; 0xb0
 8002312:	b289      	uxth	r1, r1
 8002314:	f823 1012 	strh.w	r1, [r3, r2, lsl #1]
					if (j>5 && i>5)
 8002318:	6abb      	ldr	r3, [r7, #40]	; 0x28
 800231a:	2b05      	cmp	r3, #5
 800231c:	dd12      	ble.n	8002344 <createDeleteBlock+0x920>
 800231e:	6afb      	ldr	r3, [r7, #44]	; 0x2c
 8002320:	2b05      	cmp	r3, #5
 8002322:	dd0f      	ble.n	8002344 <createDeleteBlock+0x920>
						matrix[x0+i][y0-j]=volba;
 8002324:	f9b7 200a 	ldrsh.w	r2, [r7, #10]
 8002328:	6afb      	ldr	r3, [r7, #44]	; 0x2c
 800232a:	4413      	add	r3, r2
 800232c:	021b      	lsls	r3, r3, #8
 800232e:	68fa      	ldr	r2, [r7, #12]
 8002330:	4413      	add	r3, r2
 8002332:	f9b7 1008 	ldrsh.w	r1, [r7, #8]
 8002336:	6aba      	ldr	r2, [r7, #40]	; 0x28
 8002338:	1a8a      	subs	r2, r1, r2
 800233a:	f8d7 10b0 	ldr.w	r1, [r7, #176]	; 0xb0
 800233e:	b289      	uxth	r1, r1
 8002340:	f823 1012 	strh.w	r1, [r3, r2, lsl #1]
			}
	}
	// ak objekt je opacny L
	else if (cisloTvaru == 15){
		for(int i=0;i<12;i++)
			for(int j=0;j<18;j++){
 8002344:	6abb      	ldr	r3, [r7, #40]	; 0x28
 8002346:	3301      	adds	r3, #1
 8002348:	62bb      	str	r3, [r7, #40]	; 0x28
 800234a:	6abb      	ldr	r3, [r7, #40]	; 0x28
 800234c:	2b11      	cmp	r3, #17
 800234e:	ddca      	ble.n	80022e6 <createDeleteBlock+0x8c2>
				}
			}
	}
	// ak objekt je opacny L
	else if (cisloTvaru == 15){
		for(int i=0;i<12;i++)
 8002350:	6afb      	ldr	r3, [r7, #44]	; 0x2c
 8002352:	3301      	adds	r3, #1
 8002354:	62fb      	str	r3, [r7, #44]	; 0x2c
 8002356:	6afb      	ldr	r3, [r7, #44]	; 0x2c
 8002358:	2b0b      	cmp	r3, #11
 800235a:	ddc1      	ble.n	80022e0 <createDeleteBlock+0x8bc>
					if (j>5 && i<6)
						matrix[x0+i][y0-j]=volba;
				}
			}
	}
}
 800235c:	e0cd      	b.n	80024fa <createDeleteBlock+0xad6>
						matrix[x0+i][y0-j]=volba;
				}
			}
	}
	// ak objekt je ..,
	else if (cisloTvaru == 16){
 800235e:	687b      	ldr	r3, [r7, #4]
 8002360:	2b10      	cmp	r3, #16
 8002362:	d141      	bne.n	80023e8 <createDeleteBlock+0x9c4>
		for(int i=0;i<18;i++)
 8002364:	2300      	movs	r3, #0
 8002366:	627b      	str	r3, [r7, #36]	; 0x24
 8002368:	e03a      	b.n	80023e0 <createDeleteBlock+0x9bc>
			for(int j=0;j<12;j++){
 800236a:	2300      	movs	r3, #0
 800236c:	623b      	str	r3, [r7, #32]
 800236e:	e031      	b.n	80023d4 <createDeleteBlock+0x9b0>
				if (y0-j>1){
 8002370:	f9b7 2008 	ldrsh.w	r2, [r7, #8]
 8002374:	6a3b      	ldr	r3, [r7, #32]
 8002376:	1ad3      	subs	r3, r2, r3
 8002378:	2b01      	cmp	r3, #1
 800237a:	dd28      	ble.n	80023ce <createDeleteBlock+0x9aa>
					if (j<6 && i>11)
 800237c:	6a3b      	ldr	r3, [r7, #32]
 800237e:	2b05      	cmp	r3, #5
 8002380:	dc12      	bgt.n	80023a8 <createDeleteBlock+0x984>
 8002382:	6a7b      	ldr	r3, [r7, #36]	; 0x24
 8002384:	2b0b      	cmp	r3, #11
 8002386:	dd0f      	ble.n	80023a8 <createDeleteBlock+0x984>
						matrix[x0+i][y0-j]=volba;
 8002388:	f9b7 200a 	ldrsh.w	r2, [r7, #10]
 800238c:	6a7b      	ldr	r3, [r7, #36]	; 0x24
 800238e:	4413      	add	r3, r2
 8002390:	021b      	lsls	r3, r3, #8
 8002392:	68fa      	ldr	r2, [r7, #12]
 8002394:	4413      	add	r3, r2
 8002396:	f9b7 1008 	ldrsh.w	r1, [r7, #8]
 800239a:	6a3a      	ldr	r2, [r7, #32]
 800239c:	1a8a      	subs	r2, r1, r2
 800239e:	f8d7 10b0 	ldr.w	r1, [r7, #176]	; 0xb0
 80023a2:	b289      	uxth	r1, r1
 80023a4:	f823 1012 	strh.w	r1, [r3, r2, lsl #1]
					if (j>5)
 80023a8:	6a3b      	ldr	r3, [r7, #32]
 80023aa:	2b05      	cmp	r3, #5
 80023ac:	dd0f      	ble.n	80023ce <createDeleteBlock+0x9aa>
						matrix[x0+i][y0-j]=volba;
 80023ae:	f9b7 200a 	ldrsh.w	r2, [r7, #10]
 80023b2:	6a7b      	ldr	r3, [r7, #36]	; 0x24
 80023b4:	4413      	add	r3, r2
 80023b6:	021b      	lsls	r3, r3, #8
 80023b8:	68fa      	ldr	r2, [r7, #12]
 80023ba:	4413      	add	r3, r2
 80023bc:	f9b7 1008 	ldrsh.w	r1, [r7, #8]
 80023c0:	6a3a      	ldr	r2, [r7, #32]
 80023c2:	1a8a      	subs	r2, r1, r2
 80023c4:	f8d7 10b0 	ldr.w	r1, [r7, #176]	; 0xb0
 80023c8:	b289      	uxth	r1, r1
 80023ca:	f823 1012 	strh.w	r1, [r3, r2, lsl #1]
			}
	}
	// ak objekt je ..,
	else if (cisloTvaru == 16){
		for(int i=0;i<18;i++)
			for(int j=0;j<12;j++){
 80023ce:	6a3b      	ldr	r3, [r7, #32]
 80023d0:	3301      	adds	r3, #1
 80023d2:	623b      	str	r3, [r7, #32]
 80023d4:	6a3b      	ldr	r3, [r7, #32]
 80023d6:	2b0b      	cmp	r3, #11
 80023d8:	ddca      	ble.n	8002370 <createDeleteBlock+0x94c>
				}
			}
	}
	// ak objekt je ..,
	else if (cisloTvaru == 16){
		for(int i=0;i<18;i++)
 80023da:	6a7b      	ldr	r3, [r7, #36]	; 0x24
 80023dc:	3301      	adds	r3, #1
 80023de:	627b      	str	r3, [r7, #36]	; 0x24
 80023e0:	6a7b      	ldr	r3, [r7, #36]	; 0x24
 80023e2:	2b11      	cmp	r3, #17
 80023e4:	ddc1      	ble.n	800236a <createDeleteBlock+0x946>
					if (j>5 && i<6)
						matrix[x0+i][y0-j]=volba;
				}
			}
	}
}
 80023e6:	e088      	b.n	80024fa <createDeleteBlock+0xad6>
						matrix[x0+i][y0-j]=volba;
				}
			}
	}
	// ak objekt je |'
	else if (cisloTvaru == 17){
 80023e8:	687b      	ldr	r3, [r7, #4]
 80023ea:	2b11      	cmp	r3, #17
 80023ec:	d141      	bne.n	8002472 <createDeleteBlock+0xa4e>
		for(int i=0;i<12;i++)
 80023ee:	2300      	movs	r3, #0
 80023f0:	61fb      	str	r3, [r7, #28]
 80023f2:	e03a      	b.n	800246a <createDeleteBlock+0xa46>
			for(int j=0;j<18;j++){
 80023f4:	2300      	movs	r3, #0
 80023f6:	61bb      	str	r3, [r7, #24]
 80023f8:	e031      	b.n	800245e <createDeleteBlock+0xa3a>
				if (y0-j>1){
 80023fa:	f9b7 2008 	ldrsh.w	r2, [r7, #8]
 80023fe:	69bb      	ldr	r3, [r7, #24]
 8002400:	1ad3      	subs	r3, r2, r3
 8002402:	2b01      	cmp	r3, #1
 8002404:	dd28      	ble.n	8002458 <createDeleteBlock+0xa34>
					if (j<12 && i<6)
 8002406:	69bb      	ldr	r3, [r7, #24]
 8002408:	2b0b      	cmp	r3, #11
 800240a:	dc12      	bgt.n	8002432 <createDeleteBlock+0xa0e>
 800240c:	69fb      	ldr	r3, [r7, #28]
 800240e:	2b05      	cmp	r3, #5
 8002410:	dc0f      	bgt.n	8002432 <createDeleteBlock+0xa0e>
						matrix[x0+i][y0-j]=volba;
 8002412:	f9b7 200a 	ldrsh.w	r2, [r7, #10]
 8002416:	69fb      	ldr	r3, [r7, #28]
 8002418:	4413      	add	r3, r2
 800241a:	021b      	lsls	r3, r3, #8
 800241c:	68fa      	ldr	r2, [r7, #12]
 800241e:	4413      	add	r3, r2
 8002420:	f9b7 1008 	ldrsh.w	r1, [r7, #8]
 8002424:	69ba      	ldr	r2, [r7, #24]
 8002426:	1a8a      	subs	r2, r1, r2
 8002428:	f8d7 10b0 	ldr.w	r1, [r7, #176]	; 0xb0
 800242c:	b289      	uxth	r1, r1
 800242e:	f823 1012 	strh.w	r1, [r3, r2, lsl #1]
					if (j>11)
 8002432:	69bb      	ldr	r3, [r7, #24]
 8002434:	2b0b      	cmp	r3, #11
 8002436:	dd0f      	ble.n	8002458 <createDeleteBlock+0xa34>
						matrix[x0+i][y0-j]=volba;
 8002438:	f9b7 200a 	ldrsh.w	r2, [r7, #10]
 800243c:	69fb      	ldr	r3, [r7, #28]
 800243e:	4413      	add	r3, r2
 8002440:	021b      	lsls	r3, r3, #8
 8002442:	68fa      	ldr	r2, [r7, #12]
 8002444:	4413      	add	r3, r2
 8002446:	f9b7 1008 	ldrsh.w	r1, [r7, #8]
 800244a:	69ba      	ldr	r2, [r7, #24]
 800244c:	1a8a      	subs	r2, r1, r2
 800244e:	f8d7 10b0 	ldr.w	r1, [r7, #176]	; 0xb0
 8002452:	b289      	uxth	r1, r1
 8002454:	f823 1012 	strh.w	r1, [r3, r2, lsl #1]
			}
	}
	// ak objekt je |'
	else if (cisloTvaru == 17){
		for(int i=0;i<12;i++)
			for(int j=0;j<18;j++){
 8002458:	69bb      	ldr	r3, [r7, #24]
 800245a:	3301      	adds	r3, #1
 800245c:	61bb      	str	r3, [r7, #24]
 800245e:	69bb      	ldr	r3, [r7, #24]
 8002460:	2b11      	cmp	r3, #17
 8002462:	ddca      	ble.n	80023fa <createDeleteBlock+0x9d6>
				}
			}
	}
	// ak objekt je |'
	else if (cisloTvaru == 17){
		for(int i=0;i<12;i++)
 8002464:	69fb      	ldr	r3, [r7, #28]
 8002466:	3301      	adds	r3, #1
 8002468:	61fb      	str	r3, [r7, #28]
 800246a:	69fb      	ldr	r3, [r7, #28]
 800246c:	2b0b      	cmp	r3, #11
 800246e:	ddc1      	ble.n	80023f4 <createDeleteBlock+0x9d0>
					if (j>5 && i<6)
						matrix[x0+i][y0-j]=volba;
				}
			}
	}
}
 8002470:	e043      	b.n	80024fa <createDeleteBlock+0xad6>
						matrix[x0+i][y0-j]=volba;
				}
			}
	}
	// ak objekt je _.
	else if (cisloTvaru == 18){
 8002472:	687b      	ldr	r3, [r7, #4]
 8002474:	2b12      	cmp	r3, #18
 8002476:	d140      	bne.n	80024fa <createDeleteBlock+0xad6>
		for(int i=0;i<18;i++)
 8002478:	2300      	movs	r3, #0
 800247a:	617b      	str	r3, [r7, #20]
 800247c:	e03a      	b.n	80024f4 <createDeleteBlock+0xad0>
			for(int j=0;j<12;j++){
 800247e:	2300      	movs	r3, #0
 8002480:	613b      	str	r3, [r7, #16]
 8002482:	e031      	b.n	80024e8 <createDeleteBlock+0xac4>
				if (y0-j>1){
 8002484:	f9b7 2008 	ldrsh.w	r2, [r7, #8]
 8002488:	693b      	ldr	r3, [r7, #16]
 800248a:	1ad3      	subs	r3, r2, r3
 800248c:	2b01      	cmp	r3, #1
 800248e:	dd28      	ble.n	80024e2 <createDeleteBlock+0xabe>
					if (j<6)
 8002490:	693b      	ldr	r3, [r7, #16]
 8002492:	2b05      	cmp	r3, #5
 8002494:	dc0f      	bgt.n	80024b6 <createDeleteBlock+0xa92>
						matrix[x0+i][y0-j]=volba;
 8002496:	f9b7 200a 	ldrsh.w	r2, [r7, #10]
 800249a:	697b      	ldr	r3, [r7, #20]
 800249c:	4413      	add	r3, r2
 800249e:	021b      	lsls	r3, r3, #8
 80024a0:	68fa      	ldr	r2, [r7, #12]
 80024a2:	4413      	add	r3, r2
 80024a4:	f9b7 1008 	ldrsh.w	r1, [r7, #8]
 80024a8:	693a      	ldr	r2, [r7, #16]
 80024aa:	1a8a      	subs	r2, r1, r2
 80024ac:	f8d7 10b0 	ldr.w	r1, [r7, #176]	; 0xb0
 80024b0:	b289      	uxth	r1, r1
 80024b2:	f823 1012 	strh.w	r1, [r3, r2, lsl #1]
					if (j>5 && i<6)
 80024b6:	693b      	ldr	r3, [r7, #16]
 80024b8:	2b05      	cmp	r3, #5
 80024ba:	dd12      	ble.n	80024e2 <createDeleteBlock+0xabe>
 80024bc:	697b      	ldr	r3, [r7, #20]
 80024be:	2b05      	cmp	r3, #5
 80024c0:	dc0f      	bgt.n	80024e2 <createDeleteBlock+0xabe>
						matrix[x0+i][y0-j]=volba;
 80024c2:	f9b7 200a 	ldrsh.w	r2, [r7, #10]
 80024c6:	697b      	ldr	r3, [r7, #20]
 80024c8:	4413      	add	r3, r2
 80024ca:	021b      	lsls	r3, r3, #8
 80024cc:	68fa      	ldr	r2, [r7, #12]
 80024ce:	4413      	add	r3, r2
 80024d0:	f9b7 1008 	ldrsh.w	r1, [r7, #8]
 80024d4:	693a      	ldr	r2, [r7, #16]
 80024d6:	1a8a      	subs	r2, r1, r2
 80024d8:	f8d7 10b0 	ldr.w	r1, [r7, #176]	; 0xb0
 80024dc:	b289      	uxth	r1, r1
 80024de:	f823 1012 	strh.w	r1, [r3, r2, lsl #1]
			}
	}
	// ak objekt je _.
	else if (cisloTvaru == 18){
		for(int i=0;i<18;i++)
			for(int j=0;j<12;j++){
 80024e2:	693b      	ldr	r3, [r7, #16]
 80024e4:	3301      	adds	r3, #1
 80024e6:	613b      	str	r3, [r7, #16]
 80024e8:	693b      	ldr	r3, [r7, #16]
 80024ea:	2b0b      	cmp	r3, #11
 80024ec:	ddca      	ble.n	8002484 <createDeleteBlock+0xa60>
				}
			}
	}
	// ak objekt je _.
	else if (cisloTvaru == 18){
		for(int i=0;i<18;i++)
 80024ee:	697b      	ldr	r3, [r7, #20]
 80024f0:	3301      	adds	r3, #1
 80024f2:	617b      	str	r3, [r7, #20]
 80024f4:	697b      	ldr	r3, [r7, #20]
 80024f6:	2b11      	cmp	r3, #17
 80024f8:	ddc1      	ble.n	800247e <createDeleteBlock+0xa5a>
					if (j>5 && i<6)
						matrix[x0+i][y0-j]=volba;
				}
			}
	}
}
 80024fa:	bf00      	nop
 80024fc:	37ac      	adds	r7, #172	; 0xac
 80024fe:	46bd      	mov	sp, r7
 8002500:	bc80      	pop	{r7}
 8002502:	4770      	bx	lr

08002504 <checkBlockade>:

int checkBlockade(uint16_t matrix[128][128], int16_t x0, int16_t y0, int cisloTvaru){
 8002504:	b480      	push	{r7}
 8002506:	b099      	sub	sp, #100	; 0x64
 8002508:	af00      	add	r7, sp, #0
 800250a:	60f8      	str	r0, [r7, #12]
 800250c:	607b      	str	r3, [r7, #4]
 800250e:	460b      	mov	r3, r1
 8002510:	817b      	strh	r3, [r7, #10]
 8002512:	4613      	mov	r3, r2
 8002514:	813b      	strh	r3, [r7, #8]
	int temp = 0;
 8002516:	2300      	movs	r3, #0
 8002518:	65fb      	str	r3, [r7, #92]	; 0x5c

	// ak objekt je stvorec
	if (cisloTvaru == 0){
 800251a:	687b      	ldr	r3, [r7, #4]
 800251c:	2b00      	cmp	r3, #0
 800251e:	d128      	bne.n	8002572 <checkBlockade+0x6e>
		for (int i = 2; i<10; i++)
 8002520:	2302      	movs	r3, #2
 8002522:	65bb      	str	r3, [r7, #88]	; 0x58
 8002524:	e021      	b.n	800256a <checkBlockade+0x66>
			if (matrix[x0][y0+1]==i || matrix[x0+6][y0+1]==i)
 8002526:	f9b7 300a 	ldrsh.w	r3, [r7, #10]
 800252a:	021b      	lsls	r3, r3, #8
 800252c:	68fa      	ldr	r2, [r7, #12]
 800252e:	4413      	add	r3, r2
 8002530:	f9b7 2008 	ldrsh.w	r2, [r7, #8]
 8002534:	3201      	adds	r2, #1
 8002536:	f833 3012 	ldrh.w	r3, [r3, r2, lsl #1]
 800253a:	461a      	mov	r2, r3
 800253c:	6dbb      	ldr	r3, [r7, #88]	; 0x58
 800253e:	429a      	cmp	r2, r3
 8002540:	d00e      	beq.n	8002560 <checkBlockade+0x5c>
 8002542:	f9b7 300a 	ldrsh.w	r3, [r7, #10]
 8002546:	3306      	adds	r3, #6
 8002548:	021b      	lsls	r3, r3, #8
 800254a:	68fa      	ldr	r2, [r7, #12]
 800254c:	4413      	add	r3, r2
 800254e:	f9b7 2008 	ldrsh.w	r2, [r7, #8]
 8002552:	3201      	adds	r2, #1
 8002554:	f833 3012 	ldrh.w	r3, [r3, r2, lsl #1]
 8002558:	461a      	mov	r2, r3
 800255a:	6dbb      	ldr	r3, [r7, #88]	; 0x58
 800255c:	429a      	cmp	r2, r3
 800255e:	d101      	bne.n	8002564 <checkBlockade+0x60>
				temp = 1;
 8002560:	2301      	movs	r3, #1
 8002562:	65fb      	str	r3, [r7, #92]	; 0x5c
int checkBlockade(uint16_t matrix[128][128], int16_t x0, int16_t y0, int cisloTvaru){
	int temp = 0;

	// ak objekt je stvorec
	if (cisloTvaru == 0){
		for (int i = 2; i<10; i++)
 8002564:	6dbb      	ldr	r3, [r7, #88]	; 0x58
 8002566:	3301      	adds	r3, #1
 8002568:	65bb      	str	r3, [r7, #88]	; 0x58
 800256a:	6dbb      	ldr	r3, [r7, #88]	; 0x58
 800256c:	2b09      	cmp	r3, #9
 800256e:	ddda      	ble.n	8002526 <checkBlockade+0x22>
 8002570:	e39d      	b.n	8002cae <checkBlockade+0x7aa>
			if (matrix[x0][y0+1]==i || matrix[x0+6][y0+1]==i)
				temp = 1;
	}
	// ak objekt je |
	else if (cisloTvaru == 1){
 8002572:	687b      	ldr	r3, [r7, #4]
 8002574:	2b01      	cmp	r3, #1
 8002576:	d119      	bne.n	80025ac <checkBlockade+0xa8>
		for (int i = 2; i<10; i++)
 8002578:	2302      	movs	r3, #2
 800257a:	657b      	str	r3, [r7, #84]	; 0x54
 800257c:	e012      	b.n	80025a4 <checkBlockade+0xa0>
			if (matrix[x0][y0+1]==i)
 800257e:	f9b7 300a 	ldrsh.w	r3, [r7, #10]
 8002582:	021b      	lsls	r3, r3, #8
 8002584:	68fa      	ldr	r2, [r7, #12]
 8002586:	4413      	add	r3, r2
 8002588:	f9b7 2008 	ldrsh.w	r2, [r7, #8]
 800258c:	3201      	adds	r2, #1
 800258e:	f833 3012 	ldrh.w	r3, [r3, r2, lsl #1]
 8002592:	461a      	mov	r2, r3
 8002594:	6d7b      	ldr	r3, [r7, #84]	; 0x54
 8002596:	429a      	cmp	r2, r3
 8002598:	d101      	bne.n	800259e <checkBlockade+0x9a>
				temp = 1;
 800259a:	2301      	movs	r3, #1
 800259c:	65fb      	str	r3, [r7, #92]	; 0x5c
			if (matrix[x0][y0+1]==i || matrix[x0+6][y0+1]==i)
				temp = 1;
	}
	// ak objekt je |
	else if (cisloTvaru == 1){
		for (int i = 2; i<10; i++)
 800259e:	6d7b      	ldr	r3, [r7, #84]	; 0x54
 80025a0:	3301      	adds	r3, #1
 80025a2:	657b      	str	r3, [r7, #84]	; 0x54
 80025a4:	6d7b      	ldr	r3, [r7, #84]	; 0x54
 80025a6:	2b09      	cmp	r3, #9
 80025a8:	dde9      	ble.n	800257e <checkBlockade+0x7a>
 80025aa:	e380      	b.n	8002cae <checkBlockade+0x7aa>
			if (matrix[x0][y0+1]==i)
				temp = 1;
	}
	// ak objekt je stvorec _
	else if (cisloTvaru == 2){
 80025ac:	687b      	ldr	r3, [r7, #4]
 80025ae:	2b02      	cmp	r3, #2
 80025b0:	d146      	bne.n	8002640 <checkBlockade+0x13c>
		for (int i = 2; i<10; i++)
 80025b2:	2302      	movs	r3, #2
 80025b4:	653b      	str	r3, [r7, #80]	; 0x50
 80025b6:	e03f      	b.n	8002638 <checkBlockade+0x134>
			if (matrix[x0][y0+1]==i || matrix[x0+6][y0+1]==i || matrix[x0+12][y0+1]==i || matrix[x0+18][y0+1]==i)
 80025b8:	f9b7 300a 	ldrsh.w	r3, [r7, #10]
 80025bc:	021b      	lsls	r3, r3, #8
 80025be:	68fa      	ldr	r2, [r7, #12]
 80025c0:	4413      	add	r3, r2
 80025c2:	f9b7 2008 	ldrsh.w	r2, [r7, #8]
 80025c6:	3201      	adds	r2, #1
 80025c8:	f833 3012 	ldrh.w	r3, [r3, r2, lsl #1]
 80025cc:	461a      	mov	r2, r3
 80025ce:	6d3b      	ldr	r3, [r7, #80]	; 0x50
 80025d0:	429a      	cmp	r2, r3
 80025d2:	d02c      	beq.n	800262e <checkBlockade+0x12a>
 80025d4:	f9b7 300a 	ldrsh.w	r3, [r7, #10]
 80025d8:	3306      	adds	r3, #6
 80025da:	021b      	lsls	r3, r3, #8
 80025dc:	68fa      	ldr	r2, [r7, #12]
 80025de:	4413      	add	r3, r2
 80025e0:	f9b7 2008 	ldrsh.w	r2, [r7, #8]
 80025e4:	3201      	adds	r2, #1
 80025e6:	f833 3012 	ldrh.w	r3, [r3, r2, lsl #1]
 80025ea:	461a      	mov	r2, r3
 80025ec:	6d3b      	ldr	r3, [r7, #80]	; 0x50
 80025ee:	429a      	cmp	r2, r3
 80025f0:	d01d      	beq.n	800262e <checkBlockade+0x12a>
 80025f2:	f9b7 300a 	ldrsh.w	r3, [r7, #10]
 80025f6:	330c      	adds	r3, #12
 80025f8:	021b      	lsls	r3, r3, #8
 80025fa:	68fa      	ldr	r2, [r7, #12]
 80025fc:	4413      	add	r3, r2
 80025fe:	f9b7 2008 	ldrsh.w	r2, [r7, #8]
 8002602:	3201      	adds	r2, #1
 8002604:	f833 3012 	ldrh.w	r3, [r3, r2, lsl #1]
 8002608:	461a      	mov	r2, r3
 800260a:	6d3b      	ldr	r3, [r7, #80]	; 0x50
 800260c:	429a      	cmp	r2, r3
 800260e:	d00e      	beq.n	800262e <checkBlockade+0x12a>
 8002610:	f9b7 300a 	ldrsh.w	r3, [r7, #10]
 8002614:	3312      	adds	r3, #18
 8002616:	021b      	lsls	r3, r3, #8
 8002618:	68fa      	ldr	r2, [r7, #12]
 800261a:	4413      	add	r3, r2
 800261c:	f9b7 2008 	ldrsh.w	r2, [r7, #8]
 8002620:	3201      	adds	r2, #1
 8002622:	f833 3012 	ldrh.w	r3, [r3, r2, lsl #1]
 8002626:	461a      	mov	r2, r3
 8002628:	6d3b      	ldr	r3, [r7, #80]	; 0x50
 800262a:	429a      	cmp	r2, r3
 800262c:	d101      	bne.n	8002632 <checkBlockade+0x12e>
				temp = 1;
 800262e:	2301      	movs	r3, #1
 8002630:	65fb      	str	r3, [r7, #92]	; 0x5c
			if (matrix[x0][y0+1]==i)
				temp = 1;
	}
	// ak objekt je stvorec _
	else if (cisloTvaru == 2){
		for (int i = 2; i<10; i++)
 8002632:	6d3b      	ldr	r3, [r7, #80]	; 0x50
 8002634:	3301      	adds	r3, #1
 8002636:	653b      	str	r3, [r7, #80]	; 0x50
 8002638:	6d3b      	ldr	r3, [r7, #80]	; 0x50
 800263a:	2b09      	cmp	r3, #9
 800263c:	ddbc      	ble.n	80025b8 <checkBlockade+0xb4>
 800263e:	e336      	b.n	8002cae <checkBlockade+0x7aa>
			if (matrix[x0][y0+1]==i || matrix[x0+6][y0+1]==i || matrix[x0+12][y0+1]==i || matrix[x0+18][y0+1]==i)
				temp = 1;
	}
	// ak objekt je Z
	else if (cisloTvaru == 3){
 8002640:	687b      	ldr	r3, [r7, #4]
 8002642:	2b03      	cmp	r3, #3
 8002644:	d137      	bne.n	80026b6 <checkBlockade+0x1b2>
		for (int i = 2; i<10; i++)
 8002646:	2302      	movs	r3, #2
 8002648:	64fb      	str	r3, [r7, #76]	; 0x4c
 800264a:	e030      	b.n	80026ae <checkBlockade+0x1aa>
			if (matrix[x0][y0-5]==i || matrix[x0+6][y0+1]==i || matrix[x0+12][y0+1]==i)
 800264c:	f9b7 300a 	ldrsh.w	r3, [r7, #10]
 8002650:	021b      	lsls	r3, r3, #8
 8002652:	68fa      	ldr	r2, [r7, #12]
 8002654:	4413      	add	r3, r2
 8002656:	f9b7 2008 	ldrsh.w	r2, [r7, #8]
 800265a:	3a05      	subs	r2, #5
 800265c:	f833 3012 	ldrh.w	r3, [r3, r2, lsl #1]
 8002660:	461a      	mov	r2, r3
 8002662:	6cfb      	ldr	r3, [r7, #76]	; 0x4c
 8002664:	429a      	cmp	r2, r3
 8002666:	d01d      	beq.n	80026a4 <checkBlockade+0x1a0>
 8002668:	f9b7 300a 	ldrsh.w	r3, [r7, #10]
 800266c:	3306      	adds	r3, #6
 800266e:	021b      	lsls	r3, r3, #8
 8002670:	68fa      	ldr	r2, [r7, #12]
 8002672:	4413      	add	r3, r2
 8002674:	f9b7 2008 	ldrsh.w	r2, [r7, #8]
 8002678:	3201      	adds	r2, #1
 800267a:	f833 3012 	ldrh.w	r3, [r3, r2, lsl #1]
 800267e:	461a      	mov	r2, r3
 8002680:	6cfb      	ldr	r3, [r7, #76]	; 0x4c
 8002682:	429a      	cmp	r2, r3
 8002684:	d00e      	beq.n	80026a4 <checkBlockade+0x1a0>
 8002686:	f9b7 300a 	ldrsh.w	r3, [r7, #10]
 800268a:	330c      	adds	r3, #12
 800268c:	021b      	lsls	r3, r3, #8
 800268e:	68fa      	ldr	r2, [r7, #12]
 8002690:	4413      	add	r3, r2
 8002692:	f9b7 2008 	ldrsh.w	r2, [r7, #8]
 8002696:	3201      	adds	r2, #1
 8002698:	f833 3012 	ldrh.w	r3, [r3, r2, lsl #1]
 800269c:	461a      	mov	r2, r3
 800269e:	6cfb      	ldr	r3, [r7, #76]	; 0x4c
 80026a0:	429a      	cmp	r2, r3
 80026a2:	d101      	bne.n	80026a8 <checkBlockade+0x1a4>
				temp = 1;
 80026a4:	2301      	movs	r3, #1
 80026a6:	65fb      	str	r3, [r7, #92]	; 0x5c
			if (matrix[x0][y0+1]==i || matrix[x0+6][y0+1]==i || matrix[x0+12][y0+1]==i || matrix[x0+18][y0+1]==i)
				temp = 1;
	}
	// ak objekt je Z
	else if (cisloTvaru == 3){
		for (int i = 2; i<10; i++)
 80026a8:	6cfb      	ldr	r3, [r7, #76]	; 0x4c
 80026aa:	3301      	adds	r3, #1
 80026ac:	64fb      	str	r3, [r7, #76]	; 0x4c
 80026ae:	6cfb      	ldr	r3, [r7, #76]	; 0x4c
 80026b0:	2b09      	cmp	r3, #9
 80026b2:	ddcb      	ble.n	800264c <checkBlockade+0x148>
 80026b4:	e2fb      	b.n	8002cae <checkBlockade+0x7aa>
			if (matrix[x0][y0-5]==i || matrix[x0+6][y0+1]==i || matrix[x0+12][y0+1]==i)
				temp = 1;
	}
	// ak objekt je N
	else if (cisloTvaru == 4){
 80026b6:	687b      	ldr	r3, [r7, #4]
 80026b8:	2b04      	cmp	r3, #4
 80026ba:	d128      	bne.n	800270e <checkBlockade+0x20a>
		for (int i = 2; i<10; i++)
 80026bc:	2302      	movs	r3, #2
 80026be:	64bb      	str	r3, [r7, #72]	; 0x48
 80026c0:	e021      	b.n	8002706 <checkBlockade+0x202>
			if (matrix[x0][y0+1]==i || matrix[x0+6][y0-5]==i)
 80026c2:	f9b7 300a 	ldrsh.w	r3, [r7, #10]
 80026c6:	021b      	lsls	r3, r3, #8
 80026c8:	68fa      	ldr	r2, [r7, #12]
 80026ca:	4413      	add	r3, r2
 80026cc:	f9b7 2008 	ldrsh.w	r2, [r7, #8]
 80026d0:	3201      	adds	r2, #1
 80026d2:	f833 3012 	ldrh.w	r3, [r3, r2, lsl #1]
 80026d6:	461a      	mov	r2, r3
 80026d8:	6cbb      	ldr	r3, [r7, #72]	; 0x48
 80026da:	429a      	cmp	r2, r3
 80026dc:	d00e      	beq.n	80026fc <checkBlockade+0x1f8>
 80026de:	f9b7 300a 	ldrsh.w	r3, [r7, #10]
 80026e2:	3306      	adds	r3, #6
 80026e4:	021b      	lsls	r3, r3, #8
 80026e6:	68fa      	ldr	r2, [r7, #12]
 80026e8:	4413      	add	r3, r2
 80026ea:	f9b7 2008 	ldrsh.w	r2, [r7, #8]
 80026ee:	3a05      	subs	r2, #5
 80026f0:	f833 3012 	ldrh.w	r3, [r3, r2, lsl #1]
 80026f4:	461a      	mov	r2, r3
 80026f6:	6cbb      	ldr	r3, [r7, #72]	; 0x48
 80026f8:	429a      	cmp	r2, r3
 80026fa:	d101      	bne.n	8002700 <checkBlockade+0x1fc>
				temp = 1;
 80026fc:	2301      	movs	r3, #1
 80026fe:	65fb      	str	r3, [r7, #92]	; 0x5c
			if (matrix[x0][y0-5]==i || matrix[x0+6][y0+1]==i || matrix[x0+12][y0+1]==i)
				temp = 1;
	}
	// ak objekt je N
	else if (cisloTvaru == 4){
		for (int i = 2; i<10; i++)
 8002700:	6cbb      	ldr	r3, [r7, #72]	; 0x48
 8002702:	3301      	adds	r3, #1
 8002704:	64bb      	str	r3, [r7, #72]	; 0x48
 8002706:	6cbb      	ldr	r3, [r7, #72]	; 0x48
 8002708:	2b09      	cmp	r3, #9
 800270a:	ddda      	ble.n	80026c2 <checkBlockade+0x1be>
 800270c:	e2cf      	b.n	8002cae <checkBlockade+0x7aa>
			if (matrix[x0][y0+1]==i || matrix[x0+6][y0-5]==i)
				temp = 1;
	}
	// ak objekt je opacny Z
	else if (cisloTvaru == 5){
 800270e:	687b      	ldr	r3, [r7, #4]
 8002710:	2b05      	cmp	r3, #5
 8002712:	d137      	bne.n	8002784 <checkBlockade+0x280>
		for (int i = 2; i<10; i++)
 8002714:	2302      	movs	r3, #2
 8002716:	647b      	str	r3, [r7, #68]	; 0x44
 8002718:	e030      	b.n	800277c <checkBlockade+0x278>
			if (matrix[x0][y0+1]==i || matrix[x0+6][y0+1]==i || matrix[x0+12][y0-5]==i)
 800271a:	f9b7 300a 	ldrsh.w	r3, [r7, #10]
 800271e:	021b      	lsls	r3, r3, #8
 8002720:	68fa      	ldr	r2, [r7, #12]
 8002722:	4413      	add	r3, r2
 8002724:	f9b7 2008 	ldrsh.w	r2, [r7, #8]
 8002728:	3201      	adds	r2, #1
 800272a:	f833 3012 	ldrh.w	r3, [r3, r2, lsl #1]
 800272e:	461a      	mov	r2, r3
 8002730:	6c7b      	ldr	r3, [r7, #68]	; 0x44
 8002732:	429a      	cmp	r2, r3
 8002734:	d01d      	beq.n	8002772 <checkBlockade+0x26e>
 8002736:	f9b7 300a 	ldrsh.w	r3, [r7, #10]
 800273a:	3306      	adds	r3, #6
 800273c:	021b      	lsls	r3, r3, #8
 800273e:	68fa      	ldr	r2, [r7, #12]
 8002740:	4413      	add	r3, r2
 8002742:	f9b7 2008 	ldrsh.w	r2, [r7, #8]
 8002746:	3201      	adds	r2, #1
 8002748:	f833 3012 	ldrh.w	r3, [r3, r2, lsl #1]
 800274c:	461a      	mov	r2, r3
 800274e:	6c7b      	ldr	r3, [r7, #68]	; 0x44
 8002750:	429a      	cmp	r2, r3
 8002752:	d00e      	beq.n	8002772 <checkBlockade+0x26e>
 8002754:	f9b7 300a 	ldrsh.w	r3, [r7, #10]
 8002758:	330c      	adds	r3, #12
 800275a:	021b      	lsls	r3, r3, #8
 800275c:	68fa      	ldr	r2, [r7, #12]
 800275e:	4413      	add	r3, r2
 8002760:	f9b7 2008 	ldrsh.w	r2, [r7, #8]
 8002764:	3a05      	subs	r2, #5
 8002766:	f833 3012 	ldrh.w	r3, [r3, r2, lsl #1]
 800276a:	461a      	mov	r2, r3
 800276c:	6c7b      	ldr	r3, [r7, #68]	; 0x44
 800276e:	429a      	cmp	r2, r3
 8002770:	d101      	bne.n	8002776 <checkBlockade+0x272>
				temp = 1;
 8002772:	2301      	movs	r3, #1
 8002774:	65fb      	str	r3, [r7, #92]	; 0x5c
			if (matrix[x0][y0+1]==i || matrix[x0+6][y0-5]==i)
				temp = 1;
	}
	// ak objekt je opacny Z
	else if (cisloTvaru == 5){
		for (int i = 2; i<10; i++)
 8002776:	6c7b      	ldr	r3, [r7, #68]	; 0x44
 8002778:	3301      	adds	r3, #1
 800277a:	647b      	str	r3, [r7, #68]	; 0x44
 800277c:	6c7b      	ldr	r3, [r7, #68]	; 0x44
 800277e:	2b09      	cmp	r3, #9
 8002780:	ddcb      	ble.n	800271a <checkBlockade+0x216>
 8002782:	e294      	b.n	8002cae <checkBlockade+0x7aa>
			if (matrix[x0][y0+1]==i || matrix[x0+6][y0+1]==i || matrix[x0+12][y0-5]==i)
				temp = 1;
	}
	// ak objekt je opacny N
	else if (cisloTvaru == 6){
 8002784:	687b      	ldr	r3, [r7, #4]
 8002786:	2b06      	cmp	r3, #6
 8002788:	d128      	bne.n	80027dc <checkBlockade+0x2d8>
		for (int i = 2; i<10; i++)
 800278a:	2302      	movs	r3, #2
 800278c:	643b      	str	r3, [r7, #64]	; 0x40
 800278e:	e021      	b.n	80027d4 <checkBlockade+0x2d0>
			if (matrix[x0][y0-5]==i || matrix[x0+6][y0+1]==i)
 8002790:	f9b7 300a 	ldrsh.w	r3, [r7, #10]
 8002794:	021b      	lsls	r3, r3, #8
 8002796:	68fa      	ldr	r2, [r7, #12]
 8002798:	4413      	add	r3, r2
 800279a:	f9b7 2008 	ldrsh.w	r2, [r7, #8]
 800279e:	3a05      	subs	r2, #5
 80027a0:	f833 3012 	ldrh.w	r3, [r3, r2, lsl #1]
 80027a4:	461a      	mov	r2, r3
 80027a6:	6c3b      	ldr	r3, [r7, #64]	; 0x40
 80027a8:	429a      	cmp	r2, r3
 80027aa:	d00e      	beq.n	80027ca <checkBlockade+0x2c6>
 80027ac:	f9b7 300a 	ldrsh.w	r3, [r7, #10]
 80027b0:	3306      	adds	r3, #6
 80027b2:	021b      	lsls	r3, r3, #8
 80027b4:	68fa      	ldr	r2, [r7, #12]
 80027b6:	4413      	add	r3, r2
 80027b8:	f9b7 2008 	ldrsh.w	r2, [r7, #8]
 80027bc:	3201      	adds	r2, #1
 80027be:	f833 3012 	ldrh.w	r3, [r3, r2, lsl #1]
 80027c2:	461a      	mov	r2, r3
 80027c4:	6c3b      	ldr	r3, [r7, #64]	; 0x40
 80027c6:	429a      	cmp	r2, r3
 80027c8:	d101      	bne.n	80027ce <checkBlockade+0x2ca>
				temp = 1;
 80027ca:	2301      	movs	r3, #1
 80027cc:	65fb      	str	r3, [r7, #92]	; 0x5c
			if (matrix[x0][y0+1]==i || matrix[x0+6][y0+1]==i || matrix[x0+12][y0-5]==i)
				temp = 1;
	}
	// ak objekt je opacny N
	else if (cisloTvaru == 6){
		for (int i = 2; i<10; i++)
 80027ce:	6c3b      	ldr	r3, [r7, #64]	; 0x40
 80027d0:	3301      	adds	r3, #1
 80027d2:	643b      	str	r3, [r7, #64]	; 0x40
 80027d4:	6c3b      	ldr	r3, [r7, #64]	; 0x40
 80027d6:	2b09      	cmp	r3, #9
 80027d8:	ddda      	ble.n	8002790 <checkBlockade+0x28c>
 80027da:	e268      	b.n	8002cae <checkBlockade+0x7aa>
			if (matrix[x0][y0-5]==i || matrix[x0+6][y0+1]==i)
				temp = 1;
	}
	// ak objekt je L
	else if (cisloTvaru == 7){
 80027dc:	687b      	ldr	r3, [r7, #4]
 80027de:	2b07      	cmp	r3, #7
 80027e0:	d128      	bne.n	8002834 <checkBlockade+0x330>
		for (int i = 2; i<10; i++)
 80027e2:	2302      	movs	r3, #2
 80027e4:	63fb      	str	r3, [r7, #60]	; 0x3c
 80027e6:	e021      	b.n	800282c <checkBlockade+0x328>
			if (matrix[x0][y0+1]==i || matrix[x0+6][y0+1]==i)
 80027e8:	f9b7 300a 	ldrsh.w	r3, [r7, #10]
 80027ec:	021b      	lsls	r3, r3, #8
 80027ee:	68fa      	ldr	r2, [r7, #12]
 80027f0:	4413      	add	r3, r2
 80027f2:	f9b7 2008 	ldrsh.w	r2, [r7, #8]
 80027f6:	3201      	adds	r2, #1
 80027f8:	f833 3012 	ldrh.w	r3, [r3, r2, lsl #1]
 80027fc:	461a      	mov	r2, r3
 80027fe:	6bfb      	ldr	r3, [r7, #60]	; 0x3c
 8002800:	429a      	cmp	r2, r3
 8002802:	d00e      	beq.n	8002822 <checkBlockade+0x31e>
 8002804:	f9b7 300a 	ldrsh.w	r3, [r7, #10]
 8002808:	3306      	adds	r3, #6
 800280a:	021b      	lsls	r3, r3, #8
 800280c:	68fa      	ldr	r2, [r7, #12]
 800280e:	4413      	add	r3, r2
 8002810:	f9b7 2008 	ldrsh.w	r2, [r7, #8]
 8002814:	3201      	adds	r2, #1
 8002816:	f833 3012 	ldrh.w	r3, [r3, r2, lsl #1]
 800281a:	461a      	mov	r2, r3
 800281c:	6bfb      	ldr	r3, [r7, #60]	; 0x3c
 800281e:	429a      	cmp	r2, r3
 8002820:	d101      	bne.n	8002826 <checkBlockade+0x322>
				temp = 1;
 8002822:	2301      	movs	r3, #1
 8002824:	65fb      	str	r3, [r7, #92]	; 0x5c
			if (matrix[x0][y0-5]==i || matrix[x0+6][y0+1]==i)
				temp = 1;
	}
	// ak objekt je L
	else if (cisloTvaru == 7){
		for (int i = 2; i<10; i++)
 8002826:	6bfb      	ldr	r3, [r7, #60]	; 0x3c
 8002828:	3301      	adds	r3, #1
 800282a:	63fb      	str	r3, [r7, #60]	; 0x3c
 800282c:	6bfb      	ldr	r3, [r7, #60]	; 0x3c
 800282e:	2b09      	cmp	r3, #9
 8002830:	ddda      	ble.n	80027e8 <checkBlockade+0x2e4>
 8002832:	e23c      	b.n	8002cae <checkBlockade+0x7aa>
			if (matrix[x0][y0+1]==i || matrix[x0+6][y0+1]==i)
				temp = 1;
	}
	// ak objekt je _.
	else if (cisloTvaru == 8){
 8002834:	687b      	ldr	r3, [r7, #4]
 8002836:	2b08      	cmp	r3, #8
 8002838:	d137      	bne.n	80028aa <checkBlockade+0x3a6>
		for (int i = 2; i<10; i++)
 800283a:	2302      	movs	r3, #2
 800283c:	63bb      	str	r3, [r7, #56]	; 0x38
 800283e:	e030      	b.n	80028a2 <checkBlockade+0x39e>
			if (matrix[x0][y0+1]==i || matrix[x0+6][y0+1]==i || matrix[x0+12][y0+1]==i)
 8002840:	f9b7 300a 	ldrsh.w	r3, [r7, #10]
 8002844:	021b      	lsls	r3, r3, #8
 8002846:	68fa      	ldr	r2, [r7, #12]
 8002848:	4413      	add	r3, r2
 800284a:	f9b7 2008 	ldrsh.w	r2, [r7, #8]
 800284e:	3201      	adds	r2, #1
 8002850:	f833 3012 	ldrh.w	r3, [r3, r2, lsl #1]
 8002854:	461a      	mov	r2, r3
 8002856:	6bbb      	ldr	r3, [r7, #56]	; 0x38
 8002858:	429a      	cmp	r2, r3
 800285a:	d01d      	beq.n	8002898 <checkBlockade+0x394>
 800285c:	f9b7 300a 	ldrsh.w	r3, [r7, #10]
 8002860:	3306      	adds	r3, #6
 8002862:	021b      	lsls	r3, r3, #8
 8002864:	68fa      	ldr	r2, [r7, #12]
 8002866:	4413      	add	r3, r2
 8002868:	f9b7 2008 	ldrsh.w	r2, [r7, #8]
 800286c:	3201      	adds	r2, #1
 800286e:	f833 3012 	ldrh.w	r3, [r3, r2, lsl #1]
 8002872:	461a      	mov	r2, r3
 8002874:	6bbb      	ldr	r3, [r7, #56]	; 0x38
 8002876:	429a      	cmp	r2, r3
 8002878:	d00e      	beq.n	8002898 <checkBlockade+0x394>
 800287a:	f9b7 300a 	ldrsh.w	r3, [r7, #10]
 800287e:	330c      	adds	r3, #12
 8002880:	021b      	lsls	r3, r3, #8
 8002882:	68fa      	ldr	r2, [r7, #12]
 8002884:	4413      	add	r3, r2
 8002886:	f9b7 2008 	ldrsh.w	r2, [r7, #8]
 800288a:	3201      	adds	r2, #1
 800288c:	f833 3012 	ldrh.w	r3, [r3, r2, lsl #1]
 8002890:	461a      	mov	r2, r3
 8002892:	6bbb      	ldr	r3, [r7, #56]	; 0x38
 8002894:	429a      	cmp	r2, r3
 8002896:	d101      	bne.n	800289c <checkBlockade+0x398>
				temp = 1;
 8002898:	2301      	movs	r3, #1
 800289a:	65fb      	str	r3, [r7, #92]	; 0x5c
			if (matrix[x0][y0+1]==i || matrix[x0+6][y0+1]==i)
				temp = 1;
	}
	// ak objekt je _.
	else if (cisloTvaru == 8){
		for (int i = 2; i<10; i++)
 800289c:	6bbb      	ldr	r3, [r7, #56]	; 0x38
 800289e:	3301      	adds	r3, #1
 80028a0:	63bb      	str	r3, [r7, #56]	; 0x38
 80028a2:	6bbb      	ldr	r3, [r7, #56]	; 0x38
 80028a4:	2b09      	cmp	r3, #9
 80028a6:	ddcb      	ble.n	8002840 <checkBlockade+0x33c>
 80028a8:	e201      	b.n	8002cae <checkBlockade+0x7aa>
			if (matrix[x0][y0+1]==i || matrix[x0+6][y0+1]==i || matrix[x0+12][y0+1]==i)
				temp = 1;
	}
	// ak objekt je '|
	else if (cisloTvaru == 9){
 80028aa:	687b      	ldr	r3, [r7, #4]
 80028ac:	2b09      	cmp	r3, #9
 80028ae:	d128      	bne.n	8002902 <checkBlockade+0x3fe>
		for (int i = 2; i<10; i++)
 80028b0:	2302      	movs	r3, #2
 80028b2:	637b      	str	r3, [r7, #52]	; 0x34
 80028b4:	e021      	b.n	80028fa <checkBlockade+0x3f6>
			if (matrix[x0][y0-11]==i || matrix[x0+6][y0+1]==i)
 80028b6:	f9b7 300a 	ldrsh.w	r3, [r7, #10]
 80028ba:	021b      	lsls	r3, r3, #8
 80028bc:	68fa      	ldr	r2, [r7, #12]
 80028be:	4413      	add	r3, r2
 80028c0:	f9b7 2008 	ldrsh.w	r2, [r7, #8]
 80028c4:	3a0b      	subs	r2, #11
 80028c6:	f833 3012 	ldrh.w	r3, [r3, r2, lsl #1]
 80028ca:	461a      	mov	r2, r3
 80028cc:	6b7b      	ldr	r3, [r7, #52]	; 0x34
 80028ce:	429a      	cmp	r2, r3
 80028d0:	d00e      	beq.n	80028f0 <checkBlockade+0x3ec>
 80028d2:	f9b7 300a 	ldrsh.w	r3, [r7, #10]
 80028d6:	3306      	adds	r3, #6
 80028d8:	021b      	lsls	r3, r3, #8
 80028da:	68fa      	ldr	r2, [r7, #12]
 80028dc:	4413      	add	r3, r2
 80028de:	f9b7 2008 	ldrsh.w	r2, [r7, #8]
 80028e2:	3201      	adds	r2, #1
 80028e4:	f833 3012 	ldrh.w	r3, [r3, r2, lsl #1]
 80028e8:	461a      	mov	r2, r3
 80028ea:	6b7b      	ldr	r3, [r7, #52]	; 0x34
 80028ec:	429a      	cmp	r2, r3
 80028ee:	d101      	bne.n	80028f4 <checkBlockade+0x3f0>
				temp = 1;
 80028f0:	2301      	movs	r3, #1
 80028f2:	65fb      	str	r3, [r7, #92]	; 0x5c
			if (matrix[x0][y0+1]==i || matrix[x0+6][y0+1]==i || matrix[x0+12][y0+1]==i)
				temp = 1;
	}
	// ak objekt je '|
	else if (cisloTvaru == 9){
		for (int i = 2; i<10; i++)
 80028f4:	6b7b      	ldr	r3, [r7, #52]	; 0x34
 80028f6:	3301      	adds	r3, #1
 80028f8:	637b      	str	r3, [r7, #52]	; 0x34
 80028fa:	6b7b      	ldr	r3, [r7, #52]	; 0x34
 80028fc:	2b09      	cmp	r3, #9
 80028fe:	ddda      	ble.n	80028b6 <checkBlockade+0x3b2>
 8002900:	e1d5      	b.n	8002cae <checkBlockade+0x7aa>
			if (matrix[x0][y0-11]==i || matrix[x0+6][y0+1]==i)
				temp = 1;
	}
	// ak objekt je ,..
	else if (cisloTvaru == 10){
 8002902:	687b      	ldr	r3, [r7, #4]
 8002904:	2b0a      	cmp	r3, #10
 8002906:	d137      	bne.n	8002978 <checkBlockade+0x474>
		for (int i = 2; i<10; i++)
 8002908:	2302      	movs	r3, #2
 800290a:	633b      	str	r3, [r7, #48]	; 0x30
 800290c:	e030      	b.n	8002970 <checkBlockade+0x46c>
			if (matrix[x0][y0+1]==i || matrix[x0+6][y0-5]==i || matrix[x0+12][y0-5]==i)
 800290e:	f9b7 300a 	ldrsh.w	r3, [r7, #10]
 8002912:	021b      	lsls	r3, r3, #8
 8002914:	68fa      	ldr	r2, [r7, #12]
 8002916:	4413      	add	r3, r2
 8002918:	f9b7 2008 	ldrsh.w	r2, [r7, #8]
 800291c:	3201      	adds	r2, #1
 800291e:	f833 3012 	ldrh.w	r3, [r3, r2, lsl #1]
 8002922:	461a      	mov	r2, r3
 8002924:	6b3b      	ldr	r3, [r7, #48]	; 0x30
 8002926:	429a      	cmp	r2, r3
 8002928:	d01d      	beq.n	8002966 <checkBlockade+0x462>
 800292a:	f9b7 300a 	ldrsh.w	r3, [r7, #10]
 800292e:	3306      	adds	r3, #6
 8002930:	021b      	lsls	r3, r3, #8
 8002932:	68fa      	ldr	r2, [r7, #12]
 8002934:	4413      	add	r3, r2
 8002936:	f9b7 2008 	ldrsh.w	r2, [r7, #8]
 800293a:	3a05      	subs	r2, #5
 800293c:	f833 3012 	ldrh.w	r3, [r3, r2, lsl #1]
 8002940:	461a      	mov	r2, r3
 8002942:	6b3b      	ldr	r3, [r7, #48]	; 0x30
 8002944:	429a      	cmp	r2, r3
 8002946:	d00e      	beq.n	8002966 <checkBlockade+0x462>
 8002948:	f9b7 300a 	ldrsh.w	r3, [r7, #10]
 800294c:	330c      	adds	r3, #12
 800294e:	021b      	lsls	r3, r3, #8
 8002950:	68fa      	ldr	r2, [r7, #12]
 8002952:	4413      	add	r3, r2
 8002954:	f9b7 2008 	ldrsh.w	r2, [r7, #8]
 8002958:	3a05      	subs	r2, #5
 800295a:	f833 3012 	ldrh.w	r3, [r3, r2, lsl #1]
 800295e:	461a      	mov	r2, r3
 8002960:	6b3b      	ldr	r3, [r7, #48]	; 0x30
 8002962:	429a      	cmp	r2, r3
 8002964:	d101      	bne.n	800296a <checkBlockade+0x466>
				temp = 1;
 8002966:	2301      	movs	r3, #1
 8002968:	65fb      	str	r3, [r7, #92]	; 0x5c
			if (matrix[x0][y0-11]==i || matrix[x0+6][y0+1]==i)
				temp = 1;
	}
	// ak objekt je ,..
	else if (cisloTvaru == 10){
		for (int i = 2; i<10; i++)
 800296a:	6b3b      	ldr	r3, [r7, #48]	; 0x30
 800296c:	3301      	adds	r3, #1
 800296e:	633b      	str	r3, [r7, #48]	; 0x30
 8002970:	6b3b      	ldr	r3, [r7, #48]	; 0x30
 8002972:	2b09      	cmp	r3, #9
 8002974:	ddcb      	ble.n	800290e <checkBlockade+0x40a>
 8002976:	e19a      	b.n	8002cae <checkBlockade+0x7aa>
			if (matrix[x0][y0+1]==i || matrix[x0+6][y0-5]==i || matrix[x0+12][y0-5]==i)
				temp = 1;
	}
	// ak objekt je .|.
	else if (cisloTvaru == 11){
 8002978:	687b      	ldr	r3, [r7, #4]
 800297a:	2b0b      	cmp	r3, #11
 800297c:	d137      	bne.n	80029ee <checkBlockade+0x4ea>
		for (int i = 2; i<10; i++)
 800297e:	2302      	movs	r3, #2
 8002980:	62fb      	str	r3, [r7, #44]	; 0x2c
 8002982:	e030      	b.n	80029e6 <checkBlockade+0x4e2>
			if (matrix[x0][y0+1]==i || matrix[x0+6][y0+1]==i || matrix[x0+12][y0+1]==i)
 8002984:	f9b7 300a 	ldrsh.w	r3, [r7, #10]
 8002988:	021b      	lsls	r3, r3, #8
 800298a:	68fa      	ldr	r2, [r7, #12]
 800298c:	4413      	add	r3, r2
 800298e:	f9b7 2008 	ldrsh.w	r2, [r7, #8]
 8002992:	3201      	adds	r2, #1
 8002994:	f833 3012 	ldrh.w	r3, [r3, r2, lsl #1]
 8002998:	461a      	mov	r2, r3
 800299a:	6afb      	ldr	r3, [r7, #44]	; 0x2c
 800299c:	429a      	cmp	r2, r3
 800299e:	d01d      	beq.n	80029dc <checkBlockade+0x4d8>
 80029a0:	f9b7 300a 	ldrsh.w	r3, [r7, #10]
 80029a4:	3306      	adds	r3, #6
 80029a6:	021b      	lsls	r3, r3, #8
 80029a8:	68fa      	ldr	r2, [r7, #12]
 80029aa:	4413      	add	r3, r2
 80029ac:	f9b7 2008 	ldrsh.w	r2, [r7, #8]
 80029b0:	3201      	adds	r2, #1
 80029b2:	f833 3012 	ldrh.w	r3, [r3, r2, lsl #1]
 80029b6:	461a      	mov	r2, r3
 80029b8:	6afb      	ldr	r3, [r7, #44]	; 0x2c
 80029ba:	429a      	cmp	r2, r3
 80029bc:	d00e      	beq.n	80029dc <checkBlockade+0x4d8>
 80029be:	f9b7 300a 	ldrsh.w	r3, [r7, #10]
 80029c2:	330c      	adds	r3, #12
 80029c4:	021b      	lsls	r3, r3, #8
 80029c6:	68fa      	ldr	r2, [r7, #12]
 80029c8:	4413      	add	r3, r2
 80029ca:	f9b7 2008 	ldrsh.w	r2, [r7, #8]
 80029ce:	3201      	adds	r2, #1
 80029d0:	f833 3012 	ldrh.w	r3, [r3, r2, lsl #1]
 80029d4:	461a      	mov	r2, r3
 80029d6:	6afb      	ldr	r3, [r7, #44]	; 0x2c
 80029d8:	429a      	cmp	r2, r3
 80029da:	d101      	bne.n	80029e0 <checkBlockade+0x4dc>
				temp = 1;
 80029dc:	2301      	movs	r3, #1
 80029de:	65fb      	str	r3, [r7, #92]	; 0x5c
			if (matrix[x0][y0+1]==i || matrix[x0+6][y0-5]==i || matrix[x0+12][y0-5]==i)
				temp = 1;
	}
	// ak objekt je .|.
	else if (cisloTvaru == 11){
		for (int i = 2; i<10; i++)
 80029e0:	6afb      	ldr	r3, [r7, #44]	; 0x2c
 80029e2:	3301      	adds	r3, #1
 80029e4:	62fb      	str	r3, [r7, #44]	; 0x2c
 80029e6:	6afb      	ldr	r3, [r7, #44]	; 0x2c
 80029e8:	2b09      	cmp	r3, #9
 80029ea:	ddcb      	ble.n	8002984 <checkBlockade+0x480>
 80029ec:	e15f      	b.n	8002cae <checkBlockade+0x7aa>
			if (matrix[x0][y0+1]==i || matrix[x0+6][y0+1]==i || matrix[x0+12][y0+1]==i)
				temp = 1;
	}
	// ak objekt je -|
	else if (cisloTvaru == 12){
 80029ee:	687b      	ldr	r3, [r7, #4]
 80029f0:	2b0c      	cmp	r3, #12
 80029f2:	d128      	bne.n	8002a46 <checkBlockade+0x542>
		for (int i = 2; i<10; i++)
 80029f4:	2302      	movs	r3, #2
 80029f6:	62bb      	str	r3, [r7, #40]	; 0x28
 80029f8:	e021      	b.n	8002a3e <checkBlockade+0x53a>
			if (matrix[x0][y0-5]==i || matrix[x0+6][y0+1]==i)
 80029fa:	f9b7 300a 	ldrsh.w	r3, [r7, #10]
 80029fe:	021b      	lsls	r3, r3, #8
 8002a00:	68fa      	ldr	r2, [r7, #12]
 8002a02:	4413      	add	r3, r2
 8002a04:	f9b7 2008 	ldrsh.w	r2, [r7, #8]
 8002a08:	3a05      	subs	r2, #5
 8002a0a:	f833 3012 	ldrh.w	r3, [r3, r2, lsl #1]
 8002a0e:	461a      	mov	r2, r3
 8002a10:	6abb      	ldr	r3, [r7, #40]	; 0x28
 8002a12:	429a      	cmp	r2, r3
 8002a14:	d00e      	beq.n	8002a34 <checkBlockade+0x530>
 8002a16:	f9b7 300a 	ldrsh.w	r3, [r7, #10]
 8002a1a:	3306      	adds	r3, #6
 8002a1c:	021b      	lsls	r3, r3, #8
 8002a1e:	68fa      	ldr	r2, [r7, #12]
 8002a20:	4413      	add	r3, r2
 8002a22:	f9b7 2008 	ldrsh.w	r2, [r7, #8]
 8002a26:	3201      	adds	r2, #1
 8002a28:	f833 3012 	ldrh.w	r3, [r3, r2, lsl #1]
 8002a2c:	461a      	mov	r2, r3
 8002a2e:	6abb      	ldr	r3, [r7, #40]	; 0x28
 8002a30:	429a      	cmp	r2, r3
 8002a32:	d101      	bne.n	8002a38 <checkBlockade+0x534>
				temp = 1;
 8002a34:	2301      	movs	r3, #1
 8002a36:	65fb      	str	r3, [r7, #92]	; 0x5c
			if (matrix[x0][y0+1]==i || matrix[x0+6][y0+1]==i || matrix[x0+12][y0+1]==i)
				temp = 1;
	}
	// ak objekt je -|
	else if (cisloTvaru == 12){
		for (int i = 2; i<10; i++)
 8002a38:	6abb      	ldr	r3, [r7, #40]	; 0x28
 8002a3a:	3301      	adds	r3, #1
 8002a3c:	62bb      	str	r3, [r7, #40]	; 0x28
 8002a3e:	6abb      	ldr	r3, [r7, #40]	; 0x28
 8002a40:	2b09      	cmp	r3, #9
 8002a42:	ddda      	ble.n	80029fa <checkBlockade+0x4f6>
 8002a44:	e133      	b.n	8002cae <checkBlockade+0x7aa>
			if (matrix[x0][y0-5]==i || matrix[x0+6][y0+1]==i)
				temp = 1;
	}
	// ak objekt je .,.
	else if (cisloTvaru == 13){
 8002a46:	687b      	ldr	r3, [r7, #4]
 8002a48:	2b0d      	cmp	r3, #13
 8002a4a:	d137      	bne.n	8002abc <checkBlockade+0x5b8>
		for (int i = 2; i<10; i++)
 8002a4c:	2302      	movs	r3, #2
 8002a4e:	627b      	str	r3, [r7, #36]	; 0x24
 8002a50:	e030      	b.n	8002ab4 <checkBlockade+0x5b0>
			if (matrix[x0][y0-5]==i || matrix[x0+6][y0+1]==i || matrix[x0+12][y0-5]==i)
 8002a52:	f9b7 300a 	ldrsh.w	r3, [r7, #10]
 8002a56:	021b      	lsls	r3, r3, #8
 8002a58:	68fa      	ldr	r2, [r7, #12]
 8002a5a:	4413      	add	r3, r2
 8002a5c:	f9b7 2008 	ldrsh.w	r2, [r7, #8]
 8002a60:	3a05      	subs	r2, #5
 8002a62:	f833 3012 	ldrh.w	r3, [r3, r2, lsl #1]
 8002a66:	461a      	mov	r2, r3
 8002a68:	6a7b      	ldr	r3, [r7, #36]	; 0x24
 8002a6a:	429a      	cmp	r2, r3
 8002a6c:	d01d      	beq.n	8002aaa <checkBlockade+0x5a6>
 8002a6e:	f9b7 300a 	ldrsh.w	r3, [r7, #10]
 8002a72:	3306      	adds	r3, #6
 8002a74:	021b      	lsls	r3, r3, #8
 8002a76:	68fa      	ldr	r2, [r7, #12]
 8002a78:	4413      	add	r3, r2
 8002a7a:	f9b7 2008 	ldrsh.w	r2, [r7, #8]
 8002a7e:	3201      	adds	r2, #1
 8002a80:	f833 3012 	ldrh.w	r3, [r3, r2, lsl #1]
 8002a84:	461a      	mov	r2, r3
 8002a86:	6a7b      	ldr	r3, [r7, #36]	; 0x24
 8002a88:	429a      	cmp	r2, r3
 8002a8a:	d00e      	beq.n	8002aaa <checkBlockade+0x5a6>
 8002a8c:	f9b7 300a 	ldrsh.w	r3, [r7, #10]
 8002a90:	330c      	adds	r3, #12
 8002a92:	021b      	lsls	r3, r3, #8
 8002a94:	68fa      	ldr	r2, [r7, #12]
 8002a96:	4413      	add	r3, r2
 8002a98:	f9b7 2008 	ldrsh.w	r2, [r7, #8]
 8002a9c:	3a05      	subs	r2, #5
 8002a9e:	f833 3012 	ldrh.w	r3, [r3, r2, lsl #1]
 8002aa2:	461a      	mov	r2, r3
 8002aa4:	6a7b      	ldr	r3, [r7, #36]	; 0x24
 8002aa6:	429a      	cmp	r2, r3
 8002aa8:	d101      	bne.n	8002aae <checkBlockade+0x5aa>
				temp = 1;
 8002aaa:	2301      	movs	r3, #1
 8002aac:	65fb      	str	r3, [r7, #92]	; 0x5c
			if (matrix[x0][y0-5]==i || matrix[x0+6][y0+1]==i)
				temp = 1;
	}
	// ak objekt je .,.
	else if (cisloTvaru == 13){
		for (int i = 2; i<10; i++)
 8002aae:	6a7b      	ldr	r3, [r7, #36]	; 0x24
 8002ab0:	3301      	adds	r3, #1
 8002ab2:	627b      	str	r3, [r7, #36]	; 0x24
 8002ab4:	6a7b      	ldr	r3, [r7, #36]	; 0x24
 8002ab6:	2b09      	cmp	r3, #9
 8002ab8:	ddcb      	ble.n	8002a52 <checkBlockade+0x54e>
 8002aba:	e0f8      	b.n	8002cae <checkBlockade+0x7aa>
			if (matrix[x0][y0-5]==i || matrix[x0+6][y0+1]==i || matrix[x0+12][y0-5]==i)
				temp = 1;
	}
	// ak objekt je |-
	else if (cisloTvaru == 14){
 8002abc:	687b      	ldr	r3, [r7, #4]
 8002abe:	2b0e      	cmp	r3, #14
 8002ac0:	d128      	bne.n	8002b14 <checkBlockade+0x610>
		for (int i = 2; i<10; i++)
 8002ac2:	2302      	movs	r3, #2
 8002ac4:	623b      	str	r3, [r7, #32]
 8002ac6:	e021      	b.n	8002b0c <checkBlockade+0x608>
			if (matrix[x0][y0+1]==i || matrix[x0+6][y0-5]==i)
 8002ac8:	f9b7 300a 	ldrsh.w	r3, [r7, #10]
 8002acc:	021b      	lsls	r3, r3, #8
 8002ace:	68fa      	ldr	r2, [r7, #12]
 8002ad0:	4413      	add	r3, r2
 8002ad2:	f9b7 2008 	ldrsh.w	r2, [r7, #8]
 8002ad6:	3201      	adds	r2, #1
 8002ad8:	f833 3012 	ldrh.w	r3, [r3, r2, lsl #1]
 8002adc:	461a      	mov	r2, r3
 8002ade:	6a3b      	ldr	r3, [r7, #32]
 8002ae0:	429a      	cmp	r2, r3
 8002ae2:	d00e      	beq.n	8002b02 <checkBlockade+0x5fe>
 8002ae4:	f9b7 300a 	ldrsh.w	r3, [r7, #10]
 8002ae8:	3306      	adds	r3, #6
 8002aea:	021b      	lsls	r3, r3, #8
 8002aec:	68fa      	ldr	r2, [r7, #12]
 8002aee:	4413      	add	r3, r2
 8002af0:	f9b7 2008 	ldrsh.w	r2, [r7, #8]
 8002af4:	3a05      	subs	r2, #5
 8002af6:	f833 3012 	ldrh.w	r3, [r3, r2, lsl #1]
 8002afa:	461a      	mov	r2, r3
 8002afc:	6a3b      	ldr	r3, [r7, #32]
 8002afe:	429a      	cmp	r2, r3
 8002b00:	d101      	bne.n	8002b06 <checkBlockade+0x602>
				temp = 1;
 8002b02:	2301      	movs	r3, #1
 8002b04:	65fb      	str	r3, [r7, #92]	; 0x5c
			if (matrix[x0][y0-5]==i || matrix[x0+6][y0+1]==i || matrix[x0+12][y0-5]==i)
				temp = 1;
	}
	// ak objekt je |-
	else if (cisloTvaru == 14){
		for (int i = 2; i<10; i++)
 8002b06:	6a3b      	ldr	r3, [r7, #32]
 8002b08:	3301      	adds	r3, #1
 8002b0a:	623b      	str	r3, [r7, #32]
 8002b0c:	6a3b      	ldr	r3, [r7, #32]
 8002b0e:	2b09      	cmp	r3, #9
 8002b10:	ddda      	ble.n	8002ac8 <checkBlockade+0x5c4>
 8002b12:	e0cc      	b.n	8002cae <checkBlockade+0x7aa>
			if (matrix[x0][y0+1]==i || matrix[x0+6][y0-5]==i)
				temp = 1;
	}
	// ak objekt je opacny L
	else if (cisloTvaru == 15){
 8002b14:	687b      	ldr	r3, [r7, #4]
 8002b16:	2b0f      	cmp	r3, #15
 8002b18:	d128      	bne.n	8002b6c <checkBlockade+0x668>
		for (int i = 2; i<10; i++)
 8002b1a:	2302      	movs	r3, #2
 8002b1c:	61fb      	str	r3, [r7, #28]
 8002b1e:	e021      	b.n	8002b64 <checkBlockade+0x660>
			if (matrix[x0][y0+1]==i || matrix[x0+6][y0+1]==i)
 8002b20:	f9b7 300a 	ldrsh.w	r3, [r7, #10]
 8002b24:	021b      	lsls	r3, r3, #8
 8002b26:	68fa      	ldr	r2, [r7, #12]
 8002b28:	4413      	add	r3, r2
 8002b2a:	f9b7 2008 	ldrsh.w	r2, [r7, #8]
 8002b2e:	3201      	adds	r2, #1
 8002b30:	f833 3012 	ldrh.w	r3, [r3, r2, lsl #1]
 8002b34:	461a      	mov	r2, r3
 8002b36:	69fb      	ldr	r3, [r7, #28]
 8002b38:	429a      	cmp	r2, r3
 8002b3a:	d00e      	beq.n	8002b5a <checkBlockade+0x656>
 8002b3c:	f9b7 300a 	ldrsh.w	r3, [r7, #10]
 8002b40:	3306      	adds	r3, #6
 8002b42:	021b      	lsls	r3, r3, #8
 8002b44:	68fa      	ldr	r2, [r7, #12]
 8002b46:	4413      	add	r3, r2
 8002b48:	f9b7 2008 	ldrsh.w	r2, [r7, #8]
 8002b4c:	3201      	adds	r2, #1
 8002b4e:	f833 3012 	ldrh.w	r3, [r3, r2, lsl #1]
 8002b52:	461a      	mov	r2, r3
 8002b54:	69fb      	ldr	r3, [r7, #28]
 8002b56:	429a      	cmp	r2, r3
 8002b58:	d101      	bne.n	8002b5e <checkBlockade+0x65a>
				temp = 1;
 8002b5a:	2301      	movs	r3, #1
 8002b5c:	65fb      	str	r3, [r7, #92]	; 0x5c
			if (matrix[x0][y0+1]==i || matrix[x0+6][y0-5]==i)
				temp = 1;
	}
	// ak objekt je opacny L
	else if (cisloTvaru == 15){
		for (int i = 2; i<10; i++)
 8002b5e:	69fb      	ldr	r3, [r7, #28]
 8002b60:	3301      	adds	r3, #1
 8002b62:	61fb      	str	r3, [r7, #28]
 8002b64:	69fb      	ldr	r3, [r7, #28]
 8002b66:	2b09      	cmp	r3, #9
 8002b68:	ddda      	ble.n	8002b20 <checkBlockade+0x61c>
 8002b6a:	e0a0      	b.n	8002cae <checkBlockade+0x7aa>
			if (matrix[x0][y0+1]==i || matrix[x0+6][y0+1]==i)
				temp = 1;
	}
	// ak objekt je ..,
	else if (cisloTvaru == 16){
 8002b6c:	687b      	ldr	r3, [r7, #4]
 8002b6e:	2b10      	cmp	r3, #16
 8002b70:	d137      	bne.n	8002be2 <checkBlockade+0x6de>
		for (int i = 2; i<10; i++)
 8002b72:	2302      	movs	r3, #2
 8002b74:	61bb      	str	r3, [r7, #24]
 8002b76:	e030      	b.n	8002bda <checkBlockade+0x6d6>
			if (matrix[x0][y0-5]==i || matrix[x0+6][y0-5]==i || matrix[x0+12][y0+1]==i)
 8002b78:	f9b7 300a 	ldrsh.w	r3, [r7, #10]
 8002b7c:	021b      	lsls	r3, r3, #8
 8002b7e:	68fa      	ldr	r2, [r7, #12]
 8002b80:	4413      	add	r3, r2
 8002b82:	f9b7 2008 	ldrsh.w	r2, [r7, #8]
 8002b86:	3a05      	subs	r2, #5
 8002b88:	f833 3012 	ldrh.w	r3, [r3, r2, lsl #1]
 8002b8c:	461a      	mov	r2, r3
 8002b8e:	69bb      	ldr	r3, [r7, #24]
 8002b90:	429a      	cmp	r2, r3
 8002b92:	d01d      	beq.n	8002bd0 <checkBlockade+0x6cc>
 8002b94:	f9b7 300a 	ldrsh.w	r3, [r7, #10]
 8002b98:	3306      	adds	r3, #6
 8002b9a:	021b      	lsls	r3, r3, #8
 8002b9c:	68fa      	ldr	r2, [r7, #12]
 8002b9e:	4413      	add	r3, r2
 8002ba0:	f9b7 2008 	ldrsh.w	r2, [r7, #8]
 8002ba4:	3a05      	subs	r2, #5
 8002ba6:	f833 3012 	ldrh.w	r3, [r3, r2, lsl #1]
 8002baa:	461a      	mov	r2, r3
 8002bac:	69bb      	ldr	r3, [r7, #24]
 8002bae:	429a      	cmp	r2, r3
 8002bb0:	d00e      	beq.n	8002bd0 <checkBlockade+0x6cc>
 8002bb2:	f9b7 300a 	ldrsh.w	r3, [r7, #10]
 8002bb6:	330c      	adds	r3, #12
 8002bb8:	021b      	lsls	r3, r3, #8
 8002bba:	68fa      	ldr	r2, [r7, #12]
 8002bbc:	4413      	add	r3, r2
 8002bbe:	f9b7 2008 	ldrsh.w	r2, [r7, #8]
 8002bc2:	3201      	adds	r2, #1
 8002bc4:	f833 3012 	ldrh.w	r3, [r3, r2, lsl #1]
 8002bc8:	461a      	mov	r2, r3
 8002bca:	69bb      	ldr	r3, [r7, #24]
 8002bcc:	429a      	cmp	r2, r3
 8002bce:	d101      	bne.n	8002bd4 <checkBlockade+0x6d0>
				temp = 1;
 8002bd0:	2301      	movs	r3, #1
 8002bd2:	65fb      	str	r3, [r7, #92]	; 0x5c
			if (matrix[x0][y0+1]==i || matrix[x0+6][y0+1]==i)
				temp = 1;
	}
	// ak objekt je ..,
	else if (cisloTvaru == 16){
		for (int i = 2; i<10; i++)
 8002bd4:	69bb      	ldr	r3, [r7, #24]
 8002bd6:	3301      	adds	r3, #1
 8002bd8:	61bb      	str	r3, [r7, #24]
 8002bda:	69bb      	ldr	r3, [r7, #24]
 8002bdc:	2b09      	cmp	r3, #9
 8002bde:	ddcb      	ble.n	8002b78 <checkBlockade+0x674>
 8002be0:	e065      	b.n	8002cae <checkBlockade+0x7aa>
			if (matrix[x0][y0-5]==i || matrix[x0+6][y0-5]==i || matrix[x0+12][y0+1]==i)
				temp = 1;
	}
	// ak objekt je |'
	else if (cisloTvaru == 17){
 8002be2:	687b      	ldr	r3, [r7, #4]
 8002be4:	2b11      	cmp	r3, #17
 8002be6:	d128      	bne.n	8002c3a <checkBlockade+0x736>
		for (int i = 2; i<10; i++)
 8002be8:	2302      	movs	r3, #2
 8002bea:	617b      	str	r3, [r7, #20]
 8002bec:	e021      	b.n	8002c32 <checkBlockade+0x72e>
			if (matrix[x0][y0+1]==i || matrix[x0+6][y0-11]==i)
 8002bee:	f9b7 300a 	ldrsh.w	r3, [r7, #10]
 8002bf2:	021b      	lsls	r3, r3, #8
 8002bf4:	68fa      	ldr	r2, [r7, #12]
 8002bf6:	4413      	add	r3, r2
 8002bf8:	f9b7 2008 	ldrsh.w	r2, [r7, #8]
 8002bfc:	3201      	adds	r2, #1
 8002bfe:	f833 3012 	ldrh.w	r3, [r3, r2, lsl #1]
 8002c02:	461a      	mov	r2, r3
 8002c04:	697b      	ldr	r3, [r7, #20]
 8002c06:	429a      	cmp	r2, r3
 8002c08:	d00e      	beq.n	8002c28 <checkBlockade+0x724>
 8002c0a:	f9b7 300a 	ldrsh.w	r3, [r7, #10]
 8002c0e:	3306      	adds	r3, #6
 8002c10:	021b      	lsls	r3, r3, #8
 8002c12:	68fa      	ldr	r2, [r7, #12]
 8002c14:	4413      	add	r3, r2
 8002c16:	f9b7 2008 	ldrsh.w	r2, [r7, #8]
 8002c1a:	3a0b      	subs	r2, #11
 8002c1c:	f833 3012 	ldrh.w	r3, [r3, r2, lsl #1]
 8002c20:	461a      	mov	r2, r3
 8002c22:	697b      	ldr	r3, [r7, #20]
 8002c24:	429a      	cmp	r2, r3
 8002c26:	d101      	bne.n	8002c2c <checkBlockade+0x728>
				temp = 1;
 8002c28:	2301      	movs	r3, #1
 8002c2a:	65fb      	str	r3, [r7, #92]	; 0x5c
			if (matrix[x0][y0-5]==i || matrix[x0+6][y0-5]==i || matrix[x0+12][y0+1]==i)
				temp = 1;
	}
	// ak objekt je |'
	else if (cisloTvaru == 17){
		for (int i = 2; i<10; i++)
 8002c2c:	697b      	ldr	r3, [r7, #20]
 8002c2e:	3301      	adds	r3, #1
 8002c30:	617b      	str	r3, [r7, #20]
 8002c32:	697b      	ldr	r3, [r7, #20]
 8002c34:	2b09      	cmp	r3, #9
 8002c36:	ddda      	ble.n	8002bee <checkBlockade+0x6ea>
 8002c38:	e039      	b.n	8002cae <checkBlockade+0x7aa>
			if (matrix[x0][y0+1]==i || matrix[x0+6][y0-11]==i)
				temp = 1;
	}
	// ak objekt je ._
	else if (cisloTvaru == 18){
 8002c3a:	687b      	ldr	r3, [r7, #4]
 8002c3c:	2b12      	cmp	r3, #18
 8002c3e:	d136      	bne.n	8002cae <checkBlockade+0x7aa>
		for (int i = 2; i<10; i++)
 8002c40:	2302      	movs	r3, #2
 8002c42:	613b      	str	r3, [r7, #16]
 8002c44:	e030      	b.n	8002ca8 <checkBlockade+0x7a4>
			if (matrix[x0][y0+1]==i || matrix[x0+6][y0+1]==i || matrix[x0+12][y0+1]==i)
 8002c46:	f9b7 300a 	ldrsh.w	r3, [r7, #10]
 8002c4a:	021b      	lsls	r3, r3, #8
 8002c4c:	68fa      	ldr	r2, [r7, #12]
 8002c4e:	4413      	add	r3, r2
 8002c50:	f9b7 2008 	ldrsh.w	r2, [r7, #8]
 8002c54:	3201      	adds	r2, #1
 8002c56:	f833 3012 	ldrh.w	r3, [r3, r2, lsl #1]
 8002c5a:	461a      	mov	r2, r3
 8002c5c:	693b      	ldr	r3, [r7, #16]
 8002c5e:	429a      	cmp	r2, r3
 8002c60:	d01d      	beq.n	8002c9e <checkBlockade+0x79a>
 8002c62:	f9b7 300a 	ldrsh.w	r3, [r7, #10]
 8002c66:	3306      	adds	r3, #6
 8002c68:	021b      	lsls	r3, r3, #8
 8002c6a:	68fa      	ldr	r2, [r7, #12]
 8002c6c:	4413      	add	r3, r2
 8002c6e:	f9b7 2008 	ldrsh.w	r2, [r7, #8]
 8002c72:	3201      	adds	r2, #1
 8002c74:	f833 3012 	ldrh.w	r3, [r3, r2, lsl #1]
 8002c78:	461a      	mov	r2, r3
 8002c7a:	693b      	ldr	r3, [r7, #16]
 8002c7c:	429a      	cmp	r2, r3
 8002c7e:	d00e      	beq.n	8002c9e <checkBlockade+0x79a>
 8002c80:	f9b7 300a 	ldrsh.w	r3, [r7, #10]
 8002c84:	330c      	adds	r3, #12
 8002c86:	021b      	lsls	r3, r3, #8
 8002c88:	68fa      	ldr	r2, [r7, #12]
 8002c8a:	4413      	add	r3, r2
 8002c8c:	f9b7 2008 	ldrsh.w	r2, [r7, #8]
 8002c90:	3201      	adds	r2, #1
 8002c92:	f833 3012 	ldrh.w	r3, [r3, r2, lsl #1]
 8002c96:	461a      	mov	r2, r3
 8002c98:	693b      	ldr	r3, [r7, #16]
 8002c9a:	429a      	cmp	r2, r3
 8002c9c:	d101      	bne.n	8002ca2 <checkBlockade+0x79e>
				temp = 1;
 8002c9e:	2301      	movs	r3, #1
 8002ca0:	65fb      	str	r3, [r7, #92]	; 0x5c
			if (matrix[x0][y0+1]==i || matrix[x0+6][y0-11]==i)
				temp = 1;
	}
	// ak objekt je ._
	else if (cisloTvaru == 18){
		for (int i = 2; i<10; i++)
 8002ca2:	693b      	ldr	r3, [r7, #16]
 8002ca4:	3301      	adds	r3, #1
 8002ca6:	613b      	str	r3, [r7, #16]
 8002ca8:	693b      	ldr	r3, [r7, #16]
 8002caa:	2b09      	cmp	r3, #9
 8002cac:	ddcb      	ble.n	8002c46 <checkBlockade+0x742>
			if (matrix[x0][y0+1]==i || matrix[x0+6][y0+1]==i || matrix[x0+12][y0+1]==i)
				temp = 1;
	}
	return temp;
 8002cae:	6dfb      	ldr	r3, [r7, #92]	; 0x5c
}
 8002cb0:	4618      	mov	r0, r3
 8002cb2:	3764      	adds	r7, #100	; 0x64
 8002cb4:	46bd      	mov	sp, r7
 8002cb6:	bc80      	pop	{r7}
 8002cb8:	4770      	bx	lr
 8002cba:	bf00      	nop

08002cbc <checkLeftSide>:

int checkLeftSide(uint16_t matrix[128][128], int16_t x0, int16_t y0, int cisloTvaru){
 8002cbc:	b480      	push	{r7}
 8002cbe:	b099      	sub	sp, #100	; 0x64
 8002cc0:	af00      	add	r7, sp, #0
 8002cc2:	60f8      	str	r0, [r7, #12]
 8002cc4:	607b      	str	r3, [r7, #4]
 8002cc6:	460b      	mov	r3, r1
 8002cc8:	817b      	strh	r3, [r7, #10]
 8002cca:	4613      	mov	r3, r2
 8002ccc:	813b      	strh	r3, [r7, #8]
	int temp = 0;
 8002cce:	2300      	movs	r3, #0
 8002cd0:	65fb      	str	r3, [r7, #92]	; 0x5c
	// ak objekt je stvorec
	if (cisloTvaru == 0){
 8002cd2:	687b      	ldr	r3, [r7, #4]
 8002cd4:	2b00      	cmp	r3, #0
 8002cd6:	d12f      	bne.n	8002d38 <checkLeftSide+0x7c>
		for (int i = 2; i<10; i++)
 8002cd8:	2302      	movs	r3, #2
 8002cda:	65bb      	str	r3, [r7, #88]	; 0x58
 8002cdc:	e027      	b.n	8002d2e <checkLeftSide+0x72>
			if (matrix[x0-1][y0]==i || matrix[x0-1][y0-6]==i)
 8002cde:	f9b7 300a 	ldrsh.w	r3, [r7, #10]
 8002ce2:	f103 13ff 	add.w	r3, r3, #16711935	; 0xff00ff
 8002ce6:	f503 437f 	add.w	r3, r3, #65280	; 0xff00
 8002cea:	021b      	lsls	r3, r3, #8
 8002cec:	68fa      	ldr	r2, [r7, #12]
 8002cee:	4413      	add	r3, r2
 8002cf0:	f9b7 2008 	ldrsh.w	r2, [r7, #8]
 8002cf4:	f833 3012 	ldrh.w	r3, [r3, r2, lsl #1]
 8002cf8:	461a      	mov	r2, r3
 8002cfa:	6dbb      	ldr	r3, [r7, #88]	; 0x58
 8002cfc:	429a      	cmp	r2, r3
 8002cfe:	d011      	beq.n	8002d24 <checkLeftSide+0x68>
 8002d00:	f9b7 300a 	ldrsh.w	r3, [r7, #10]
 8002d04:	f103 13ff 	add.w	r3, r3, #16711935	; 0xff00ff
 8002d08:	f503 437f 	add.w	r3, r3, #65280	; 0xff00
 8002d0c:	021b      	lsls	r3, r3, #8
 8002d0e:	68fa      	ldr	r2, [r7, #12]
 8002d10:	4413      	add	r3, r2
 8002d12:	f9b7 2008 	ldrsh.w	r2, [r7, #8]
 8002d16:	3a06      	subs	r2, #6
 8002d18:	f833 3012 	ldrh.w	r3, [r3, r2, lsl #1]
 8002d1c:	461a      	mov	r2, r3
 8002d1e:	6dbb      	ldr	r3, [r7, #88]	; 0x58
 8002d20:	429a      	cmp	r2, r3
 8002d22:	d101      	bne.n	8002d28 <checkLeftSide+0x6c>
				temp = 1;
 8002d24:	2301      	movs	r3, #1
 8002d26:	65fb      	str	r3, [r7, #92]	; 0x5c

int checkLeftSide(uint16_t matrix[128][128], int16_t x0, int16_t y0, int cisloTvaru){
	int temp = 0;
	// ak objekt je stvorec
	if (cisloTvaru == 0){
		for (int i = 2; i<10; i++)
 8002d28:	6dbb      	ldr	r3, [r7, #88]	; 0x58
 8002d2a:	3301      	adds	r3, #1
 8002d2c:	65bb      	str	r3, [r7, #88]	; 0x58
 8002d2e:	6dbb      	ldr	r3, [r7, #88]	; 0x58
 8002d30:	2b09      	cmp	r3, #9
 8002d32:	ddd4      	ble.n	8002cde <checkLeftSide+0x22>
 8002d34:	f000 bc0b 	b.w	800354e <checkLeftSide+0x892>
			if (matrix[x0-1][y0]==i || matrix[x0-1][y0-6]==i)
				temp = 1;
	}
	// ak objekt je |
	else if (cisloTvaru == 1){
 8002d38:	687b      	ldr	r3, [r7, #4]
 8002d3a:	2b01      	cmp	r3, #1
 8002d3c:	d152      	bne.n	8002de4 <checkLeftSide+0x128>
		for (int i = 2; i<10; i++)
 8002d3e:	2302      	movs	r3, #2
 8002d40:	657b      	str	r3, [r7, #84]	; 0x54
 8002d42:	e04b      	b.n	8002ddc <checkLeftSide+0x120>
			if (matrix[x0-1][y0]==i || matrix[x0-1][y0-6]==i || matrix[x0-1][y0-12]==i || matrix[x0-1][y0-18]==i)
 8002d44:	f9b7 300a 	ldrsh.w	r3, [r7, #10]
 8002d48:	f103 13ff 	add.w	r3, r3, #16711935	; 0xff00ff
 8002d4c:	f503 437f 	add.w	r3, r3, #65280	; 0xff00
 8002d50:	021b      	lsls	r3, r3, #8
 8002d52:	68fa      	ldr	r2, [r7, #12]
 8002d54:	4413      	add	r3, r2
 8002d56:	f9b7 2008 	ldrsh.w	r2, [r7, #8]
 8002d5a:	f833 3012 	ldrh.w	r3, [r3, r2, lsl #1]
 8002d5e:	461a      	mov	r2, r3
 8002d60:	6d7b      	ldr	r3, [r7, #84]	; 0x54
 8002d62:	429a      	cmp	r2, r3
 8002d64:	d035      	beq.n	8002dd2 <checkLeftSide+0x116>
 8002d66:	f9b7 300a 	ldrsh.w	r3, [r7, #10]
 8002d6a:	f103 13ff 	add.w	r3, r3, #16711935	; 0xff00ff
 8002d6e:	f503 437f 	add.w	r3, r3, #65280	; 0xff00
 8002d72:	021b      	lsls	r3, r3, #8
 8002d74:	68fa      	ldr	r2, [r7, #12]
 8002d76:	4413      	add	r3, r2
 8002d78:	f9b7 2008 	ldrsh.w	r2, [r7, #8]
 8002d7c:	3a06      	subs	r2, #6
 8002d7e:	f833 3012 	ldrh.w	r3, [r3, r2, lsl #1]
 8002d82:	461a      	mov	r2, r3
 8002d84:	6d7b      	ldr	r3, [r7, #84]	; 0x54
 8002d86:	429a      	cmp	r2, r3
 8002d88:	d023      	beq.n	8002dd2 <checkLeftSide+0x116>
 8002d8a:	f9b7 300a 	ldrsh.w	r3, [r7, #10]
 8002d8e:	f103 13ff 	add.w	r3, r3, #16711935	; 0xff00ff
 8002d92:	f503 437f 	add.w	r3, r3, #65280	; 0xff00
 8002d96:	021b      	lsls	r3, r3, #8
 8002d98:	68fa      	ldr	r2, [r7, #12]
 8002d9a:	4413      	add	r3, r2
 8002d9c:	f9b7 2008 	ldrsh.w	r2, [r7, #8]
 8002da0:	3a0c      	subs	r2, #12
 8002da2:	f833 3012 	ldrh.w	r3, [r3, r2, lsl #1]
 8002da6:	461a      	mov	r2, r3
 8002da8:	6d7b      	ldr	r3, [r7, #84]	; 0x54
 8002daa:	429a      	cmp	r2, r3
 8002dac:	d011      	beq.n	8002dd2 <checkLeftSide+0x116>
 8002dae:	f9b7 300a 	ldrsh.w	r3, [r7, #10]
 8002db2:	f103 13ff 	add.w	r3, r3, #16711935	; 0xff00ff
 8002db6:	f503 437f 	add.w	r3, r3, #65280	; 0xff00
 8002dba:	021b      	lsls	r3, r3, #8
 8002dbc:	68fa      	ldr	r2, [r7, #12]
 8002dbe:	4413      	add	r3, r2
 8002dc0:	f9b7 2008 	ldrsh.w	r2, [r7, #8]
 8002dc4:	3a12      	subs	r2, #18
 8002dc6:	f833 3012 	ldrh.w	r3, [r3, r2, lsl #1]
 8002dca:	461a      	mov	r2, r3
 8002dcc:	6d7b      	ldr	r3, [r7, #84]	; 0x54
 8002dce:	429a      	cmp	r2, r3
 8002dd0:	d101      	bne.n	8002dd6 <checkLeftSide+0x11a>
				temp = 1;
 8002dd2:	2301      	movs	r3, #1
 8002dd4:	65fb      	str	r3, [r7, #92]	; 0x5c
			if (matrix[x0-1][y0]==i || matrix[x0-1][y0-6]==i)
				temp = 1;
	}
	// ak objekt je |
	else if (cisloTvaru == 1){
		for (int i = 2; i<10; i++)
 8002dd6:	6d7b      	ldr	r3, [r7, #84]	; 0x54
 8002dd8:	3301      	adds	r3, #1
 8002dda:	657b      	str	r3, [r7, #84]	; 0x54
 8002ddc:	6d7b      	ldr	r3, [r7, #84]	; 0x54
 8002dde:	2b09      	cmp	r3, #9
 8002de0:	ddb0      	ble.n	8002d44 <checkLeftSide+0x88>
 8002de2:	e3b4      	b.n	800354e <checkLeftSide+0x892>
			if (matrix[x0-1][y0]==i || matrix[x0-1][y0-6]==i || matrix[x0-1][y0-12]==i || matrix[x0-1][y0-18]==i)
				temp = 1;
	}
	// ak objekt je stvorec _
	else if (cisloTvaru == 2){
 8002de4:	687b      	ldr	r3, [r7, #4]
 8002de6:	2b02      	cmp	r3, #2
 8002de8:	d11c      	bne.n	8002e24 <checkLeftSide+0x168>
		for (int i = 2; i<10; i++)
 8002dea:	2302      	movs	r3, #2
 8002dec:	653b      	str	r3, [r7, #80]	; 0x50
 8002dee:	e015      	b.n	8002e1c <checkLeftSide+0x160>
			if (matrix[x0-1][y0]==i)
 8002df0:	f9b7 300a 	ldrsh.w	r3, [r7, #10]
 8002df4:	f103 13ff 	add.w	r3, r3, #16711935	; 0xff00ff
 8002df8:	f503 437f 	add.w	r3, r3, #65280	; 0xff00
 8002dfc:	021b      	lsls	r3, r3, #8
 8002dfe:	68fa      	ldr	r2, [r7, #12]
 8002e00:	4413      	add	r3, r2
 8002e02:	f9b7 2008 	ldrsh.w	r2, [r7, #8]
 8002e06:	f833 3012 	ldrh.w	r3, [r3, r2, lsl #1]
 8002e0a:	461a      	mov	r2, r3
 8002e0c:	6d3b      	ldr	r3, [r7, #80]	; 0x50
 8002e0e:	429a      	cmp	r2, r3
 8002e10:	d101      	bne.n	8002e16 <checkLeftSide+0x15a>
				temp = 1;
 8002e12:	2301      	movs	r3, #1
 8002e14:	65fb      	str	r3, [r7, #92]	; 0x5c
			if (matrix[x0-1][y0]==i || matrix[x0-1][y0-6]==i || matrix[x0-1][y0-12]==i || matrix[x0-1][y0-18]==i)
				temp = 1;
	}
	// ak objekt je stvorec _
	else if (cisloTvaru == 2){
		for (int i = 2; i<10; i++)
 8002e16:	6d3b      	ldr	r3, [r7, #80]	; 0x50
 8002e18:	3301      	adds	r3, #1
 8002e1a:	653b      	str	r3, [r7, #80]	; 0x50
 8002e1c:	6d3b      	ldr	r3, [r7, #80]	; 0x50
 8002e1e:	2b09      	cmp	r3, #9
 8002e20:	dde6      	ble.n	8002df0 <checkLeftSide+0x134>
 8002e22:	e394      	b.n	800354e <checkLeftSide+0x892>
			if (matrix[x0-1][y0]==i)
				temp = 1;
	}
	// ak objekt je Z
	else if (cisloTvaru == 3){
 8002e24:	687b      	ldr	r3, [r7, #4]
 8002e26:	2b03      	cmp	r3, #3
 8002e28:	d13b      	bne.n	8002ea2 <checkLeftSide+0x1e6>
		if (matrix[x0+5][y0]==2 || matrix[x0+5][y0]==3 || matrix[x0-1][y0-6]==2 || matrix[x0-1][y0-6]==3)
 8002e2a:	f9b7 300a 	ldrsh.w	r3, [r7, #10]
 8002e2e:	3305      	adds	r3, #5
 8002e30:	021b      	lsls	r3, r3, #8
 8002e32:	68fa      	ldr	r2, [r7, #12]
 8002e34:	4413      	add	r3, r2
 8002e36:	f9b7 2008 	ldrsh.w	r2, [r7, #8]
 8002e3a:	f833 3012 	ldrh.w	r3, [r3, r2, lsl #1]
 8002e3e:	2b02      	cmp	r3, #2
 8002e40:	d02c      	beq.n	8002e9c <checkLeftSide+0x1e0>
 8002e42:	f9b7 300a 	ldrsh.w	r3, [r7, #10]
 8002e46:	3305      	adds	r3, #5
 8002e48:	021b      	lsls	r3, r3, #8
 8002e4a:	68fa      	ldr	r2, [r7, #12]
 8002e4c:	4413      	add	r3, r2
 8002e4e:	f9b7 2008 	ldrsh.w	r2, [r7, #8]
 8002e52:	f833 3012 	ldrh.w	r3, [r3, r2, lsl #1]
 8002e56:	2b03      	cmp	r3, #3
 8002e58:	d020      	beq.n	8002e9c <checkLeftSide+0x1e0>
 8002e5a:	f9b7 300a 	ldrsh.w	r3, [r7, #10]
 8002e5e:	f103 13ff 	add.w	r3, r3, #16711935	; 0xff00ff
 8002e62:	f503 437f 	add.w	r3, r3, #65280	; 0xff00
 8002e66:	021b      	lsls	r3, r3, #8
 8002e68:	68fa      	ldr	r2, [r7, #12]
 8002e6a:	4413      	add	r3, r2
 8002e6c:	f9b7 2008 	ldrsh.w	r2, [r7, #8]
 8002e70:	3a06      	subs	r2, #6
 8002e72:	f833 3012 	ldrh.w	r3, [r3, r2, lsl #1]
 8002e76:	2b02      	cmp	r3, #2
 8002e78:	d010      	beq.n	8002e9c <checkLeftSide+0x1e0>
 8002e7a:	f9b7 300a 	ldrsh.w	r3, [r7, #10]
 8002e7e:	f103 13ff 	add.w	r3, r3, #16711935	; 0xff00ff
 8002e82:	f503 437f 	add.w	r3, r3, #65280	; 0xff00
 8002e86:	021b      	lsls	r3, r3, #8
 8002e88:	68fa      	ldr	r2, [r7, #12]
 8002e8a:	4413      	add	r3, r2
 8002e8c:	f9b7 2008 	ldrsh.w	r2, [r7, #8]
 8002e90:	3a06      	subs	r2, #6
 8002e92:	f833 3012 	ldrh.w	r3, [r3, r2, lsl #1]
 8002e96:	2b03      	cmp	r3, #3
 8002e98:	f040 8359 	bne.w	800354e <checkLeftSide+0x892>
			temp = 1;
 8002e9c:	2301      	movs	r3, #1
 8002e9e:	65fb      	str	r3, [r7, #92]	; 0x5c
 8002ea0:	e355      	b.n	800354e <checkLeftSide+0x892>
	}
	// ak objekt je N
	else if (cisloTvaru == 4){
 8002ea2:	687b      	ldr	r3, [r7, #4]
 8002ea4:	2b04      	cmp	r3, #4
 8002ea6:	d13d      	bne.n	8002f24 <checkLeftSide+0x268>
		for (int i = 2; i<10; i++)
 8002ea8:	2302      	movs	r3, #2
 8002eaa:	64fb      	str	r3, [r7, #76]	; 0x4c
 8002eac:	e036      	b.n	8002f1c <checkLeftSide+0x260>
			if (matrix[x0-1][y0]==i || matrix[x0-1][y0-6]==i || matrix[x0+5][y0-12]==i)
 8002eae:	f9b7 300a 	ldrsh.w	r3, [r7, #10]
 8002eb2:	f103 13ff 	add.w	r3, r3, #16711935	; 0xff00ff
 8002eb6:	f503 437f 	add.w	r3, r3, #65280	; 0xff00
 8002eba:	021b      	lsls	r3, r3, #8
 8002ebc:	68fa      	ldr	r2, [r7, #12]
 8002ebe:	4413      	add	r3, r2
 8002ec0:	f9b7 2008 	ldrsh.w	r2, [r7, #8]
 8002ec4:	f833 3012 	ldrh.w	r3, [r3, r2, lsl #1]
 8002ec8:	461a      	mov	r2, r3
 8002eca:	6cfb      	ldr	r3, [r7, #76]	; 0x4c
 8002ecc:	429a      	cmp	r2, r3
 8002ece:	d020      	beq.n	8002f12 <checkLeftSide+0x256>
 8002ed0:	f9b7 300a 	ldrsh.w	r3, [r7, #10]
 8002ed4:	f103 13ff 	add.w	r3, r3, #16711935	; 0xff00ff
 8002ed8:	f503 437f 	add.w	r3, r3, #65280	; 0xff00
 8002edc:	021b      	lsls	r3, r3, #8
 8002ede:	68fa      	ldr	r2, [r7, #12]
 8002ee0:	4413      	add	r3, r2
 8002ee2:	f9b7 2008 	ldrsh.w	r2, [r7, #8]
 8002ee6:	3a06      	subs	r2, #6
 8002ee8:	f833 3012 	ldrh.w	r3, [r3, r2, lsl #1]
 8002eec:	461a      	mov	r2, r3
 8002eee:	6cfb      	ldr	r3, [r7, #76]	; 0x4c
 8002ef0:	429a      	cmp	r2, r3
 8002ef2:	d00e      	beq.n	8002f12 <checkLeftSide+0x256>
 8002ef4:	f9b7 300a 	ldrsh.w	r3, [r7, #10]
 8002ef8:	3305      	adds	r3, #5
 8002efa:	021b      	lsls	r3, r3, #8
 8002efc:	68fa      	ldr	r2, [r7, #12]
 8002efe:	4413      	add	r3, r2
 8002f00:	f9b7 2008 	ldrsh.w	r2, [r7, #8]
 8002f04:	3a0c      	subs	r2, #12
 8002f06:	f833 3012 	ldrh.w	r3, [r3, r2, lsl #1]
 8002f0a:	461a      	mov	r2, r3
 8002f0c:	6cfb      	ldr	r3, [r7, #76]	; 0x4c
 8002f0e:	429a      	cmp	r2, r3
 8002f10:	d101      	bne.n	8002f16 <checkLeftSide+0x25a>
				temp = 1;
 8002f12:	2301      	movs	r3, #1
 8002f14:	65fb      	str	r3, [r7, #92]	; 0x5c
		if (matrix[x0+5][y0]==2 || matrix[x0+5][y0]==3 || matrix[x0-1][y0-6]==2 || matrix[x0-1][y0-6]==3)
			temp = 1;
	}
	// ak objekt je N
	else if (cisloTvaru == 4){
		for (int i = 2; i<10; i++)
 8002f16:	6cfb      	ldr	r3, [r7, #76]	; 0x4c
 8002f18:	3301      	adds	r3, #1
 8002f1a:	64fb      	str	r3, [r7, #76]	; 0x4c
 8002f1c:	6cfb      	ldr	r3, [r7, #76]	; 0x4c
 8002f1e:	2b09      	cmp	r3, #9
 8002f20:	ddc5      	ble.n	8002eae <checkLeftSide+0x1f2>
 8002f22:	e314      	b.n	800354e <checkLeftSide+0x892>
			if (matrix[x0-1][y0]==i || matrix[x0-1][y0-6]==i || matrix[x0+5][y0-12]==i)
				temp = 1;
	}
	// ak objekt je opacny Z
	else if (cisloTvaru == 5){
 8002f24:	687b      	ldr	r3, [r7, #4]
 8002f26:	2b05      	cmp	r3, #5
 8002f28:	d12b      	bne.n	8002f82 <checkLeftSide+0x2c6>
		for (int i = 2; i<10; i++)
 8002f2a:	2302      	movs	r3, #2
 8002f2c:	64bb      	str	r3, [r7, #72]	; 0x48
 8002f2e:	e024      	b.n	8002f7a <checkLeftSide+0x2be>
			if (matrix[x0-1][y0]==i || matrix[x0+5][y0-6]==i)
 8002f30:	f9b7 300a 	ldrsh.w	r3, [r7, #10]
 8002f34:	f103 13ff 	add.w	r3, r3, #16711935	; 0xff00ff
 8002f38:	f503 437f 	add.w	r3, r3, #65280	; 0xff00
 8002f3c:	021b      	lsls	r3, r3, #8
 8002f3e:	68fa      	ldr	r2, [r7, #12]
 8002f40:	4413      	add	r3, r2
 8002f42:	f9b7 2008 	ldrsh.w	r2, [r7, #8]
 8002f46:	f833 3012 	ldrh.w	r3, [r3, r2, lsl #1]
 8002f4a:	461a      	mov	r2, r3
 8002f4c:	6cbb      	ldr	r3, [r7, #72]	; 0x48
 8002f4e:	429a      	cmp	r2, r3
 8002f50:	d00e      	beq.n	8002f70 <checkLeftSide+0x2b4>
 8002f52:	f9b7 300a 	ldrsh.w	r3, [r7, #10]
 8002f56:	3305      	adds	r3, #5
 8002f58:	021b      	lsls	r3, r3, #8
 8002f5a:	68fa      	ldr	r2, [r7, #12]
 8002f5c:	4413      	add	r3, r2
 8002f5e:	f9b7 2008 	ldrsh.w	r2, [r7, #8]
 8002f62:	3a06      	subs	r2, #6
 8002f64:	f833 3012 	ldrh.w	r3, [r3, r2, lsl #1]
 8002f68:	461a      	mov	r2, r3
 8002f6a:	6cbb      	ldr	r3, [r7, #72]	; 0x48
 8002f6c:	429a      	cmp	r2, r3
 8002f6e:	d101      	bne.n	8002f74 <checkLeftSide+0x2b8>
				temp = 1;
 8002f70:	2301      	movs	r3, #1
 8002f72:	65fb      	str	r3, [r7, #92]	; 0x5c
			if (matrix[x0-1][y0]==i || matrix[x0-1][y0-6]==i || matrix[x0+5][y0-12]==i)
				temp = 1;
	}
	// ak objekt je opacny Z
	else if (cisloTvaru == 5){
		for (int i = 2; i<10; i++)
 8002f74:	6cbb      	ldr	r3, [r7, #72]	; 0x48
 8002f76:	3301      	adds	r3, #1
 8002f78:	64bb      	str	r3, [r7, #72]	; 0x48
 8002f7a:	6cbb      	ldr	r3, [r7, #72]	; 0x48
 8002f7c:	2b09      	cmp	r3, #9
 8002f7e:	ddd7      	ble.n	8002f30 <checkLeftSide+0x274>
 8002f80:	e2e5      	b.n	800354e <checkLeftSide+0x892>
			if (matrix[x0-1][y0]==i || matrix[x0+5][y0-6]==i)
				temp = 1;
	}
	// ak objekt je opacny N
	else if (cisloTvaru == 6){
 8002f82:	687b      	ldr	r3, [r7, #4]
 8002f84:	2b06      	cmp	r3, #6
 8002f86:	d13d      	bne.n	8003004 <checkLeftSide+0x348>
		for (int i = 2; i<10; i++)
 8002f88:	2302      	movs	r3, #2
 8002f8a:	647b      	str	r3, [r7, #68]	; 0x44
 8002f8c:	e036      	b.n	8002ffc <checkLeftSide+0x340>
			if (matrix[x0+5][y0]==i || matrix[x0-1][y0-6]==i || matrix[x0-1][y0-12]==i)
 8002f8e:	f9b7 300a 	ldrsh.w	r3, [r7, #10]
 8002f92:	3305      	adds	r3, #5
 8002f94:	021b      	lsls	r3, r3, #8
 8002f96:	68fa      	ldr	r2, [r7, #12]
 8002f98:	4413      	add	r3, r2
 8002f9a:	f9b7 2008 	ldrsh.w	r2, [r7, #8]
 8002f9e:	f833 3012 	ldrh.w	r3, [r3, r2, lsl #1]
 8002fa2:	461a      	mov	r2, r3
 8002fa4:	6c7b      	ldr	r3, [r7, #68]	; 0x44
 8002fa6:	429a      	cmp	r2, r3
 8002fa8:	d023      	beq.n	8002ff2 <checkLeftSide+0x336>
 8002faa:	f9b7 300a 	ldrsh.w	r3, [r7, #10]
 8002fae:	f103 13ff 	add.w	r3, r3, #16711935	; 0xff00ff
 8002fb2:	f503 437f 	add.w	r3, r3, #65280	; 0xff00
 8002fb6:	021b      	lsls	r3, r3, #8
 8002fb8:	68fa      	ldr	r2, [r7, #12]
 8002fba:	4413      	add	r3, r2
 8002fbc:	f9b7 2008 	ldrsh.w	r2, [r7, #8]
 8002fc0:	3a06      	subs	r2, #6
 8002fc2:	f833 3012 	ldrh.w	r3, [r3, r2, lsl #1]
 8002fc6:	461a      	mov	r2, r3
 8002fc8:	6c7b      	ldr	r3, [r7, #68]	; 0x44
 8002fca:	429a      	cmp	r2, r3
 8002fcc:	d011      	beq.n	8002ff2 <checkLeftSide+0x336>
 8002fce:	f9b7 300a 	ldrsh.w	r3, [r7, #10]
 8002fd2:	f103 13ff 	add.w	r3, r3, #16711935	; 0xff00ff
 8002fd6:	f503 437f 	add.w	r3, r3, #65280	; 0xff00
 8002fda:	021b      	lsls	r3, r3, #8
 8002fdc:	68fa      	ldr	r2, [r7, #12]
 8002fde:	4413      	add	r3, r2
 8002fe0:	f9b7 2008 	ldrsh.w	r2, [r7, #8]
 8002fe4:	3a0c      	subs	r2, #12
 8002fe6:	f833 3012 	ldrh.w	r3, [r3, r2, lsl #1]
 8002fea:	461a      	mov	r2, r3
 8002fec:	6c7b      	ldr	r3, [r7, #68]	; 0x44
 8002fee:	429a      	cmp	r2, r3
 8002ff0:	d101      	bne.n	8002ff6 <checkLeftSide+0x33a>
				temp = 1;
 8002ff2:	2301      	movs	r3, #1
 8002ff4:	65fb      	str	r3, [r7, #92]	; 0x5c
			if (matrix[x0-1][y0]==i || matrix[x0+5][y0-6]==i)
				temp = 1;
	}
	// ak objekt je opacny N
	else if (cisloTvaru == 6){
		for (int i = 2; i<10; i++)
 8002ff6:	6c7b      	ldr	r3, [r7, #68]	; 0x44
 8002ff8:	3301      	adds	r3, #1
 8002ffa:	647b      	str	r3, [r7, #68]	; 0x44
 8002ffc:	6c7b      	ldr	r3, [r7, #68]	; 0x44
 8002ffe:	2b09      	cmp	r3, #9
 8003000:	ddc5      	ble.n	8002f8e <checkLeftSide+0x2d2>
 8003002:	e2a4      	b.n	800354e <checkLeftSide+0x892>
			if (matrix[x0+5][y0]==i || matrix[x0-1][y0-6]==i || matrix[x0-1][y0-12]==i)
				temp = 1;
	}
	// ak objekt je L
	else if (cisloTvaru == 7){
 8003004:	687b      	ldr	r3, [r7, #4]
 8003006:	2b07      	cmp	r3, #7
 8003008:	d140      	bne.n	800308c <checkLeftSide+0x3d0>
		for (int i = 2; i<10; i++)
 800300a:	2302      	movs	r3, #2
 800300c:	643b      	str	r3, [r7, #64]	; 0x40
 800300e:	e039      	b.n	8003084 <checkLeftSide+0x3c8>
			if (matrix[x0-1][y0]==i || matrix[x0-1][y0-6]==i || matrix[x0-1][y0-12]==i)
 8003010:	f9b7 300a 	ldrsh.w	r3, [r7, #10]
 8003014:	f103 13ff 	add.w	r3, r3, #16711935	; 0xff00ff
 8003018:	f503 437f 	add.w	r3, r3, #65280	; 0xff00
 800301c:	021b      	lsls	r3, r3, #8
 800301e:	68fa      	ldr	r2, [r7, #12]
 8003020:	4413      	add	r3, r2
 8003022:	f9b7 2008 	ldrsh.w	r2, [r7, #8]
 8003026:	f833 3012 	ldrh.w	r3, [r3, r2, lsl #1]
 800302a:	461a      	mov	r2, r3
 800302c:	6c3b      	ldr	r3, [r7, #64]	; 0x40
 800302e:	429a      	cmp	r2, r3
 8003030:	d023      	beq.n	800307a <checkLeftSide+0x3be>
 8003032:	f9b7 300a 	ldrsh.w	r3, [r7, #10]
 8003036:	f103 13ff 	add.w	r3, r3, #16711935	; 0xff00ff
 800303a:	f503 437f 	add.w	r3, r3, #65280	; 0xff00
 800303e:	021b      	lsls	r3, r3, #8
 8003040:	68fa      	ldr	r2, [r7, #12]
 8003042:	4413      	add	r3, r2
 8003044:	f9b7 2008 	ldrsh.w	r2, [r7, #8]
 8003048:	3a06      	subs	r2, #6
 800304a:	f833 3012 	ldrh.w	r3, [r3, r2, lsl #1]
 800304e:	461a      	mov	r2, r3
 8003050:	6c3b      	ldr	r3, [r7, #64]	; 0x40
 8003052:	429a      	cmp	r2, r3
 8003054:	d011      	beq.n	800307a <checkLeftSide+0x3be>
 8003056:	f9b7 300a 	ldrsh.w	r3, [r7, #10]
 800305a:	f103 13ff 	add.w	r3, r3, #16711935	; 0xff00ff
 800305e:	f503 437f 	add.w	r3, r3, #65280	; 0xff00
 8003062:	021b      	lsls	r3, r3, #8
 8003064:	68fa      	ldr	r2, [r7, #12]
 8003066:	4413      	add	r3, r2
 8003068:	f9b7 2008 	ldrsh.w	r2, [r7, #8]
 800306c:	3a0c      	subs	r2, #12
 800306e:	f833 3012 	ldrh.w	r3, [r3, r2, lsl #1]
 8003072:	461a      	mov	r2, r3
 8003074:	6c3b      	ldr	r3, [r7, #64]	; 0x40
 8003076:	429a      	cmp	r2, r3
 8003078:	d101      	bne.n	800307e <checkLeftSide+0x3c2>
				temp = 1;
 800307a:	2301      	movs	r3, #1
 800307c:	65fb      	str	r3, [r7, #92]	; 0x5c
			if (matrix[x0+5][y0]==i || matrix[x0-1][y0-6]==i || matrix[x0-1][y0-12]==i)
				temp = 1;
	}
	// ak objekt je L
	else if (cisloTvaru == 7){
		for (int i = 2; i<10; i++)
 800307e:	6c3b      	ldr	r3, [r7, #64]	; 0x40
 8003080:	3301      	adds	r3, #1
 8003082:	643b      	str	r3, [r7, #64]	; 0x40
 8003084:	6c3b      	ldr	r3, [r7, #64]	; 0x40
 8003086:	2b09      	cmp	r3, #9
 8003088:	ddc2      	ble.n	8003010 <checkLeftSide+0x354>
 800308a:	e260      	b.n	800354e <checkLeftSide+0x892>
			if (matrix[x0-1][y0]==i || matrix[x0-1][y0-6]==i || matrix[x0-1][y0-12]==i)
				temp = 1;
	}
	// ak objekt je _.
	else if (cisloTvaru == 8){
 800308c:	687b      	ldr	r3, [r7, #4]
 800308e:	2b08      	cmp	r3, #8
 8003090:	d12b      	bne.n	80030ea <checkLeftSide+0x42e>
		for (int i = 2; i<10; i++)
 8003092:	2302      	movs	r3, #2
 8003094:	63fb      	str	r3, [r7, #60]	; 0x3c
 8003096:	e024      	b.n	80030e2 <checkLeftSide+0x426>
			if (matrix[x0-1][y0]==i || matrix[x0+11][y0-6]==i)
 8003098:	f9b7 300a 	ldrsh.w	r3, [r7, #10]
 800309c:	f103 13ff 	add.w	r3, r3, #16711935	; 0xff00ff
 80030a0:	f503 437f 	add.w	r3, r3, #65280	; 0xff00
 80030a4:	021b      	lsls	r3, r3, #8
 80030a6:	68fa      	ldr	r2, [r7, #12]
 80030a8:	4413      	add	r3, r2
 80030aa:	f9b7 2008 	ldrsh.w	r2, [r7, #8]
 80030ae:	f833 3012 	ldrh.w	r3, [r3, r2, lsl #1]
 80030b2:	461a      	mov	r2, r3
 80030b4:	6bfb      	ldr	r3, [r7, #60]	; 0x3c
 80030b6:	429a      	cmp	r2, r3
 80030b8:	d00e      	beq.n	80030d8 <checkLeftSide+0x41c>
 80030ba:	f9b7 300a 	ldrsh.w	r3, [r7, #10]
 80030be:	330b      	adds	r3, #11
 80030c0:	021b      	lsls	r3, r3, #8
 80030c2:	68fa      	ldr	r2, [r7, #12]
 80030c4:	4413      	add	r3, r2
 80030c6:	f9b7 2008 	ldrsh.w	r2, [r7, #8]
 80030ca:	3a06      	subs	r2, #6
 80030cc:	f833 3012 	ldrh.w	r3, [r3, r2, lsl #1]
 80030d0:	461a      	mov	r2, r3
 80030d2:	6bfb      	ldr	r3, [r7, #60]	; 0x3c
 80030d4:	429a      	cmp	r2, r3
 80030d6:	d101      	bne.n	80030dc <checkLeftSide+0x420>
				temp = 1;
 80030d8:	2301      	movs	r3, #1
 80030da:	65fb      	str	r3, [r7, #92]	; 0x5c
			if (matrix[x0-1][y0]==i || matrix[x0-1][y0-6]==i || matrix[x0-1][y0-12]==i)
				temp = 1;
	}
	// ak objekt je _.
	else if (cisloTvaru == 8){
		for (int i = 2; i<10; i++)
 80030dc:	6bfb      	ldr	r3, [r7, #60]	; 0x3c
 80030de:	3301      	adds	r3, #1
 80030e0:	63fb      	str	r3, [r7, #60]	; 0x3c
 80030e2:	6bfb      	ldr	r3, [r7, #60]	; 0x3c
 80030e4:	2b09      	cmp	r3, #9
 80030e6:	ddd7      	ble.n	8003098 <checkLeftSide+0x3dc>
 80030e8:	e231      	b.n	800354e <checkLeftSide+0x892>
			if (matrix[x0-1][y0]==i || matrix[x0+11][y0-6]==i)
				temp = 1;
	}
	// ak objekt je '|
	else if (cisloTvaru == 9){
 80030ea:	687b      	ldr	r3, [r7, #4]
 80030ec:	2b09      	cmp	r3, #9
 80030ee:	d13a      	bne.n	8003166 <checkLeftSide+0x4aa>
		for (int i = 2; i<10; i++)
 80030f0:	2302      	movs	r3, #2
 80030f2:	63bb      	str	r3, [r7, #56]	; 0x38
 80030f4:	e033      	b.n	800315e <checkLeftSide+0x4a2>
			if (matrix[x0+5][y0]==i || matrix[x0+5][y0-6]==i || matrix[x0-1][y0-12]==i)
 80030f6:	f9b7 300a 	ldrsh.w	r3, [r7, #10]
 80030fa:	3305      	adds	r3, #5
 80030fc:	021b      	lsls	r3, r3, #8
 80030fe:	68fa      	ldr	r2, [r7, #12]
 8003100:	4413      	add	r3, r2
 8003102:	f9b7 2008 	ldrsh.w	r2, [r7, #8]
 8003106:	f833 3012 	ldrh.w	r3, [r3, r2, lsl #1]
 800310a:	461a      	mov	r2, r3
 800310c:	6bbb      	ldr	r3, [r7, #56]	; 0x38
 800310e:	429a      	cmp	r2, r3
 8003110:	d020      	beq.n	8003154 <checkLeftSide+0x498>
 8003112:	f9b7 300a 	ldrsh.w	r3, [r7, #10]
 8003116:	3305      	adds	r3, #5
 8003118:	021b      	lsls	r3, r3, #8
 800311a:	68fa      	ldr	r2, [r7, #12]
 800311c:	4413      	add	r3, r2
 800311e:	f9b7 2008 	ldrsh.w	r2, [r7, #8]
 8003122:	3a06      	subs	r2, #6
 8003124:	f833 3012 	ldrh.w	r3, [r3, r2, lsl #1]
 8003128:	461a      	mov	r2, r3
 800312a:	6bbb      	ldr	r3, [r7, #56]	; 0x38
 800312c:	429a      	cmp	r2, r3
 800312e:	d011      	beq.n	8003154 <checkLeftSide+0x498>
 8003130:	f9b7 300a 	ldrsh.w	r3, [r7, #10]
 8003134:	f103 13ff 	add.w	r3, r3, #16711935	; 0xff00ff
 8003138:	f503 437f 	add.w	r3, r3, #65280	; 0xff00
 800313c:	021b      	lsls	r3, r3, #8
 800313e:	68fa      	ldr	r2, [r7, #12]
 8003140:	4413      	add	r3, r2
 8003142:	f9b7 2008 	ldrsh.w	r2, [r7, #8]
 8003146:	3a0c      	subs	r2, #12
 8003148:	f833 3012 	ldrh.w	r3, [r3, r2, lsl #1]
 800314c:	461a      	mov	r2, r3
 800314e:	6bbb      	ldr	r3, [r7, #56]	; 0x38
 8003150:	429a      	cmp	r2, r3
 8003152:	d101      	bne.n	8003158 <checkLeftSide+0x49c>
				temp = 1;
 8003154:	2301      	movs	r3, #1
 8003156:	65fb      	str	r3, [r7, #92]	; 0x5c
			if (matrix[x0-1][y0]==i || matrix[x0+11][y0-6]==i)
				temp = 1;
	}
	// ak objekt je '|
	else if (cisloTvaru == 9){
		for (int i = 2; i<10; i++)
 8003158:	6bbb      	ldr	r3, [r7, #56]	; 0x38
 800315a:	3301      	adds	r3, #1
 800315c:	63bb      	str	r3, [r7, #56]	; 0x38
 800315e:	6bbb      	ldr	r3, [r7, #56]	; 0x38
 8003160:	2b09      	cmp	r3, #9
 8003162:	ddc8      	ble.n	80030f6 <checkLeftSide+0x43a>
 8003164:	e1f3      	b.n	800354e <checkLeftSide+0x892>
			if (matrix[x0+5][y0]==i || matrix[x0+5][y0-6]==i || matrix[x0-1][y0-12]==i)
				temp = 1;
	}
	// ak objekt je ,..
	else if (cisloTvaru == 10){
 8003166:	687b      	ldr	r3, [r7, #4]
 8003168:	2b0a      	cmp	r3, #10
 800316a:	d12e      	bne.n	80031ca <checkLeftSide+0x50e>
		for (int i = 2; i<10; i++)
 800316c:	2302      	movs	r3, #2
 800316e:	637b      	str	r3, [r7, #52]	; 0x34
 8003170:	e027      	b.n	80031c2 <checkLeftSide+0x506>
			if (matrix[x0-1][y0]==i || matrix[x0-1][y0-6]==i)
 8003172:	f9b7 300a 	ldrsh.w	r3, [r7, #10]
 8003176:	f103 13ff 	add.w	r3, r3, #16711935	; 0xff00ff
 800317a:	f503 437f 	add.w	r3, r3, #65280	; 0xff00
 800317e:	021b      	lsls	r3, r3, #8
 8003180:	68fa      	ldr	r2, [r7, #12]
 8003182:	4413      	add	r3, r2
 8003184:	f9b7 2008 	ldrsh.w	r2, [r7, #8]
 8003188:	f833 3012 	ldrh.w	r3, [r3, r2, lsl #1]
 800318c:	461a      	mov	r2, r3
 800318e:	6b7b      	ldr	r3, [r7, #52]	; 0x34
 8003190:	429a      	cmp	r2, r3
 8003192:	d011      	beq.n	80031b8 <checkLeftSide+0x4fc>
 8003194:	f9b7 300a 	ldrsh.w	r3, [r7, #10]
 8003198:	f103 13ff 	add.w	r3, r3, #16711935	; 0xff00ff
 800319c:	f503 437f 	add.w	r3, r3, #65280	; 0xff00
 80031a0:	021b      	lsls	r3, r3, #8
 80031a2:	68fa      	ldr	r2, [r7, #12]
 80031a4:	4413      	add	r3, r2
 80031a6:	f9b7 2008 	ldrsh.w	r2, [r7, #8]
 80031aa:	3a06      	subs	r2, #6
 80031ac:	f833 3012 	ldrh.w	r3, [r3, r2, lsl #1]
 80031b0:	461a      	mov	r2, r3
 80031b2:	6b7b      	ldr	r3, [r7, #52]	; 0x34
 80031b4:	429a      	cmp	r2, r3
 80031b6:	d101      	bne.n	80031bc <checkLeftSide+0x500>
				temp = 1;
 80031b8:	2301      	movs	r3, #1
 80031ba:	65fb      	str	r3, [r7, #92]	; 0x5c
			if (matrix[x0+5][y0]==i || matrix[x0+5][y0-6]==i || matrix[x0-1][y0-12]==i)
				temp = 1;
	}
	// ak objekt je ,..
	else if (cisloTvaru == 10){
		for (int i = 2; i<10; i++)
 80031bc:	6b7b      	ldr	r3, [r7, #52]	; 0x34
 80031be:	3301      	adds	r3, #1
 80031c0:	637b      	str	r3, [r7, #52]	; 0x34
 80031c2:	6b7b      	ldr	r3, [r7, #52]	; 0x34
 80031c4:	2b09      	cmp	r3, #9
 80031c6:	ddd4      	ble.n	8003172 <checkLeftSide+0x4b6>
 80031c8:	e1c1      	b.n	800354e <checkLeftSide+0x892>
			if (matrix[x0-1][y0]==i || matrix[x0-1][y0-6]==i)
				temp = 1;
	}
	// ak objekt je .|.
	else if (cisloTvaru == 11){
 80031ca:	687b      	ldr	r3, [r7, #4]
 80031cc:	2b0b      	cmp	r3, #11
 80031ce:	d12b      	bne.n	8003228 <checkLeftSide+0x56c>
		for (int i = 2; i<10; i++)
 80031d0:	2302      	movs	r3, #2
 80031d2:	633b      	str	r3, [r7, #48]	; 0x30
 80031d4:	e024      	b.n	8003220 <checkLeftSide+0x564>
			if (matrix[x0-1][y0]==i || matrix[x0+5][y0-6]==i)
 80031d6:	f9b7 300a 	ldrsh.w	r3, [r7, #10]
 80031da:	f103 13ff 	add.w	r3, r3, #16711935	; 0xff00ff
 80031de:	f503 437f 	add.w	r3, r3, #65280	; 0xff00
 80031e2:	021b      	lsls	r3, r3, #8
 80031e4:	68fa      	ldr	r2, [r7, #12]
 80031e6:	4413      	add	r3, r2
 80031e8:	f9b7 2008 	ldrsh.w	r2, [r7, #8]
 80031ec:	f833 3012 	ldrh.w	r3, [r3, r2, lsl #1]
 80031f0:	461a      	mov	r2, r3
 80031f2:	6b3b      	ldr	r3, [r7, #48]	; 0x30
 80031f4:	429a      	cmp	r2, r3
 80031f6:	d00e      	beq.n	8003216 <checkLeftSide+0x55a>
 80031f8:	f9b7 300a 	ldrsh.w	r3, [r7, #10]
 80031fc:	3305      	adds	r3, #5
 80031fe:	021b      	lsls	r3, r3, #8
 8003200:	68fa      	ldr	r2, [r7, #12]
 8003202:	4413      	add	r3, r2
 8003204:	f9b7 2008 	ldrsh.w	r2, [r7, #8]
 8003208:	3a06      	subs	r2, #6
 800320a:	f833 3012 	ldrh.w	r3, [r3, r2, lsl #1]
 800320e:	461a      	mov	r2, r3
 8003210:	6b3b      	ldr	r3, [r7, #48]	; 0x30
 8003212:	429a      	cmp	r2, r3
 8003214:	d101      	bne.n	800321a <checkLeftSide+0x55e>
				temp = 1;
 8003216:	2301      	movs	r3, #1
 8003218:	65fb      	str	r3, [r7, #92]	; 0x5c
			if (matrix[x0-1][y0]==i || matrix[x0-1][y0-6]==i)
				temp = 1;
	}
	// ak objekt je .|.
	else if (cisloTvaru == 11){
		for (int i = 2; i<10; i++)
 800321a:	6b3b      	ldr	r3, [r7, #48]	; 0x30
 800321c:	3301      	adds	r3, #1
 800321e:	633b      	str	r3, [r7, #48]	; 0x30
 8003220:	6b3b      	ldr	r3, [r7, #48]	; 0x30
 8003222:	2b09      	cmp	r3, #9
 8003224:	ddd7      	ble.n	80031d6 <checkLeftSide+0x51a>
 8003226:	e192      	b.n	800354e <checkLeftSide+0x892>
			if (matrix[x0-1][y0]==i || matrix[x0+5][y0-6]==i)
				temp = 1;
	}
	// ak objekt je -|
	else if (cisloTvaru == 12){
 8003228:	687b      	ldr	r3, [r7, #4]
 800322a:	2b0c      	cmp	r3, #12
 800322c:	d13a      	bne.n	80032a4 <checkLeftSide+0x5e8>
		for (int i = 2; i<10; i++)
 800322e:	2302      	movs	r3, #2
 8003230:	62fb      	str	r3, [r7, #44]	; 0x2c
 8003232:	e033      	b.n	800329c <checkLeftSide+0x5e0>
			if (matrix[x0+5][y0]==i || matrix[x0-1][y0-6]==i || matrix[x0+5][y0-12]==i)
 8003234:	f9b7 300a 	ldrsh.w	r3, [r7, #10]
 8003238:	3305      	adds	r3, #5
 800323a:	021b      	lsls	r3, r3, #8
 800323c:	68fa      	ldr	r2, [r7, #12]
 800323e:	4413      	add	r3, r2
 8003240:	f9b7 2008 	ldrsh.w	r2, [r7, #8]
 8003244:	f833 3012 	ldrh.w	r3, [r3, r2, lsl #1]
 8003248:	461a      	mov	r2, r3
 800324a:	6afb      	ldr	r3, [r7, #44]	; 0x2c
 800324c:	429a      	cmp	r2, r3
 800324e:	d020      	beq.n	8003292 <checkLeftSide+0x5d6>
 8003250:	f9b7 300a 	ldrsh.w	r3, [r7, #10]
 8003254:	f103 13ff 	add.w	r3, r3, #16711935	; 0xff00ff
 8003258:	f503 437f 	add.w	r3, r3, #65280	; 0xff00
 800325c:	021b      	lsls	r3, r3, #8
 800325e:	68fa      	ldr	r2, [r7, #12]
 8003260:	4413      	add	r3, r2
 8003262:	f9b7 2008 	ldrsh.w	r2, [r7, #8]
 8003266:	3a06      	subs	r2, #6
 8003268:	f833 3012 	ldrh.w	r3, [r3, r2, lsl #1]
 800326c:	461a      	mov	r2, r3
 800326e:	6afb      	ldr	r3, [r7, #44]	; 0x2c
 8003270:	429a      	cmp	r2, r3
 8003272:	d00e      	beq.n	8003292 <checkLeftSide+0x5d6>
 8003274:	f9b7 300a 	ldrsh.w	r3, [r7, #10]
 8003278:	3305      	adds	r3, #5
 800327a:	021b      	lsls	r3, r3, #8
 800327c:	68fa      	ldr	r2, [r7, #12]
 800327e:	4413      	add	r3, r2
 8003280:	f9b7 2008 	ldrsh.w	r2, [r7, #8]
 8003284:	3a0c      	subs	r2, #12
 8003286:	f833 3012 	ldrh.w	r3, [r3, r2, lsl #1]
 800328a:	461a      	mov	r2, r3
 800328c:	6afb      	ldr	r3, [r7, #44]	; 0x2c
 800328e:	429a      	cmp	r2, r3
 8003290:	d101      	bne.n	8003296 <checkLeftSide+0x5da>
				temp = 1;
 8003292:	2301      	movs	r3, #1
 8003294:	65fb      	str	r3, [r7, #92]	; 0x5c
			if (matrix[x0-1][y0]==i || matrix[x0+5][y0-6]==i)
				temp = 1;
	}
	// ak objekt je -|
	else if (cisloTvaru == 12){
		for (int i = 2; i<10; i++)
 8003296:	6afb      	ldr	r3, [r7, #44]	; 0x2c
 8003298:	3301      	adds	r3, #1
 800329a:	62fb      	str	r3, [r7, #44]	; 0x2c
 800329c:	6afb      	ldr	r3, [r7, #44]	; 0x2c
 800329e:	2b09      	cmp	r3, #9
 80032a0:	ddc8      	ble.n	8003234 <checkLeftSide+0x578>
 80032a2:	e154      	b.n	800354e <checkLeftSide+0x892>
			if (matrix[x0+5][y0]==i || matrix[x0-1][y0-6]==i || matrix[x0+5][y0-12]==i)
				temp = 1;
	}
	// ak objekt je .,.
	else if (cisloTvaru == 13){
 80032a4:	687b      	ldr	r3, [r7, #4]
 80032a6:	2b0d      	cmp	r3, #13
 80032a8:	d12b      	bne.n	8003302 <checkLeftSide+0x646>
		for (int i = 2; i<10; i++)
 80032aa:	2302      	movs	r3, #2
 80032ac:	62bb      	str	r3, [r7, #40]	; 0x28
 80032ae:	e024      	b.n	80032fa <checkLeftSide+0x63e>
			if (matrix[x0+5][y0]==i || matrix[x0-1][y0-6]==i)
 80032b0:	f9b7 300a 	ldrsh.w	r3, [r7, #10]
 80032b4:	3305      	adds	r3, #5
 80032b6:	021b      	lsls	r3, r3, #8
 80032b8:	68fa      	ldr	r2, [r7, #12]
 80032ba:	4413      	add	r3, r2
 80032bc:	f9b7 2008 	ldrsh.w	r2, [r7, #8]
 80032c0:	f833 3012 	ldrh.w	r3, [r3, r2, lsl #1]
 80032c4:	461a      	mov	r2, r3
 80032c6:	6abb      	ldr	r3, [r7, #40]	; 0x28
 80032c8:	429a      	cmp	r2, r3
 80032ca:	d011      	beq.n	80032f0 <checkLeftSide+0x634>
 80032cc:	f9b7 300a 	ldrsh.w	r3, [r7, #10]
 80032d0:	f103 13ff 	add.w	r3, r3, #16711935	; 0xff00ff
 80032d4:	f503 437f 	add.w	r3, r3, #65280	; 0xff00
 80032d8:	021b      	lsls	r3, r3, #8
 80032da:	68fa      	ldr	r2, [r7, #12]
 80032dc:	4413      	add	r3, r2
 80032de:	f9b7 2008 	ldrsh.w	r2, [r7, #8]
 80032e2:	3a06      	subs	r2, #6
 80032e4:	f833 3012 	ldrh.w	r3, [r3, r2, lsl #1]
 80032e8:	461a      	mov	r2, r3
 80032ea:	6abb      	ldr	r3, [r7, #40]	; 0x28
 80032ec:	429a      	cmp	r2, r3
 80032ee:	d101      	bne.n	80032f4 <checkLeftSide+0x638>
				temp = 1;
 80032f0:	2301      	movs	r3, #1
 80032f2:	65fb      	str	r3, [r7, #92]	; 0x5c
			if (matrix[x0+5][y0]==i || matrix[x0-1][y0-6]==i || matrix[x0+5][y0-12]==i)
				temp = 1;
	}
	// ak objekt je .,.
	else if (cisloTvaru == 13){
		for (int i = 2; i<10; i++)
 80032f4:	6abb      	ldr	r3, [r7, #40]	; 0x28
 80032f6:	3301      	adds	r3, #1
 80032f8:	62bb      	str	r3, [r7, #40]	; 0x28
 80032fa:	6abb      	ldr	r3, [r7, #40]	; 0x28
 80032fc:	2b09      	cmp	r3, #9
 80032fe:	ddd7      	ble.n	80032b0 <checkLeftSide+0x5f4>
 8003300:	e125      	b.n	800354e <checkLeftSide+0x892>
			if (matrix[x0+5][y0]==i || matrix[x0-1][y0-6]==i)
				temp = 1;
	}
	// ak objekt je |-
	else if (cisloTvaru == 14){
 8003302:	687b      	ldr	r3, [r7, #4]
 8003304:	2b0e      	cmp	r3, #14
 8003306:	d140      	bne.n	800338a <checkLeftSide+0x6ce>
		for (int i = 2; i<10; i++)
 8003308:	2302      	movs	r3, #2
 800330a:	627b      	str	r3, [r7, #36]	; 0x24
 800330c:	e039      	b.n	8003382 <checkLeftSide+0x6c6>
			if (matrix[x0-1][y0]==i || matrix[x0-1][y0-6]==i || matrix[x0-1][y0-12]==i)
 800330e:	f9b7 300a 	ldrsh.w	r3, [r7, #10]
 8003312:	f103 13ff 	add.w	r3, r3, #16711935	; 0xff00ff
 8003316:	f503 437f 	add.w	r3, r3, #65280	; 0xff00
 800331a:	021b      	lsls	r3, r3, #8
 800331c:	68fa      	ldr	r2, [r7, #12]
 800331e:	4413      	add	r3, r2
 8003320:	f9b7 2008 	ldrsh.w	r2, [r7, #8]
 8003324:	f833 3012 	ldrh.w	r3, [r3, r2, lsl #1]
 8003328:	461a      	mov	r2, r3
 800332a:	6a7b      	ldr	r3, [r7, #36]	; 0x24
 800332c:	429a      	cmp	r2, r3
 800332e:	d023      	beq.n	8003378 <checkLeftSide+0x6bc>
 8003330:	f9b7 300a 	ldrsh.w	r3, [r7, #10]
 8003334:	f103 13ff 	add.w	r3, r3, #16711935	; 0xff00ff
 8003338:	f503 437f 	add.w	r3, r3, #65280	; 0xff00
 800333c:	021b      	lsls	r3, r3, #8
 800333e:	68fa      	ldr	r2, [r7, #12]
 8003340:	4413      	add	r3, r2
 8003342:	f9b7 2008 	ldrsh.w	r2, [r7, #8]
 8003346:	3a06      	subs	r2, #6
 8003348:	f833 3012 	ldrh.w	r3, [r3, r2, lsl #1]
 800334c:	461a      	mov	r2, r3
 800334e:	6a7b      	ldr	r3, [r7, #36]	; 0x24
 8003350:	429a      	cmp	r2, r3
 8003352:	d011      	beq.n	8003378 <checkLeftSide+0x6bc>
 8003354:	f9b7 300a 	ldrsh.w	r3, [r7, #10]
 8003358:	f103 13ff 	add.w	r3, r3, #16711935	; 0xff00ff
 800335c:	f503 437f 	add.w	r3, r3, #65280	; 0xff00
 8003360:	021b      	lsls	r3, r3, #8
 8003362:	68fa      	ldr	r2, [r7, #12]
 8003364:	4413      	add	r3, r2
 8003366:	f9b7 2008 	ldrsh.w	r2, [r7, #8]
 800336a:	3a0c      	subs	r2, #12
 800336c:	f833 3012 	ldrh.w	r3, [r3, r2, lsl #1]
 8003370:	461a      	mov	r2, r3
 8003372:	6a7b      	ldr	r3, [r7, #36]	; 0x24
 8003374:	429a      	cmp	r2, r3
 8003376:	d101      	bne.n	800337c <checkLeftSide+0x6c0>
				temp = 1;
 8003378:	2301      	movs	r3, #1
 800337a:	65fb      	str	r3, [r7, #92]	; 0x5c
			if (matrix[x0+5][y0]==i || matrix[x0-1][y0-6]==i)
				temp = 1;
	}
	// ak objekt je |-
	else if (cisloTvaru == 14){
		for (int i = 2; i<10; i++)
 800337c:	6a7b      	ldr	r3, [r7, #36]	; 0x24
 800337e:	3301      	adds	r3, #1
 8003380:	627b      	str	r3, [r7, #36]	; 0x24
 8003382:	6a7b      	ldr	r3, [r7, #36]	; 0x24
 8003384:	2b09      	cmp	r3, #9
 8003386:	ddc2      	ble.n	800330e <checkLeftSide+0x652>
 8003388:	e0e1      	b.n	800354e <checkLeftSide+0x892>
			if (matrix[x0-1][y0]==i || matrix[x0-1][y0-6]==i || matrix[x0-1][y0-12]==i)
				temp = 1;
	}
	// ak objekt je opacny L
	else if (cisloTvaru == 15){
 800338a:	687b      	ldr	r3, [r7, #4]
 800338c:	2b0f      	cmp	r3, #15
 800338e:	d13a      	bne.n	8003406 <checkLeftSide+0x74a>
		for (int i = 2; i<10; i++)
 8003390:	2302      	movs	r3, #2
 8003392:	623b      	str	r3, [r7, #32]
 8003394:	e033      	b.n	80033fe <checkLeftSide+0x742>
			if (matrix[x0-1][y0]==i || matrix[x0+5][y0-6]==i || matrix[x0+5][y0-12]==i)
 8003396:	f9b7 300a 	ldrsh.w	r3, [r7, #10]
 800339a:	f103 13ff 	add.w	r3, r3, #16711935	; 0xff00ff
 800339e:	f503 437f 	add.w	r3, r3, #65280	; 0xff00
 80033a2:	021b      	lsls	r3, r3, #8
 80033a4:	68fa      	ldr	r2, [r7, #12]
 80033a6:	4413      	add	r3, r2
 80033a8:	f9b7 2008 	ldrsh.w	r2, [r7, #8]
 80033ac:	f833 3012 	ldrh.w	r3, [r3, r2, lsl #1]
 80033b0:	461a      	mov	r2, r3
 80033b2:	6a3b      	ldr	r3, [r7, #32]
 80033b4:	429a      	cmp	r2, r3
 80033b6:	d01d      	beq.n	80033f4 <checkLeftSide+0x738>
 80033b8:	f9b7 300a 	ldrsh.w	r3, [r7, #10]
 80033bc:	3305      	adds	r3, #5
 80033be:	021b      	lsls	r3, r3, #8
 80033c0:	68fa      	ldr	r2, [r7, #12]
 80033c2:	4413      	add	r3, r2
 80033c4:	f9b7 2008 	ldrsh.w	r2, [r7, #8]
 80033c8:	3a06      	subs	r2, #6
 80033ca:	f833 3012 	ldrh.w	r3, [r3, r2, lsl #1]
 80033ce:	461a      	mov	r2, r3
 80033d0:	6a3b      	ldr	r3, [r7, #32]
 80033d2:	429a      	cmp	r2, r3
 80033d4:	d00e      	beq.n	80033f4 <checkLeftSide+0x738>
 80033d6:	f9b7 300a 	ldrsh.w	r3, [r7, #10]
 80033da:	3305      	adds	r3, #5
 80033dc:	021b      	lsls	r3, r3, #8
 80033de:	68fa      	ldr	r2, [r7, #12]
 80033e0:	4413      	add	r3, r2
 80033e2:	f9b7 2008 	ldrsh.w	r2, [r7, #8]
 80033e6:	3a0c      	subs	r2, #12
 80033e8:	f833 3012 	ldrh.w	r3, [r3, r2, lsl #1]
 80033ec:	461a      	mov	r2, r3
 80033ee:	6a3b      	ldr	r3, [r7, #32]
 80033f0:	429a      	cmp	r2, r3
 80033f2:	d101      	bne.n	80033f8 <checkLeftSide+0x73c>
				temp = 1;
 80033f4:	2301      	movs	r3, #1
 80033f6:	65fb      	str	r3, [r7, #92]	; 0x5c
			if (matrix[x0-1][y0]==i || matrix[x0-1][y0-6]==i || matrix[x0-1][y0-12]==i)
				temp = 1;
	}
	// ak objekt je opacny L
	else if (cisloTvaru == 15){
		for (int i = 2; i<10; i++)
 80033f8:	6a3b      	ldr	r3, [r7, #32]
 80033fa:	3301      	adds	r3, #1
 80033fc:	623b      	str	r3, [r7, #32]
 80033fe:	6a3b      	ldr	r3, [r7, #32]
 8003400:	2b09      	cmp	r3, #9
 8003402:	ddc8      	ble.n	8003396 <checkLeftSide+0x6da>
 8003404:	e0a3      	b.n	800354e <checkLeftSide+0x892>
			if (matrix[x0-1][y0]==i || matrix[x0+5][y0-6]==i || matrix[x0+5][y0-12]==i)
				temp = 1;
	}
	// ak objekt je ..,
	else if (cisloTvaru == 16){
 8003406:	687b      	ldr	r3, [r7, #4]
 8003408:	2b10      	cmp	r3, #16
 800340a:	d12b      	bne.n	8003464 <checkLeftSide+0x7a8>
		for (int i = 2; i<10; i++)
 800340c:	2302      	movs	r3, #2
 800340e:	61fb      	str	r3, [r7, #28]
 8003410:	e024      	b.n	800345c <checkLeftSide+0x7a0>
			if (matrix[x0+11][y0]==i || matrix[x0-1][y0-6]==i)
 8003412:	f9b7 300a 	ldrsh.w	r3, [r7, #10]
 8003416:	330b      	adds	r3, #11
 8003418:	021b      	lsls	r3, r3, #8
 800341a:	68fa      	ldr	r2, [r7, #12]
 800341c:	4413      	add	r3, r2
 800341e:	f9b7 2008 	ldrsh.w	r2, [r7, #8]
 8003422:	f833 3012 	ldrh.w	r3, [r3, r2, lsl #1]
 8003426:	461a      	mov	r2, r3
 8003428:	69fb      	ldr	r3, [r7, #28]
 800342a:	429a      	cmp	r2, r3
 800342c:	d011      	beq.n	8003452 <checkLeftSide+0x796>
 800342e:	f9b7 300a 	ldrsh.w	r3, [r7, #10]
 8003432:	f103 13ff 	add.w	r3, r3, #16711935	; 0xff00ff
 8003436:	f503 437f 	add.w	r3, r3, #65280	; 0xff00
 800343a:	021b      	lsls	r3, r3, #8
 800343c:	68fa      	ldr	r2, [r7, #12]
 800343e:	4413      	add	r3, r2
 8003440:	f9b7 2008 	ldrsh.w	r2, [r7, #8]
 8003444:	3a06      	subs	r2, #6
 8003446:	f833 3012 	ldrh.w	r3, [r3, r2, lsl #1]
 800344a:	461a      	mov	r2, r3
 800344c:	69fb      	ldr	r3, [r7, #28]
 800344e:	429a      	cmp	r2, r3
 8003450:	d101      	bne.n	8003456 <checkLeftSide+0x79a>
				temp = 1;
 8003452:	2301      	movs	r3, #1
 8003454:	65fb      	str	r3, [r7, #92]	; 0x5c
			if (matrix[x0-1][y0]==i || matrix[x0+5][y0-6]==i || matrix[x0+5][y0-12]==i)
				temp = 1;
	}
	// ak objekt je ..,
	else if (cisloTvaru == 16){
		for (int i = 2; i<10; i++)
 8003456:	69fb      	ldr	r3, [r7, #28]
 8003458:	3301      	adds	r3, #1
 800345a:	61fb      	str	r3, [r7, #28]
 800345c:	69fb      	ldr	r3, [r7, #28]
 800345e:	2b09      	cmp	r3, #9
 8003460:	ddd7      	ble.n	8003412 <checkLeftSide+0x756>
 8003462:	e074      	b.n	800354e <checkLeftSide+0x892>
			if (matrix[x0+11][y0]==i || matrix[x0-1][y0-6]==i)
				temp = 1;
	}
	// ak objekt je |'
	else if (cisloTvaru == 17){
 8003464:	687b      	ldr	r3, [r7, #4]
 8003466:	2b11      	cmp	r3, #17
 8003468:	d140      	bne.n	80034ec <checkLeftSide+0x830>
		for (int i = 2; i<10; i++)
 800346a:	2302      	movs	r3, #2
 800346c:	61bb      	str	r3, [r7, #24]
 800346e:	e039      	b.n	80034e4 <checkLeftSide+0x828>
			if (matrix[x0-1][y0]==i || matrix[x0-1][y0-6]==i || matrix[x0-1][y0-12]==i)
 8003470:	f9b7 300a 	ldrsh.w	r3, [r7, #10]
 8003474:	f103 13ff 	add.w	r3, r3, #16711935	; 0xff00ff
 8003478:	f503 437f 	add.w	r3, r3, #65280	; 0xff00
 800347c:	021b      	lsls	r3, r3, #8
 800347e:	68fa      	ldr	r2, [r7, #12]
 8003480:	4413      	add	r3, r2
 8003482:	f9b7 2008 	ldrsh.w	r2, [r7, #8]
 8003486:	f833 3012 	ldrh.w	r3, [r3, r2, lsl #1]
 800348a:	461a      	mov	r2, r3
 800348c:	69bb      	ldr	r3, [r7, #24]
 800348e:	429a      	cmp	r2, r3
 8003490:	d023      	beq.n	80034da <checkLeftSide+0x81e>
 8003492:	f9b7 300a 	ldrsh.w	r3, [r7, #10]
 8003496:	f103 13ff 	add.w	r3, r3, #16711935	; 0xff00ff
 800349a:	f503 437f 	add.w	r3, r3, #65280	; 0xff00
 800349e:	021b      	lsls	r3, r3, #8
 80034a0:	68fa      	ldr	r2, [r7, #12]
 80034a2:	4413      	add	r3, r2
 80034a4:	f9b7 2008 	ldrsh.w	r2, [r7, #8]
 80034a8:	3a06      	subs	r2, #6
 80034aa:	f833 3012 	ldrh.w	r3, [r3, r2, lsl #1]
 80034ae:	461a      	mov	r2, r3
 80034b0:	69bb      	ldr	r3, [r7, #24]
 80034b2:	429a      	cmp	r2, r3
 80034b4:	d011      	beq.n	80034da <checkLeftSide+0x81e>
 80034b6:	f9b7 300a 	ldrsh.w	r3, [r7, #10]
 80034ba:	f103 13ff 	add.w	r3, r3, #16711935	; 0xff00ff
 80034be:	f503 437f 	add.w	r3, r3, #65280	; 0xff00
 80034c2:	021b      	lsls	r3, r3, #8
 80034c4:	68fa      	ldr	r2, [r7, #12]
 80034c6:	4413      	add	r3, r2
 80034c8:	f9b7 2008 	ldrsh.w	r2, [r7, #8]
 80034cc:	3a0c      	subs	r2, #12
 80034ce:	f833 3012 	ldrh.w	r3, [r3, r2, lsl #1]
 80034d2:	461a      	mov	r2, r3
 80034d4:	69bb      	ldr	r3, [r7, #24]
 80034d6:	429a      	cmp	r2, r3
 80034d8:	d101      	bne.n	80034de <checkLeftSide+0x822>
				temp = 1;
 80034da:	2301      	movs	r3, #1
 80034dc:	65fb      	str	r3, [r7, #92]	; 0x5c
			if (matrix[x0+11][y0]==i || matrix[x0-1][y0-6]==i)
				temp = 1;
	}
	// ak objekt je |'
	else if (cisloTvaru == 17){
		for (int i = 2; i<10; i++)
 80034de:	69bb      	ldr	r3, [r7, #24]
 80034e0:	3301      	adds	r3, #1
 80034e2:	61bb      	str	r3, [r7, #24]
 80034e4:	69bb      	ldr	r3, [r7, #24]
 80034e6:	2b09      	cmp	r3, #9
 80034e8:	ddc2      	ble.n	8003470 <checkLeftSide+0x7b4>
 80034ea:	e030      	b.n	800354e <checkLeftSide+0x892>
			if (matrix[x0-1][y0]==i || matrix[x0-1][y0-6]==i || matrix[x0-1][y0-12]==i)
				temp = 1;
	}
	// ak objekt je ._
	else if (cisloTvaru == 18){
 80034ec:	687b      	ldr	r3, [r7, #4]
 80034ee:	2b12      	cmp	r3, #18
 80034f0:	d12d      	bne.n	800354e <checkLeftSide+0x892>
		for (int i = 2; i<10; i++)
 80034f2:	2302      	movs	r3, #2
 80034f4:	617b      	str	r3, [r7, #20]
 80034f6:	e027      	b.n	8003548 <checkLeftSide+0x88c>
			if (matrix[x0-1][y0]==i || matrix[x0-1][y0-6]==i)
 80034f8:	f9b7 300a 	ldrsh.w	r3, [r7, #10]
 80034fc:	f103 13ff 	add.w	r3, r3, #16711935	; 0xff00ff
 8003500:	f503 437f 	add.w	r3, r3, #65280	; 0xff00
 8003504:	021b      	lsls	r3, r3, #8
 8003506:	68fa      	ldr	r2, [r7, #12]
 8003508:	4413      	add	r3, r2
 800350a:	f9b7 2008 	ldrsh.w	r2, [r7, #8]
 800350e:	f833 3012 	ldrh.w	r3, [r3, r2, lsl #1]
 8003512:	461a      	mov	r2, r3
 8003514:	697b      	ldr	r3, [r7, #20]
 8003516:	429a      	cmp	r2, r3
 8003518:	d011      	beq.n	800353e <checkLeftSide+0x882>
 800351a:	f9b7 300a 	ldrsh.w	r3, [r7, #10]
 800351e:	f103 13ff 	add.w	r3, r3, #16711935	; 0xff00ff
 8003522:	f503 437f 	add.w	r3, r3, #65280	; 0xff00
 8003526:	021b      	lsls	r3, r3, #8
 8003528:	68fa      	ldr	r2, [r7, #12]
 800352a:	4413      	add	r3, r2
 800352c:	f9b7 2008 	ldrsh.w	r2, [r7, #8]
 8003530:	3a06      	subs	r2, #6
 8003532:	f833 3012 	ldrh.w	r3, [r3, r2, lsl #1]
 8003536:	461a      	mov	r2, r3
 8003538:	697b      	ldr	r3, [r7, #20]
 800353a:	429a      	cmp	r2, r3
 800353c:	d101      	bne.n	8003542 <checkLeftSide+0x886>
				temp = 1;
 800353e:	2301      	movs	r3, #1
 8003540:	65fb      	str	r3, [r7, #92]	; 0x5c
			if (matrix[x0-1][y0]==i || matrix[x0-1][y0-6]==i || matrix[x0-1][y0-12]==i)
				temp = 1;
	}
	// ak objekt je ._
	else if (cisloTvaru == 18){
		for (int i = 2; i<10; i++)
 8003542:	697b      	ldr	r3, [r7, #20]
 8003544:	3301      	adds	r3, #1
 8003546:	617b      	str	r3, [r7, #20]
 8003548:	697b      	ldr	r3, [r7, #20]
 800354a:	2b09      	cmp	r3, #9
 800354c:	ddd4      	ble.n	80034f8 <checkLeftSide+0x83c>
			if (matrix[x0-1][y0]==i || matrix[x0-1][y0-6]==i)
				temp = 1;
	}
	return temp;
 800354e:	6dfb      	ldr	r3, [r7, #92]	; 0x5c
}
 8003550:	4618      	mov	r0, r3
 8003552:	3764      	adds	r7, #100	; 0x64
 8003554:	46bd      	mov	sp, r7
 8003556:	bc80      	pop	{r7}
 8003558:	4770      	bx	lr
 800355a:	bf00      	nop

0800355c <checkRightSide>:

int checkRightSide(uint16_t matrix[128][128], int16_t x0, int16_t y0, int cisloTvaru){
 800355c:	b480      	push	{r7}
 800355e:	b099      	sub	sp, #100	; 0x64
 8003560:	af00      	add	r7, sp, #0
 8003562:	60f8      	str	r0, [r7, #12]
 8003564:	607b      	str	r3, [r7, #4]
 8003566:	460b      	mov	r3, r1
 8003568:	817b      	strh	r3, [r7, #10]
 800356a:	4613      	mov	r3, r2
 800356c:	813b      	strh	r3, [r7, #8]
	int temp = 0;
 800356e:	2300      	movs	r3, #0
 8003570:	65fb      	str	r3, [r7, #92]	; 0x5c
	// ak objekt je stvorec
	if (cisloTvaru == 0){
 8003572:	687b      	ldr	r3, [r7, #4]
 8003574:	2b00      	cmp	r3, #0
 8003576:	d128      	bne.n	80035ca <checkRightSide+0x6e>
		for (int i = 2; i<10; i++)
 8003578:	2302      	movs	r3, #2
 800357a:	65bb      	str	r3, [r7, #88]	; 0x58
 800357c:	e021      	b.n	80035c2 <checkRightSide+0x66>
			if (matrix[x0+12][y0]==i || matrix[x0+12][y0-6]==i)
 800357e:	f9b7 300a 	ldrsh.w	r3, [r7, #10]
 8003582:	330c      	adds	r3, #12
 8003584:	021b      	lsls	r3, r3, #8
 8003586:	68fa      	ldr	r2, [r7, #12]
 8003588:	4413      	add	r3, r2
 800358a:	f9b7 2008 	ldrsh.w	r2, [r7, #8]
 800358e:	f833 3012 	ldrh.w	r3, [r3, r2, lsl #1]
 8003592:	461a      	mov	r2, r3
 8003594:	6dbb      	ldr	r3, [r7, #88]	; 0x58
 8003596:	429a      	cmp	r2, r3
 8003598:	d00e      	beq.n	80035b8 <checkRightSide+0x5c>
 800359a:	f9b7 300a 	ldrsh.w	r3, [r7, #10]
 800359e:	330c      	adds	r3, #12
 80035a0:	021b      	lsls	r3, r3, #8
 80035a2:	68fa      	ldr	r2, [r7, #12]
 80035a4:	4413      	add	r3, r2
 80035a6:	f9b7 2008 	ldrsh.w	r2, [r7, #8]
 80035aa:	3a06      	subs	r2, #6
 80035ac:	f833 3012 	ldrh.w	r3, [r3, r2, lsl #1]
 80035b0:	461a      	mov	r2, r3
 80035b2:	6dbb      	ldr	r3, [r7, #88]	; 0x58
 80035b4:	429a      	cmp	r2, r3
 80035b6:	d101      	bne.n	80035bc <checkRightSide+0x60>
				temp = 1;
 80035b8:	2301      	movs	r3, #1
 80035ba:	65fb      	str	r3, [r7, #92]	; 0x5c

int checkRightSide(uint16_t matrix[128][128], int16_t x0, int16_t y0, int cisloTvaru){
	int temp = 0;
	// ak objekt je stvorec
	if (cisloTvaru == 0){
		for (int i = 2; i<10; i++)
 80035bc:	6dbb      	ldr	r3, [r7, #88]	; 0x58
 80035be:	3301      	adds	r3, #1
 80035c0:	65bb      	str	r3, [r7, #88]	; 0x58
 80035c2:	6dbb      	ldr	r3, [r7, #88]	; 0x58
 80035c4:	2b09      	cmp	r3, #9
 80035c6:	ddda      	ble.n	800357e <checkRightSide+0x22>
 80035c8:	e39d      	b.n	8003d06 <checkRightSide+0x7aa>
			if (matrix[x0+12][y0]==i || matrix[x0+12][y0-6]==i)
				temp = 1;
	}
	// ak objekt je |
	else if (cisloTvaru == 1){
 80035ca:	687b      	ldr	r3, [r7, #4]
 80035cc:	2b01      	cmp	r3, #1
 80035ce:	d146      	bne.n	800365e <checkRightSide+0x102>
		for (int i = 2; i<10; i++)
 80035d0:	2302      	movs	r3, #2
 80035d2:	657b      	str	r3, [r7, #84]	; 0x54
 80035d4:	e03f      	b.n	8003656 <checkRightSide+0xfa>
			if (matrix[x0+6][y0]==i || matrix[x0+6][y0-6]==i || matrix[x0+6][y0-12]==i || matrix[x0+6][y0-18]==i)
 80035d6:	f9b7 300a 	ldrsh.w	r3, [r7, #10]
 80035da:	3306      	adds	r3, #6
 80035dc:	021b      	lsls	r3, r3, #8
 80035de:	68fa      	ldr	r2, [r7, #12]
 80035e0:	4413      	add	r3, r2
 80035e2:	f9b7 2008 	ldrsh.w	r2, [r7, #8]
 80035e6:	f833 3012 	ldrh.w	r3, [r3, r2, lsl #1]
 80035ea:	461a      	mov	r2, r3
 80035ec:	6d7b      	ldr	r3, [r7, #84]	; 0x54
 80035ee:	429a      	cmp	r2, r3
 80035f0:	d02c      	beq.n	800364c <checkRightSide+0xf0>
 80035f2:	f9b7 300a 	ldrsh.w	r3, [r7, #10]
 80035f6:	3306      	adds	r3, #6
 80035f8:	021b      	lsls	r3, r3, #8
 80035fa:	68fa      	ldr	r2, [r7, #12]
 80035fc:	4413      	add	r3, r2
 80035fe:	f9b7 2008 	ldrsh.w	r2, [r7, #8]
 8003602:	3a06      	subs	r2, #6
 8003604:	f833 3012 	ldrh.w	r3, [r3, r2, lsl #1]
 8003608:	461a      	mov	r2, r3
 800360a:	6d7b      	ldr	r3, [r7, #84]	; 0x54
 800360c:	429a      	cmp	r2, r3
 800360e:	d01d      	beq.n	800364c <checkRightSide+0xf0>
 8003610:	f9b7 300a 	ldrsh.w	r3, [r7, #10]
 8003614:	3306      	adds	r3, #6
 8003616:	021b      	lsls	r3, r3, #8
 8003618:	68fa      	ldr	r2, [r7, #12]
 800361a:	4413      	add	r3, r2
 800361c:	f9b7 2008 	ldrsh.w	r2, [r7, #8]
 8003620:	3a0c      	subs	r2, #12
 8003622:	f833 3012 	ldrh.w	r3, [r3, r2, lsl #1]
 8003626:	461a      	mov	r2, r3
 8003628:	6d7b      	ldr	r3, [r7, #84]	; 0x54
 800362a:	429a      	cmp	r2, r3
 800362c:	d00e      	beq.n	800364c <checkRightSide+0xf0>
 800362e:	f9b7 300a 	ldrsh.w	r3, [r7, #10]
 8003632:	3306      	adds	r3, #6
 8003634:	021b      	lsls	r3, r3, #8
 8003636:	68fa      	ldr	r2, [r7, #12]
 8003638:	4413      	add	r3, r2
 800363a:	f9b7 2008 	ldrsh.w	r2, [r7, #8]
 800363e:	3a12      	subs	r2, #18
 8003640:	f833 3012 	ldrh.w	r3, [r3, r2, lsl #1]
 8003644:	461a      	mov	r2, r3
 8003646:	6d7b      	ldr	r3, [r7, #84]	; 0x54
 8003648:	429a      	cmp	r2, r3
 800364a:	d101      	bne.n	8003650 <checkRightSide+0xf4>
				temp = 1;
 800364c:	2301      	movs	r3, #1
 800364e:	65fb      	str	r3, [r7, #92]	; 0x5c
			if (matrix[x0+12][y0]==i || matrix[x0+12][y0-6]==i)
				temp = 1;
	}
	// ak objekt je |
	else if (cisloTvaru == 1){
		for (int i = 2; i<10; i++)
 8003650:	6d7b      	ldr	r3, [r7, #84]	; 0x54
 8003652:	3301      	adds	r3, #1
 8003654:	657b      	str	r3, [r7, #84]	; 0x54
 8003656:	6d7b      	ldr	r3, [r7, #84]	; 0x54
 8003658:	2b09      	cmp	r3, #9
 800365a:	ddbc      	ble.n	80035d6 <checkRightSide+0x7a>
 800365c:	e353      	b.n	8003d06 <checkRightSide+0x7aa>
			if (matrix[x0+6][y0]==i || matrix[x0+6][y0-6]==i || matrix[x0+6][y0-12]==i || matrix[x0+6][y0-18]==i)
				temp = 1;
	}
	// ak objekt je stvorec _
	else if (cisloTvaru == 2){
 800365e:	687b      	ldr	r3, [r7, #4]
 8003660:	2b02      	cmp	r3, #2
 8003662:	d119      	bne.n	8003698 <checkRightSide+0x13c>
		for (int i = 2; i<10; i++)
 8003664:	2302      	movs	r3, #2
 8003666:	653b      	str	r3, [r7, #80]	; 0x50
 8003668:	e012      	b.n	8003690 <checkRightSide+0x134>
			if (matrix[x0+12][y0]==i)
 800366a:	f9b7 300a 	ldrsh.w	r3, [r7, #10]
 800366e:	330c      	adds	r3, #12
 8003670:	021b      	lsls	r3, r3, #8
 8003672:	68fa      	ldr	r2, [r7, #12]
 8003674:	4413      	add	r3, r2
 8003676:	f9b7 2008 	ldrsh.w	r2, [r7, #8]
 800367a:	f833 3012 	ldrh.w	r3, [r3, r2, lsl #1]
 800367e:	461a      	mov	r2, r3
 8003680:	6d3b      	ldr	r3, [r7, #80]	; 0x50
 8003682:	429a      	cmp	r2, r3
 8003684:	d101      	bne.n	800368a <checkRightSide+0x12e>
				temp = 1;
 8003686:	2301      	movs	r3, #1
 8003688:	65fb      	str	r3, [r7, #92]	; 0x5c
			if (matrix[x0+6][y0]==i || matrix[x0+6][y0-6]==i || matrix[x0+6][y0-12]==i || matrix[x0+6][y0-18]==i)
				temp = 1;
	}
	// ak objekt je stvorec _
	else if (cisloTvaru == 2){
		for (int i = 2; i<10; i++)
 800368a:	6d3b      	ldr	r3, [r7, #80]	; 0x50
 800368c:	3301      	adds	r3, #1
 800368e:	653b      	str	r3, [r7, #80]	; 0x50
 8003690:	6d3b      	ldr	r3, [r7, #80]	; 0x50
 8003692:	2b09      	cmp	r3, #9
 8003694:	dde9      	ble.n	800366a <checkRightSide+0x10e>
 8003696:	e336      	b.n	8003d06 <checkRightSide+0x7aa>
			if (matrix[x0+12][y0]==i)
				temp = 1;
	}
	// ak objekt je Z
	else if (cisloTvaru == 3){
 8003698:	687b      	ldr	r3, [r7, #4]
 800369a:	2b03      	cmp	r3, #3
 800369c:	d128      	bne.n	80036f0 <checkRightSide+0x194>
		for (int i = 2; i<10; i++)
 800369e:	2302      	movs	r3, #2
 80036a0:	64fb      	str	r3, [r7, #76]	; 0x4c
 80036a2:	e021      	b.n	80036e8 <checkRightSide+0x18c>
			if (matrix[x0+18][y0]==i || matrix[x0+12][y0-6]==i)
 80036a4:	f9b7 300a 	ldrsh.w	r3, [r7, #10]
 80036a8:	3312      	adds	r3, #18
 80036aa:	021b      	lsls	r3, r3, #8
 80036ac:	68fa      	ldr	r2, [r7, #12]
 80036ae:	4413      	add	r3, r2
 80036b0:	f9b7 2008 	ldrsh.w	r2, [r7, #8]
 80036b4:	f833 3012 	ldrh.w	r3, [r3, r2, lsl #1]
 80036b8:	461a      	mov	r2, r3
 80036ba:	6cfb      	ldr	r3, [r7, #76]	; 0x4c
 80036bc:	429a      	cmp	r2, r3
 80036be:	d00e      	beq.n	80036de <checkRightSide+0x182>
 80036c0:	f9b7 300a 	ldrsh.w	r3, [r7, #10]
 80036c4:	330c      	adds	r3, #12
 80036c6:	021b      	lsls	r3, r3, #8
 80036c8:	68fa      	ldr	r2, [r7, #12]
 80036ca:	4413      	add	r3, r2
 80036cc:	f9b7 2008 	ldrsh.w	r2, [r7, #8]
 80036d0:	3a06      	subs	r2, #6
 80036d2:	f833 3012 	ldrh.w	r3, [r3, r2, lsl #1]
 80036d6:	461a      	mov	r2, r3
 80036d8:	6cfb      	ldr	r3, [r7, #76]	; 0x4c
 80036da:	429a      	cmp	r2, r3
 80036dc:	d101      	bne.n	80036e2 <checkRightSide+0x186>
				temp = 1;
 80036de:	2301      	movs	r3, #1
 80036e0:	65fb      	str	r3, [r7, #92]	; 0x5c
			if (matrix[x0+12][y0]==i)
				temp = 1;
	}
	// ak objekt je Z
	else if (cisloTvaru == 3){
		for (int i = 2; i<10; i++)
 80036e2:	6cfb      	ldr	r3, [r7, #76]	; 0x4c
 80036e4:	3301      	adds	r3, #1
 80036e6:	64fb      	str	r3, [r7, #76]	; 0x4c
 80036e8:	6cfb      	ldr	r3, [r7, #76]	; 0x4c
 80036ea:	2b09      	cmp	r3, #9
 80036ec:	ddda      	ble.n	80036a4 <checkRightSide+0x148>
 80036ee:	e30a      	b.n	8003d06 <checkRightSide+0x7aa>
			if (matrix[x0+18][y0]==i || matrix[x0+12][y0-6]==i)
				temp = 1;
	}
	// ak objekt je N
	else if (cisloTvaru == 4){
 80036f0:	687b      	ldr	r3, [r7, #4]
 80036f2:	2b04      	cmp	r3, #4
 80036f4:	d137      	bne.n	8003766 <checkRightSide+0x20a>
		for (int i = 2; i<10; i++)
 80036f6:	2302      	movs	r3, #2
 80036f8:	64bb      	str	r3, [r7, #72]	; 0x48
 80036fa:	e030      	b.n	800375e <checkRightSide+0x202>
			if (matrix[x0+6][y0]==i || matrix[x0+12][y0-6]==i || matrix[x0+12][y0-12]==i)
 80036fc:	f9b7 300a 	ldrsh.w	r3, [r7, #10]
 8003700:	3306      	adds	r3, #6
 8003702:	021b      	lsls	r3, r3, #8
 8003704:	68fa      	ldr	r2, [r7, #12]
 8003706:	4413      	add	r3, r2
 8003708:	f9b7 2008 	ldrsh.w	r2, [r7, #8]
 800370c:	f833 3012 	ldrh.w	r3, [r3, r2, lsl #1]
 8003710:	461a      	mov	r2, r3
 8003712:	6cbb      	ldr	r3, [r7, #72]	; 0x48
 8003714:	429a      	cmp	r2, r3
 8003716:	d01d      	beq.n	8003754 <checkRightSide+0x1f8>
 8003718:	f9b7 300a 	ldrsh.w	r3, [r7, #10]
 800371c:	330c      	adds	r3, #12
 800371e:	021b      	lsls	r3, r3, #8
 8003720:	68fa      	ldr	r2, [r7, #12]
 8003722:	4413      	add	r3, r2
 8003724:	f9b7 2008 	ldrsh.w	r2, [r7, #8]
 8003728:	3a06      	subs	r2, #6
 800372a:	f833 3012 	ldrh.w	r3, [r3, r2, lsl #1]
 800372e:	461a      	mov	r2, r3
 8003730:	6cbb      	ldr	r3, [r7, #72]	; 0x48
 8003732:	429a      	cmp	r2, r3
 8003734:	d00e      	beq.n	8003754 <checkRightSide+0x1f8>
 8003736:	f9b7 300a 	ldrsh.w	r3, [r7, #10]
 800373a:	330c      	adds	r3, #12
 800373c:	021b      	lsls	r3, r3, #8
 800373e:	68fa      	ldr	r2, [r7, #12]
 8003740:	4413      	add	r3, r2
 8003742:	f9b7 2008 	ldrsh.w	r2, [r7, #8]
 8003746:	3a0c      	subs	r2, #12
 8003748:	f833 3012 	ldrh.w	r3, [r3, r2, lsl #1]
 800374c:	461a      	mov	r2, r3
 800374e:	6cbb      	ldr	r3, [r7, #72]	; 0x48
 8003750:	429a      	cmp	r2, r3
 8003752:	d101      	bne.n	8003758 <checkRightSide+0x1fc>
				temp = 1;
 8003754:	2301      	movs	r3, #1
 8003756:	65fb      	str	r3, [r7, #92]	; 0x5c
			if (matrix[x0+18][y0]==i || matrix[x0+12][y0-6]==i)
				temp = 1;
	}
	// ak objekt je N
	else if (cisloTvaru == 4){
		for (int i = 2; i<10; i++)
 8003758:	6cbb      	ldr	r3, [r7, #72]	; 0x48
 800375a:	3301      	adds	r3, #1
 800375c:	64bb      	str	r3, [r7, #72]	; 0x48
 800375e:	6cbb      	ldr	r3, [r7, #72]	; 0x48
 8003760:	2b09      	cmp	r3, #9
 8003762:	ddcb      	ble.n	80036fc <checkRightSide+0x1a0>
 8003764:	e2cf      	b.n	8003d06 <checkRightSide+0x7aa>
			if (matrix[x0+6][y0]==i || matrix[x0+12][y0-6]==i || matrix[x0+12][y0-12]==i)
				temp = 1;
	}
	// ak objekt je opacny Z
	else if (cisloTvaru == 5){
 8003766:	687b      	ldr	r3, [r7, #4]
 8003768:	2b05      	cmp	r3, #5
 800376a:	d128      	bne.n	80037be <checkRightSide+0x262>
		for (int i = 2; i<10; i++)
 800376c:	2302      	movs	r3, #2
 800376e:	647b      	str	r3, [r7, #68]	; 0x44
 8003770:	e021      	b.n	80037b6 <checkRightSide+0x25a>
			if (matrix[x0+12][y0]==i || matrix[x0+18][y0-6]==i)
 8003772:	f9b7 300a 	ldrsh.w	r3, [r7, #10]
 8003776:	330c      	adds	r3, #12
 8003778:	021b      	lsls	r3, r3, #8
 800377a:	68fa      	ldr	r2, [r7, #12]
 800377c:	4413      	add	r3, r2
 800377e:	f9b7 2008 	ldrsh.w	r2, [r7, #8]
 8003782:	f833 3012 	ldrh.w	r3, [r3, r2, lsl #1]
 8003786:	461a      	mov	r2, r3
 8003788:	6c7b      	ldr	r3, [r7, #68]	; 0x44
 800378a:	429a      	cmp	r2, r3
 800378c:	d00e      	beq.n	80037ac <checkRightSide+0x250>
 800378e:	f9b7 300a 	ldrsh.w	r3, [r7, #10]
 8003792:	3312      	adds	r3, #18
 8003794:	021b      	lsls	r3, r3, #8
 8003796:	68fa      	ldr	r2, [r7, #12]
 8003798:	4413      	add	r3, r2
 800379a:	f9b7 2008 	ldrsh.w	r2, [r7, #8]
 800379e:	3a06      	subs	r2, #6
 80037a0:	f833 3012 	ldrh.w	r3, [r3, r2, lsl #1]
 80037a4:	461a      	mov	r2, r3
 80037a6:	6c7b      	ldr	r3, [r7, #68]	; 0x44
 80037a8:	429a      	cmp	r2, r3
 80037aa:	d101      	bne.n	80037b0 <checkRightSide+0x254>
				temp = 1;
 80037ac:	2301      	movs	r3, #1
 80037ae:	65fb      	str	r3, [r7, #92]	; 0x5c
			if (matrix[x0+6][y0]==i || matrix[x0+12][y0-6]==i || matrix[x0+12][y0-12]==i)
				temp = 1;
	}
	// ak objekt je opacny Z
	else if (cisloTvaru == 5){
		for (int i = 2; i<10; i++)
 80037b0:	6c7b      	ldr	r3, [r7, #68]	; 0x44
 80037b2:	3301      	adds	r3, #1
 80037b4:	647b      	str	r3, [r7, #68]	; 0x44
 80037b6:	6c7b      	ldr	r3, [r7, #68]	; 0x44
 80037b8:	2b09      	cmp	r3, #9
 80037ba:	ddda      	ble.n	8003772 <checkRightSide+0x216>
 80037bc:	e2a3      	b.n	8003d06 <checkRightSide+0x7aa>
			if (matrix[x0+12][y0]==i || matrix[x0+18][y0-6]==i)
				temp = 1;
	}
	// ak objekt je opacny N
	else if (cisloTvaru == 6){
 80037be:	687b      	ldr	r3, [r7, #4]
 80037c0:	2b06      	cmp	r3, #6
 80037c2:	d137      	bne.n	8003834 <checkRightSide+0x2d8>
		for (int i = 2; i<10; i++)
 80037c4:	2302      	movs	r3, #2
 80037c6:	643b      	str	r3, [r7, #64]	; 0x40
 80037c8:	e030      	b.n	800382c <checkRightSide+0x2d0>
			if (matrix[x0+12][y0]==i || matrix[x0+12][y0-6]==i || matrix[x0+6][y0-12]==i)
 80037ca:	f9b7 300a 	ldrsh.w	r3, [r7, #10]
 80037ce:	330c      	adds	r3, #12
 80037d0:	021b      	lsls	r3, r3, #8
 80037d2:	68fa      	ldr	r2, [r7, #12]
 80037d4:	4413      	add	r3, r2
 80037d6:	f9b7 2008 	ldrsh.w	r2, [r7, #8]
 80037da:	f833 3012 	ldrh.w	r3, [r3, r2, lsl #1]
 80037de:	461a      	mov	r2, r3
 80037e0:	6c3b      	ldr	r3, [r7, #64]	; 0x40
 80037e2:	429a      	cmp	r2, r3
 80037e4:	d01d      	beq.n	8003822 <checkRightSide+0x2c6>
 80037e6:	f9b7 300a 	ldrsh.w	r3, [r7, #10]
 80037ea:	330c      	adds	r3, #12
 80037ec:	021b      	lsls	r3, r3, #8
 80037ee:	68fa      	ldr	r2, [r7, #12]
 80037f0:	4413      	add	r3, r2
 80037f2:	f9b7 2008 	ldrsh.w	r2, [r7, #8]
 80037f6:	3a06      	subs	r2, #6
 80037f8:	f833 3012 	ldrh.w	r3, [r3, r2, lsl #1]
 80037fc:	461a      	mov	r2, r3
 80037fe:	6c3b      	ldr	r3, [r7, #64]	; 0x40
 8003800:	429a      	cmp	r2, r3
 8003802:	d00e      	beq.n	8003822 <checkRightSide+0x2c6>
 8003804:	f9b7 300a 	ldrsh.w	r3, [r7, #10]
 8003808:	3306      	adds	r3, #6
 800380a:	021b      	lsls	r3, r3, #8
 800380c:	68fa      	ldr	r2, [r7, #12]
 800380e:	4413      	add	r3, r2
 8003810:	f9b7 2008 	ldrsh.w	r2, [r7, #8]
 8003814:	3a0c      	subs	r2, #12
 8003816:	f833 3012 	ldrh.w	r3, [r3, r2, lsl #1]
 800381a:	461a      	mov	r2, r3
 800381c:	6c3b      	ldr	r3, [r7, #64]	; 0x40
 800381e:	429a      	cmp	r2, r3
 8003820:	d101      	bne.n	8003826 <checkRightSide+0x2ca>
				temp = 1;
 8003822:	2301      	movs	r3, #1
 8003824:	65fb      	str	r3, [r7, #92]	; 0x5c
			if (matrix[x0+12][y0]==i || matrix[x0+18][y0-6]==i)
				temp = 1;
	}
	// ak objekt je opacny N
	else if (cisloTvaru == 6){
		for (int i = 2; i<10; i++)
 8003826:	6c3b      	ldr	r3, [r7, #64]	; 0x40
 8003828:	3301      	adds	r3, #1
 800382a:	643b      	str	r3, [r7, #64]	; 0x40
 800382c:	6c3b      	ldr	r3, [r7, #64]	; 0x40
 800382e:	2b09      	cmp	r3, #9
 8003830:	ddcb      	ble.n	80037ca <checkRightSide+0x26e>
 8003832:	e268      	b.n	8003d06 <checkRightSide+0x7aa>
			if (matrix[x0+12][y0]==i || matrix[x0+12][y0-6]==i || matrix[x0+6][y0-12]==i)
				temp = 1;
	}
	// ak objekt je L
	else if (cisloTvaru == 7){
 8003834:	687b      	ldr	r3, [r7, #4]
 8003836:	2b07      	cmp	r3, #7
 8003838:	d137      	bne.n	80038aa <checkRightSide+0x34e>
		for (int i = 2; i<10; i++)
 800383a:	2302      	movs	r3, #2
 800383c:	63fb      	str	r3, [r7, #60]	; 0x3c
 800383e:	e030      	b.n	80038a2 <checkRightSide+0x346>
			if (matrix[x0+12][y0]==i || matrix[x0+6][y0-6]==i || matrix[x0+6][y0-12]==i)
 8003840:	f9b7 300a 	ldrsh.w	r3, [r7, #10]
 8003844:	330c      	adds	r3, #12
 8003846:	021b      	lsls	r3, r3, #8
 8003848:	68fa      	ldr	r2, [r7, #12]
 800384a:	4413      	add	r3, r2
 800384c:	f9b7 2008 	ldrsh.w	r2, [r7, #8]
 8003850:	f833 3012 	ldrh.w	r3, [r3, r2, lsl #1]
 8003854:	461a      	mov	r2, r3
 8003856:	6bfb      	ldr	r3, [r7, #60]	; 0x3c
 8003858:	429a      	cmp	r2, r3
 800385a:	d01d      	beq.n	8003898 <checkRightSide+0x33c>
 800385c:	f9b7 300a 	ldrsh.w	r3, [r7, #10]
 8003860:	3306      	adds	r3, #6
 8003862:	021b      	lsls	r3, r3, #8
 8003864:	68fa      	ldr	r2, [r7, #12]
 8003866:	4413      	add	r3, r2
 8003868:	f9b7 2008 	ldrsh.w	r2, [r7, #8]
 800386c:	3a06      	subs	r2, #6
 800386e:	f833 3012 	ldrh.w	r3, [r3, r2, lsl #1]
 8003872:	461a      	mov	r2, r3
 8003874:	6bfb      	ldr	r3, [r7, #60]	; 0x3c
 8003876:	429a      	cmp	r2, r3
 8003878:	d00e      	beq.n	8003898 <checkRightSide+0x33c>
 800387a:	f9b7 300a 	ldrsh.w	r3, [r7, #10]
 800387e:	3306      	adds	r3, #6
 8003880:	021b      	lsls	r3, r3, #8
 8003882:	68fa      	ldr	r2, [r7, #12]
 8003884:	4413      	add	r3, r2
 8003886:	f9b7 2008 	ldrsh.w	r2, [r7, #8]
 800388a:	3a0c      	subs	r2, #12
 800388c:	f833 3012 	ldrh.w	r3, [r3, r2, lsl #1]
 8003890:	461a      	mov	r2, r3
 8003892:	6bfb      	ldr	r3, [r7, #60]	; 0x3c
 8003894:	429a      	cmp	r2, r3
 8003896:	d101      	bne.n	800389c <checkRightSide+0x340>
				temp = 1;
 8003898:	2301      	movs	r3, #1
 800389a:	65fb      	str	r3, [r7, #92]	; 0x5c
			if (matrix[x0+12][y0]==i || matrix[x0+12][y0-6]==i || matrix[x0+6][y0-12]==i)
				temp = 1;
	}
	// ak objekt je L
	else if (cisloTvaru == 7){
		for (int i = 2; i<10; i++)
 800389c:	6bfb      	ldr	r3, [r7, #60]	; 0x3c
 800389e:	3301      	adds	r3, #1
 80038a0:	63fb      	str	r3, [r7, #60]	; 0x3c
 80038a2:	6bfb      	ldr	r3, [r7, #60]	; 0x3c
 80038a4:	2b09      	cmp	r3, #9
 80038a6:	ddcb      	ble.n	8003840 <checkRightSide+0x2e4>
 80038a8:	e22d      	b.n	8003d06 <checkRightSide+0x7aa>
			if (matrix[x0+12][y0]==i || matrix[x0+6][y0-6]==i || matrix[x0+6][y0-12]==i)
				temp = 1;
	}
	// ak objekt je _.
	else if (cisloTvaru == 8){
 80038aa:	687b      	ldr	r3, [r7, #4]
 80038ac:	2b08      	cmp	r3, #8
 80038ae:	d128      	bne.n	8003902 <checkRightSide+0x3a6>
		for (int i = 2; i<10; i++)
 80038b0:	2302      	movs	r3, #2
 80038b2:	63bb      	str	r3, [r7, #56]	; 0x38
 80038b4:	e021      	b.n	80038fa <checkRightSide+0x39e>
			if (matrix[x0+18][y0]==i || matrix[x0+18][y0-6]==i)
 80038b6:	f9b7 300a 	ldrsh.w	r3, [r7, #10]
 80038ba:	3312      	adds	r3, #18
 80038bc:	021b      	lsls	r3, r3, #8
 80038be:	68fa      	ldr	r2, [r7, #12]
 80038c0:	4413      	add	r3, r2
 80038c2:	f9b7 2008 	ldrsh.w	r2, [r7, #8]
 80038c6:	f833 3012 	ldrh.w	r3, [r3, r2, lsl #1]
 80038ca:	461a      	mov	r2, r3
 80038cc:	6bbb      	ldr	r3, [r7, #56]	; 0x38
 80038ce:	429a      	cmp	r2, r3
 80038d0:	d00e      	beq.n	80038f0 <checkRightSide+0x394>
 80038d2:	f9b7 300a 	ldrsh.w	r3, [r7, #10]
 80038d6:	3312      	adds	r3, #18
 80038d8:	021b      	lsls	r3, r3, #8
 80038da:	68fa      	ldr	r2, [r7, #12]
 80038dc:	4413      	add	r3, r2
 80038de:	f9b7 2008 	ldrsh.w	r2, [r7, #8]
 80038e2:	3a06      	subs	r2, #6
 80038e4:	f833 3012 	ldrh.w	r3, [r3, r2, lsl #1]
 80038e8:	461a      	mov	r2, r3
 80038ea:	6bbb      	ldr	r3, [r7, #56]	; 0x38
 80038ec:	429a      	cmp	r2, r3
 80038ee:	d101      	bne.n	80038f4 <checkRightSide+0x398>
				temp = 1;
 80038f0:	2301      	movs	r3, #1
 80038f2:	65fb      	str	r3, [r7, #92]	; 0x5c
			if (matrix[x0+12][y0]==i || matrix[x0+6][y0-6]==i || matrix[x0+6][y0-12]==i)
				temp = 1;
	}
	// ak objekt je _.
	else if (cisloTvaru == 8){
		for (int i = 2; i<10; i++)
 80038f4:	6bbb      	ldr	r3, [r7, #56]	; 0x38
 80038f6:	3301      	adds	r3, #1
 80038f8:	63bb      	str	r3, [r7, #56]	; 0x38
 80038fa:	6bbb      	ldr	r3, [r7, #56]	; 0x38
 80038fc:	2b09      	cmp	r3, #9
 80038fe:	ddda      	ble.n	80038b6 <checkRightSide+0x35a>
 8003900:	e201      	b.n	8003d06 <checkRightSide+0x7aa>
			if (matrix[x0+18][y0]==i || matrix[x0+18][y0-6]==i)
				temp = 1;
	}
	// ak objekt je '|
	else if (cisloTvaru == 9){
 8003902:	687b      	ldr	r3, [r7, #4]
 8003904:	2b09      	cmp	r3, #9
 8003906:	d137      	bne.n	8003978 <checkRightSide+0x41c>
		for (int i = 2; i<10; i++)
 8003908:	2302      	movs	r3, #2
 800390a:	637b      	str	r3, [r7, #52]	; 0x34
 800390c:	e030      	b.n	8003970 <checkRightSide+0x414>
			if (matrix[x0+12][y0]==i || matrix[x0+12][y0-6]==i || matrix[x0+12][y0-12]==i)
 800390e:	f9b7 300a 	ldrsh.w	r3, [r7, #10]
 8003912:	330c      	adds	r3, #12
 8003914:	021b      	lsls	r3, r3, #8
 8003916:	68fa      	ldr	r2, [r7, #12]
 8003918:	4413      	add	r3, r2
 800391a:	f9b7 2008 	ldrsh.w	r2, [r7, #8]
 800391e:	f833 3012 	ldrh.w	r3, [r3, r2, lsl #1]
 8003922:	461a      	mov	r2, r3
 8003924:	6b7b      	ldr	r3, [r7, #52]	; 0x34
 8003926:	429a      	cmp	r2, r3
 8003928:	d01d      	beq.n	8003966 <checkRightSide+0x40a>
 800392a:	f9b7 300a 	ldrsh.w	r3, [r7, #10]
 800392e:	330c      	adds	r3, #12
 8003930:	021b      	lsls	r3, r3, #8
 8003932:	68fa      	ldr	r2, [r7, #12]
 8003934:	4413      	add	r3, r2
 8003936:	f9b7 2008 	ldrsh.w	r2, [r7, #8]
 800393a:	3a06      	subs	r2, #6
 800393c:	f833 3012 	ldrh.w	r3, [r3, r2, lsl #1]
 8003940:	461a      	mov	r2, r3
 8003942:	6b7b      	ldr	r3, [r7, #52]	; 0x34
 8003944:	429a      	cmp	r2, r3
 8003946:	d00e      	beq.n	8003966 <checkRightSide+0x40a>
 8003948:	f9b7 300a 	ldrsh.w	r3, [r7, #10]
 800394c:	330c      	adds	r3, #12
 800394e:	021b      	lsls	r3, r3, #8
 8003950:	68fa      	ldr	r2, [r7, #12]
 8003952:	4413      	add	r3, r2
 8003954:	f9b7 2008 	ldrsh.w	r2, [r7, #8]
 8003958:	3a0c      	subs	r2, #12
 800395a:	f833 3012 	ldrh.w	r3, [r3, r2, lsl #1]
 800395e:	461a      	mov	r2, r3
 8003960:	6b7b      	ldr	r3, [r7, #52]	; 0x34
 8003962:	429a      	cmp	r2, r3
 8003964:	d101      	bne.n	800396a <checkRightSide+0x40e>
				temp = 1;
 8003966:	2301      	movs	r3, #1
 8003968:	65fb      	str	r3, [r7, #92]	; 0x5c
			if (matrix[x0+18][y0]==i || matrix[x0+18][y0-6]==i)
				temp = 1;
	}
	// ak objekt je '|
	else if (cisloTvaru == 9){
		for (int i = 2; i<10; i++)
 800396a:	6b7b      	ldr	r3, [r7, #52]	; 0x34
 800396c:	3301      	adds	r3, #1
 800396e:	637b      	str	r3, [r7, #52]	; 0x34
 8003970:	6b7b      	ldr	r3, [r7, #52]	; 0x34
 8003972:	2b09      	cmp	r3, #9
 8003974:	ddcb      	ble.n	800390e <checkRightSide+0x3b2>
 8003976:	e1c6      	b.n	8003d06 <checkRightSide+0x7aa>
			if (matrix[x0+12][y0]==i || matrix[x0+12][y0-6]==i || matrix[x0+12][y0-12]==i)
				temp = 1;
	}
	// ak objekt je ,..
	else if (cisloTvaru == 10){
 8003978:	687b      	ldr	r3, [r7, #4]
 800397a:	2b0a      	cmp	r3, #10
 800397c:	d128      	bne.n	80039d0 <checkRightSide+0x474>
		for (int i = 2; i<10; i++)
 800397e:	2302      	movs	r3, #2
 8003980:	633b      	str	r3, [r7, #48]	; 0x30
 8003982:	e021      	b.n	80039c8 <checkRightSide+0x46c>
			if (matrix[x0+6][y0]==i || matrix[x0+18][y0-6]==i)
 8003984:	f9b7 300a 	ldrsh.w	r3, [r7, #10]
 8003988:	3306      	adds	r3, #6
 800398a:	021b      	lsls	r3, r3, #8
 800398c:	68fa      	ldr	r2, [r7, #12]
 800398e:	4413      	add	r3, r2
 8003990:	f9b7 2008 	ldrsh.w	r2, [r7, #8]
 8003994:	f833 3012 	ldrh.w	r3, [r3, r2, lsl #1]
 8003998:	461a      	mov	r2, r3
 800399a:	6b3b      	ldr	r3, [r7, #48]	; 0x30
 800399c:	429a      	cmp	r2, r3
 800399e:	d00e      	beq.n	80039be <checkRightSide+0x462>
 80039a0:	f9b7 300a 	ldrsh.w	r3, [r7, #10]
 80039a4:	3312      	adds	r3, #18
 80039a6:	021b      	lsls	r3, r3, #8
 80039a8:	68fa      	ldr	r2, [r7, #12]
 80039aa:	4413      	add	r3, r2
 80039ac:	f9b7 2008 	ldrsh.w	r2, [r7, #8]
 80039b0:	3a06      	subs	r2, #6
 80039b2:	f833 3012 	ldrh.w	r3, [r3, r2, lsl #1]
 80039b6:	461a      	mov	r2, r3
 80039b8:	6b3b      	ldr	r3, [r7, #48]	; 0x30
 80039ba:	429a      	cmp	r2, r3
 80039bc:	d101      	bne.n	80039c2 <checkRightSide+0x466>
				temp = 1;
 80039be:	2301      	movs	r3, #1
 80039c0:	65fb      	str	r3, [r7, #92]	; 0x5c
			if (matrix[x0+12][y0]==i || matrix[x0+12][y0-6]==i || matrix[x0+12][y0-12]==i)
				temp = 1;
	}
	// ak objekt je ,..
	else if (cisloTvaru == 10){
		for (int i = 2; i<10; i++)
 80039c2:	6b3b      	ldr	r3, [r7, #48]	; 0x30
 80039c4:	3301      	adds	r3, #1
 80039c6:	633b      	str	r3, [r7, #48]	; 0x30
 80039c8:	6b3b      	ldr	r3, [r7, #48]	; 0x30
 80039ca:	2b09      	cmp	r3, #9
 80039cc:	ddda      	ble.n	8003984 <checkRightSide+0x428>
 80039ce:	e19a      	b.n	8003d06 <checkRightSide+0x7aa>
			if (matrix[x0+6][y0]==i || matrix[x0+18][y0-6]==i)
				temp = 1;
	}
	// ak objekt je .|.
	else if (cisloTvaru == 11){
 80039d0:	687b      	ldr	r3, [r7, #4]
 80039d2:	2b0b      	cmp	r3, #11
 80039d4:	d128      	bne.n	8003a28 <checkRightSide+0x4cc>
		for (int i = 2; i<10; i++)
 80039d6:	2302      	movs	r3, #2
 80039d8:	62fb      	str	r3, [r7, #44]	; 0x2c
 80039da:	e021      	b.n	8003a20 <checkRightSide+0x4c4>
			if (matrix[x0+18][y0]==i || matrix[x0+12][y0-6]==i)
 80039dc:	f9b7 300a 	ldrsh.w	r3, [r7, #10]
 80039e0:	3312      	adds	r3, #18
 80039e2:	021b      	lsls	r3, r3, #8
 80039e4:	68fa      	ldr	r2, [r7, #12]
 80039e6:	4413      	add	r3, r2
 80039e8:	f9b7 2008 	ldrsh.w	r2, [r7, #8]
 80039ec:	f833 3012 	ldrh.w	r3, [r3, r2, lsl #1]
 80039f0:	461a      	mov	r2, r3
 80039f2:	6afb      	ldr	r3, [r7, #44]	; 0x2c
 80039f4:	429a      	cmp	r2, r3
 80039f6:	d00e      	beq.n	8003a16 <checkRightSide+0x4ba>
 80039f8:	f9b7 300a 	ldrsh.w	r3, [r7, #10]
 80039fc:	330c      	adds	r3, #12
 80039fe:	021b      	lsls	r3, r3, #8
 8003a00:	68fa      	ldr	r2, [r7, #12]
 8003a02:	4413      	add	r3, r2
 8003a04:	f9b7 2008 	ldrsh.w	r2, [r7, #8]
 8003a08:	3a06      	subs	r2, #6
 8003a0a:	f833 3012 	ldrh.w	r3, [r3, r2, lsl #1]
 8003a0e:	461a      	mov	r2, r3
 8003a10:	6afb      	ldr	r3, [r7, #44]	; 0x2c
 8003a12:	429a      	cmp	r2, r3
 8003a14:	d101      	bne.n	8003a1a <checkRightSide+0x4be>
				temp = 1;
 8003a16:	2301      	movs	r3, #1
 8003a18:	65fb      	str	r3, [r7, #92]	; 0x5c
			if (matrix[x0+6][y0]==i || matrix[x0+18][y0-6]==i)
				temp = 1;
	}
	// ak objekt je .|.
	else if (cisloTvaru == 11){
		for (int i = 2; i<10; i++)
 8003a1a:	6afb      	ldr	r3, [r7, #44]	; 0x2c
 8003a1c:	3301      	adds	r3, #1
 8003a1e:	62fb      	str	r3, [r7, #44]	; 0x2c
 8003a20:	6afb      	ldr	r3, [r7, #44]	; 0x2c
 8003a22:	2b09      	cmp	r3, #9
 8003a24:	ddda      	ble.n	80039dc <checkRightSide+0x480>
 8003a26:	e16e      	b.n	8003d06 <checkRightSide+0x7aa>
			if (matrix[x0+18][y0]==i || matrix[x0+12][y0-6]==i)
				temp = 1;
	}
	// ak objekt je -|
	else if (cisloTvaru == 12){
 8003a28:	687b      	ldr	r3, [r7, #4]
 8003a2a:	2b0c      	cmp	r3, #12
 8003a2c:	d137      	bne.n	8003a9e <checkRightSide+0x542>
		for (int i = 2; i<10; i++)
 8003a2e:	2302      	movs	r3, #2
 8003a30:	62bb      	str	r3, [r7, #40]	; 0x28
 8003a32:	e030      	b.n	8003a96 <checkRightSide+0x53a>
			if (matrix[x0+12][y0]==i || matrix[x0+12][y0-6]==i || matrix[x0+12][y0-12]==i)
 8003a34:	f9b7 300a 	ldrsh.w	r3, [r7, #10]
 8003a38:	330c      	adds	r3, #12
 8003a3a:	021b      	lsls	r3, r3, #8
 8003a3c:	68fa      	ldr	r2, [r7, #12]
 8003a3e:	4413      	add	r3, r2
 8003a40:	f9b7 2008 	ldrsh.w	r2, [r7, #8]
 8003a44:	f833 3012 	ldrh.w	r3, [r3, r2, lsl #1]
 8003a48:	461a      	mov	r2, r3
 8003a4a:	6abb      	ldr	r3, [r7, #40]	; 0x28
 8003a4c:	429a      	cmp	r2, r3
 8003a4e:	d01d      	beq.n	8003a8c <checkRightSide+0x530>
 8003a50:	f9b7 300a 	ldrsh.w	r3, [r7, #10]
 8003a54:	330c      	adds	r3, #12
 8003a56:	021b      	lsls	r3, r3, #8
 8003a58:	68fa      	ldr	r2, [r7, #12]
 8003a5a:	4413      	add	r3, r2
 8003a5c:	f9b7 2008 	ldrsh.w	r2, [r7, #8]
 8003a60:	3a06      	subs	r2, #6
 8003a62:	f833 3012 	ldrh.w	r3, [r3, r2, lsl #1]
 8003a66:	461a      	mov	r2, r3
 8003a68:	6abb      	ldr	r3, [r7, #40]	; 0x28
 8003a6a:	429a      	cmp	r2, r3
 8003a6c:	d00e      	beq.n	8003a8c <checkRightSide+0x530>
 8003a6e:	f9b7 300a 	ldrsh.w	r3, [r7, #10]
 8003a72:	330c      	adds	r3, #12
 8003a74:	021b      	lsls	r3, r3, #8
 8003a76:	68fa      	ldr	r2, [r7, #12]
 8003a78:	4413      	add	r3, r2
 8003a7a:	f9b7 2008 	ldrsh.w	r2, [r7, #8]
 8003a7e:	3a0c      	subs	r2, #12
 8003a80:	f833 3012 	ldrh.w	r3, [r3, r2, lsl #1]
 8003a84:	461a      	mov	r2, r3
 8003a86:	6abb      	ldr	r3, [r7, #40]	; 0x28
 8003a88:	429a      	cmp	r2, r3
 8003a8a:	d101      	bne.n	8003a90 <checkRightSide+0x534>
				temp = 1;
 8003a8c:	2301      	movs	r3, #1
 8003a8e:	65fb      	str	r3, [r7, #92]	; 0x5c
			if (matrix[x0+18][y0]==i || matrix[x0+12][y0-6]==i)
				temp = 1;
	}
	// ak objekt je -|
	else if (cisloTvaru == 12){
		for (int i = 2; i<10; i++)
 8003a90:	6abb      	ldr	r3, [r7, #40]	; 0x28
 8003a92:	3301      	adds	r3, #1
 8003a94:	62bb      	str	r3, [r7, #40]	; 0x28
 8003a96:	6abb      	ldr	r3, [r7, #40]	; 0x28
 8003a98:	2b09      	cmp	r3, #9
 8003a9a:	ddcb      	ble.n	8003a34 <checkRightSide+0x4d8>
 8003a9c:	e133      	b.n	8003d06 <checkRightSide+0x7aa>
			if (matrix[x0+12][y0]==i || matrix[x0+12][y0-6]==i || matrix[x0+12][y0-12]==i)
				temp = 1;
	}
	// ak objekt je .,.
	else if (cisloTvaru == 13){
 8003a9e:	687b      	ldr	r3, [r7, #4]
 8003aa0:	2b0d      	cmp	r3, #13
 8003aa2:	d128      	bne.n	8003af6 <checkRightSide+0x59a>
		for (int i = 2; i<10; i++)
 8003aa4:	2302      	movs	r3, #2
 8003aa6:	627b      	str	r3, [r7, #36]	; 0x24
 8003aa8:	e021      	b.n	8003aee <checkRightSide+0x592>
			if (matrix[x0+12][y0]==i || matrix[x0+18][y0-6]==i)
 8003aaa:	f9b7 300a 	ldrsh.w	r3, [r7, #10]
 8003aae:	330c      	adds	r3, #12
 8003ab0:	021b      	lsls	r3, r3, #8
 8003ab2:	68fa      	ldr	r2, [r7, #12]
 8003ab4:	4413      	add	r3, r2
 8003ab6:	f9b7 2008 	ldrsh.w	r2, [r7, #8]
 8003aba:	f833 3012 	ldrh.w	r3, [r3, r2, lsl #1]
 8003abe:	461a      	mov	r2, r3
 8003ac0:	6a7b      	ldr	r3, [r7, #36]	; 0x24
 8003ac2:	429a      	cmp	r2, r3
 8003ac4:	d00e      	beq.n	8003ae4 <checkRightSide+0x588>
 8003ac6:	f9b7 300a 	ldrsh.w	r3, [r7, #10]
 8003aca:	3312      	adds	r3, #18
 8003acc:	021b      	lsls	r3, r3, #8
 8003ace:	68fa      	ldr	r2, [r7, #12]
 8003ad0:	4413      	add	r3, r2
 8003ad2:	f9b7 2008 	ldrsh.w	r2, [r7, #8]
 8003ad6:	3a06      	subs	r2, #6
 8003ad8:	f833 3012 	ldrh.w	r3, [r3, r2, lsl #1]
 8003adc:	461a      	mov	r2, r3
 8003ade:	6a7b      	ldr	r3, [r7, #36]	; 0x24
 8003ae0:	429a      	cmp	r2, r3
 8003ae2:	d101      	bne.n	8003ae8 <checkRightSide+0x58c>
				temp = 1;
 8003ae4:	2301      	movs	r3, #1
 8003ae6:	65fb      	str	r3, [r7, #92]	; 0x5c
			if (matrix[x0+12][y0]==i || matrix[x0+12][y0-6]==i || matrix[x0+12][y0-12]==i)
				temp = 1;
	}
	// ak objekt je .,.
	else if (cisloTvaru == 13){
		for (int i = 2; i<10; i++)
 8003ae8:	6a7b      	ldr	r3, [r7, #36]	; 0x24
 8003aea:	3301      	adds	r3, #1
 8003aec:	627b      	str	r3, [r7, #36]	; 0x24
 8003aee:	6a7b      	ldr	r3, [r7, #36]	; 0x24
 8003af0:	2b09      	cmp	r3, #9
 8003af2:	ddda      	ble.n	8003aaa <checkRightSide+0x54e>
 8003af4:	e107      	b.n	8003d06 <checkRightSide+0x7aa>
			if (matrix[x0+12][y0]==i || matrix[x0+18][y0-6]==i)
				temp = 1;
	}
	// ak objekt je |-
	else if (cisloTvaru == 14){
 8003af6:	687b      	ldr	r3, [r7, #4]
 8003af8:	2b0e      	cmp	r3, #14
 8003afa:	d137      	bne.n	8003b6c <checkRightSide+0x610>
		for (int i = 2; i<10; i++)
 8003afc:	2302      	movs	r3, #2
 8003afe:	623b      	str	r3, [r7, #32]
 8003b00:	e030      	b.n	8003b64 <checkRightSide+0x608>
			if (matrix[x0+6][y0]==i || matrix[x0+12][y0-6]==i || matrix[x0+6][y0-12]==i)
 8003b02:	f9b7 300a 	ldrsh.w	r3, [r7, #10]
 8003b06:	3306      	adds	r3, #6
 8003b08:	021b      	lsls	r3, r3, #8
 8003b0a:	68fa      	ldr	r2, [r7, #12]
 8003b0c:	4413      	add	r3, r2
 8003b0e:	f9b7 2008 	ldrsh.w	r2, [r7, #8]
 8003b12:	f833 3012 	ldrh.w	r3, [r3, r2, lsl #1]
 8003b16:	461a      	mov	r2, r3
 8003b18:	6a3b      	ldr	r3, [r7, #32]
 8003b1a:	429a      	cmp	r2, r3
 8003b1c:	d01d      	beq.n	8003b5a <checkRightSide+0x5fe>
 8003b1e:	f9b7 300a 	ldrsh.w	r3, [r7, #10]
 8003b22:	330c      	adds	r3, #12
 8003b24:	021b      	lsls	r3, r3, #8
 8003b26:	68fa      	ldr	r2, [r7, #12]
 8003b28:	4413      	add	r3, r2
 8003b2a:	f9b7 2008 	ldrsh.w	r2, [r7, #8]
 8003b2e:	3a06      	subs	r2, #6
 8003b30:	f833 3012 	ldrh.w	r3, [r3, r2, lsl #1]
 8003b34:	461a      	mov	r2, r3
 8003b36:	6a3b      	ldr	r3, [r7, #32]
 8003b38:	429a      	cmp	r2, r3
 8003b3a:	d00e      	beq.n	8003b5a <checkRightSide+0x5fe>
 8003b3c:	f9b7 300a 	ldrsh.w	r3, [r7, #10]
 8003b40:	3306      	adds	r3, #6
 8003b42:	021b      	lsls	r3, r3, #8
 8003b44:	68fa      	ldr	r2, [r7, #12]
 8003b46:	4413      	add	r3, r2
 8003b48:	f9b7 2008 	ldrsh.w	r2, [r7, #8]
 8003b4c:	3a0c      	subs	r2, #12
 8003b4e:	f833 3012 	ldrh.w	r3, [r3, r2, lsl #1]
 8003b52:	461a      	mov	r2, r3
 8003b54:	6a3b      	ldr	r3, [r7, #32]
 8003b56:	429a      	cmp	r2, r3
 8003b58:	d101      	bne.n	8003b5e <checkRightSide+0x602>
				temp = 1;
 8003b5a:	2301      	movs	r3, #1
 8003b5c:	65fb      	str	r3, [r7, #92]	; 0x5c
			if (matrix[x0+12][y0]==i || matrix[x0+18][y0-6]==i)
				temp = 1;
	}
	// ak objekt je |-
	else if (cisloTvaru == 14){
		for (int i = 2; i<10; i++)
 8003b5e:	6a3b      	ldr	r3, [r7, #32]
 8003b60:	3301      	adds	r3, #1
 8003b62:	623b      	str	r3, [r7, #32]
 8003b64:	6a3b      	ldr	r3, [r7, #32]
 8003b66:	2b09      	cmp	r3, #9
 8003b68:	ddcb      	ble.n	8003b02 <checkRightSide+0x5a6>
 8003b6a:	e0cc      	b.n	8003d06 <checkRightSide+0x7aa>
			if (matrix[x0+6][y0]==i || matrix[x0+12][y0-6]==i || matrix[x0+6][y0-12]==i)
				temp = 1;
	}
	// ak objekt je opacny L
	else if (cisloTvaru == 15){
 8003b6c:	687b      	ldr	r3, [r7, #4]
 8003b6e:	2b0f      	cmp	r3, #15
 8003b70:	d137      	bne.n	8003be2 <checkRightSide+0x686>
		for (int i = 2; i<10; i++)
 8003b72:	2302      	movs	r3, #2
 8003b74:	61fb      	str	r3, [r7, #28]
 8003b76:	e030      	b.n	8003bda <checkRightSide+0x67e>
			if (matrix[x0+12][y0]==i || matrix[x0+12][y0-6]==i || matrix[x0+12][y0-12]==i)
 8003b78:	f9b7 300a 	ldrsh.w	r3, [r7, #10]
 8003b7c:	330c      	adds	r3, #12
 8003b7e:	021b      	lsls	r3, r3, #8
 8003b80:	68fa      	ldr	r2, [r7, #12]
 8003b82:	4413      	add	r3, r2
 8003b84:	f9b7 2008 	ldrsh.w	r2, [r7, #8]
 8003b88:	f833 3012 	ldrh.w	r3, [r3, r2, lsl #1]
 8003b8c:	461a      	mov	r2, r3
 8003b8e:	69fb      	ldr	r3, [r7, #28]
 8003b90:	429a      	cmp	r2, r3
 8003b92:	d01d      	beq.n	8003bd0 <checkRightSide+0x674>
 8003b94:	f9b7 300a 	ldrsh.w	r3, [r7, #10]
 8003b98:	330c      	adds	r3, #12
 8003b9a:	021b      	lsls	r3, r3, #8
 8003b9c:	68fa      	ldr	r2, [r7, #12]
 8003b9e:	4413      	add	r3, r2
 8003ba0:	f9b7 2008 	ldrsh.w	r2, [r7, #8]
 8003ba4:	3a06      	subs	r2, #6
 8003ba6:	f833 3012 	ldrh.w	r3, [r3, r2, lsl #1]
 8003baa:	461a      	mov	r2, r3
 8003bac:	69fb      	ldr	r3, [r7, #28]
 8003bae:	429a      	cmp	r2, r3
 8003bb0:	d00e      	beq.n	8003bd0 <checkRightSide+0x674>
 8003bb2:	f9b7 300a 	ldrsh.w	r3, [r7, #10]
 8003bb6:	330c      	adds	r3, #12
 8003bb8:	021b      	lsls	r3, r3, #8
 8003bba:	68fa      	ldr	r2, [r7, #12]
 8003bbc:	4413      	add	r3, r2
 8003bbe:	f9b7 2008 	ldrsh.w	r2, [r7, #8]
 8003bc2:	3a0c      	subs	r2, #12
 8003bc4:	f833 3012 	ldrh.w	r3, [r3, r2, lsl #1]
 8003bc8:	461a      	mov	r2, r3
 8003bca:	69fb      	ldr	r3, [r7, #28]
 8003bcc:	429a      	cmp	r2, r3
 8003bce:	d101      	bne.n	8003bd4 <checkRightSide+0x678>
				temp = 1;
 8003bd0:	2301      	movs	r3, #1
 8003bd2:	65fb      	str	r3, [r7, #92]	; 0x5c
			if (matrix[x0+6][y0]==i || matrix[x0+12][y0-6]==i || matrix[x0+6][y0-12]==i)
				temp = 1;
	}
	// ak objekt je opacny L
	else if (cisloTvaru == 15){
		for (int i = 2; i<10; i++)
 8003bd4:	69fb      	ldr	r3, [r7, #28]
 8003bd6:	3301      	adds	r3, #1
 8003bd8:	61fb      	str	r3, [r7, #28]
 8003bda:	69fb      	ldr	r3, [r7, #28]
 8003bdc:	2b09      	cmp	r3, #9
 8003bde:	ddcb      	ble.n	8003b78 <checkRightSide+0x61c>
 8003be0:	e091      	b.n	8003d06 <checkRightSide+0x7aa>
			if (matrix[x0+12][y0]==i || matrix[x0+12][y0-6]==i || matrix[x0+12][y0-12]==i)
				temp = 1;
	}
	// ak objekt je ..,
	else if (cisloTvaru == 16){
 8003be2:	687b      	ldr	r3, [r7, #4]
 8003be4:	2b10      	cmp	r3, #16
 8003be6:	d128      	bne.n	8003c3a <checkRightSide+0x6de>
		for (int i = 2; i<10; i++)
 8003be8:	2302      	movs	r3, #2
 8003bea:	61bb      	str	r3, [r7, #24]
 8003bec:	e021      	b.n	8003c32 <checkRightSide+0x6d6>
			if (matrix[x0+18][y0]==i || matrix[x0+18][y0-6]==i)
 8003bee:	f9b7 300a 	ldrsh.w	r3, [r7, #10]
 8003bf2:	3312      	adds	r3, #18
 8003bf4:	021b      	lsls	r3, r3, #8
 8003bf6:	68fa      	ldr	r2, [r7, #12]
 8003bf8:	4413      	add	r3, r2
 8003bfa:	f9b7 2008 	ldrsh.w	r2, [r7, #8]
 8003bfe:	f833 3012 	ldrh.w	r3, [r3, r2, lsl #1]
 8003c02:	461a      	mov	r2, r3
 8003c04:	69bb      	ldr	r3, [r7, #24]
 8003c06:	429a      	cmp	r2, r3
 8003c08:	d00e      	beq.n	8003c28 <checkRightSide+0x6cc>
 8003c0a:	f9b7 300a 	ldrsh.w	r3, [r7, #10]
 8003c0e:	3312      	adds	r3, #18
 8003c10:	021b      	lsls	r3, r3, #8
 8003c12:	68fa      	ldr	r2, [r7, #12]
 8003c14:	4413      	add	r3, r2
 8003c16:	f9b7 2008 	ldrsh.w	r2, [r7, #8]
 8003c1a:	3a06      	subs	r2, #6
 8003c1c:	f833 3012 	ldrh.w	r3, [r3, r2, lsl #1]
 8003c20:	461a      	mov	r2, r3
 8003c22:	69bb      	ldr	r3, [r7, #24]
 8003c24:	429a      	cmp	r2, r3
 8003c26:	d101      	bne.n	8003c2c <checkRightSide+0x6d0>
				temp = 1;
 8003c28:	2301      	movs	r3, #1
 8003c2a:	65fb      	str	r3, [r7, #92]	; 0x5c
			if (matrix[x0+12][y0]==i || matrix[x0+12][y0-6]==i || matrix[x0+12][y0-12]==i)
				temp = 1;
	}
	// ak objekt je ..,
	else if (cisloTvaru == 16){
		for (int i = 2; i<10; i++)
 8003c2c:	69bb      	ldr	r3, [r7, #24]
 8003c2e:	3301      	adds	r3, #1
 8003c30:	61bb      	str	r3, [r7, #24]
 8003c32:	69bb      	ldr	r3, [r7, #24]
 8003c34:	2b09      	cmp	r3, #9
 8003c36:	ddda      	ble.n	8003bee <checkRightSide+0x692>
 8003c38:	e065      	b.n	8003d06 <checkRightSide+0x7aa>
			if (matrix[x0+18][y0]==i || matrix[x0+18][y0-6]==i)
				temp = 1;
	}
	// ak objekt je |'
	else if (cisloTvaru == 17){
 8003c3a:	687b      	ldr	r3, [r7, #4]
 8003c3c:	2b11      	cmp	r3, #17
 8003c3e:	d137      	bne.n	8003cb0 <checkRightSide+0x754>
		for (int i = 2; i<10; i++)
 8003c40:	2302      	movs	r3, #2
 8003c42:	617b      	str	r3, [r7, #20]
 8003c44:	e030      	b.n	8003ca8 <checkRightSide+0x74c>
			if (matrix[x0+6][y0]==i || matrix[x0+6][y0-6]==i || matrix[x0+12][y0-12]==i)
 8003c46:	f9b7 300a 	ldrsh.w	r3, [r7, #10]
 8003c4a:	3306      	adds	r3, #6
 8003c4c:	021b      	lsls	r3, r3, #8
 8003c4e:	68fa      	ldr	r2, [r7, #12]
 8003c50:	4413      	add	r3, r2
 8003c52:	f9b7 2008 	ldrsh.w	r2, [r7, #8]
 8003c56:	f833 3012 	ldrh.w	r3, [r3, r2, lsl #1]
 8003c5a:	461a      	mov	r2, r3
 8003c5c:	697b      	ldr	r3, [r7, #20]
 8003c5e:	429a      	cmp	r2, r3
 8003c60:	d01d      	beq.n	8003c9e <checkRightSide+0x742>
 8003c62:	f9b7 300a 	ldrsh.w	r3, [r7, #10]
 8003c66:	3306      	adds	r3, #6
 8003c68:	021b      	lsls	r3, r3, #8
 8003c6a:	68fa      	ldr	r2, [r7, #12]
 8003c6c:	4413      	add	r3, r2
 8003c6e:	f9b7 2008 	ldrsh.w	r2, [r7, #8]
 8003c72:	3a06      	subs	r2, #6
 8003c74:	f833 3012 	ldrh.w	r3, [r3, r2, lsl #1]
 8003c78:	461a      	mov	r2, r3
 8003c7a:	697b      	ldr	r3, [r7, #20]
 8003c7c:	429a      	cmp	r2, r3
 8003c7e:	d00e      	beq.n	8003c9e <checkRightSide+0x742>
 8003c80:	f9b7 300a 	ldrsh.w	r3, [r7, #10]
 8003c84:	330c      	adds	r3, #12
 8003c86:	021b      	lsls	r3, r3, #8
 8003c88:	68fa      	ldr	r2, [r7, #12]
 8003c8a:	4413      	add	r3, r2
 8003c8c:	f9b7 2008 	ldrsh.w	r2, [r7, #8]
 8003c90:	3a0c      	subs	r2, #12
 8003c92:	f833 3012 	ldrh.w	r3, [r3, r2, lsl #1]
 8003c96:	461a      	mov	r2, r3
 8003c98:	697b      	ldr	r3, [r7, #20]
 8003c9a:	429a      	cmp	r2, r3
 8003c9c:	d101      	bne.n	8003ca2 <checkRightSide+0x746>
				temp = 1;
 8003c9e:	2301      	movs	r3, #1
 8003ca0:	65fb      	str	r3, [r7, #92]	; 0x5c
			if (matrix[x0+18][y0]==i || matrix[x0+18][y0-6]==i)
				temp = 1;
	}
	// ak objekt je |'
	else if (cisloTvaru == 17){
		for (int i = 2; i<10; i++)
 8003ca2:	697b      	ldr	r3, [r7, #20]
 8003ca4:	3301      	adds	r3, #1
 8003ca6:	617b      	str	r3, [r7, #20]
 8003ca8:	697b      	ldr	r3, [r7, #20]
 8003caa:	2b09      	cmp	r3, #9
 8003cac:	ddcb      	ble.n	8003c46 <checkRightSide+0x6ea>
 8003cae:	e02a      	b.n	8003d06 <checkRightSide+0x7aa>
			if (matrix[x0+6][y0]==i || matrix[x0+6][y0-6]==i || matrix[x0+12][y0-12]==i)
				temp = 1;
	}
	// ak objekt je ._
	else if (cisloTvaru == 18){
 8003cb0:	687b      	ldr	r3, [r7, #4]
 8003cb2:	2b12      	cmp	r3, #18
 8003cb4:	d127      	bne.n	8003d06 <checkRightSide+0x7aa>
		for (int i = 2; i<10; i++)
 8003cb6:	2302      	movs	r3, #2
 8003cb8:	613b      	str	r3, [r7, #16]
 8003cba:	e021      	b.n	8003d00 <checkRightSide+0x7a4>
			if (matrix[x0+18][y0]==i || matrix[x0+6][y0-6]==i)
 8003cbc:	f9b7 300a 	ldrsh.w	r3, [r7, #10]
 8003cc0:	3312      	adds	r3, #18
 8003cc2:	021b      	lsls	r3, r3, #8
 8003cc4:	68fa      	ldr	r2, [r7, #12]
 8003cc6:	4413      	add	r3, r2
 8003cc8:	f9b7 2008 	ldrsh.w	r2, [r7, #8]
 8003ccc:	f833 3012 	ldrh.w	r3, [r3, r2, lsl #1]
 8003cd0:	461a      	mov	r2, r3
 8003cd2:	693b      	ldr	r3, [r7, #16]
 8003cd4:	429a      	cmp	r2, r3
 8003cd6:	d00e      	beq.n	8003cf6 <checkRightSide+0x79a>
 8003cd8:	f9b7 300a 	ldrsh.w	r3, [r7, #10]
 8003cdc:	3306      	adds	r3, #6
 8003cde:	021b      	lsls	r3, r3, #8
 8003ce0:	68fa      	ldr	r2, [r7, #12]
 8003ce2:	4413      	add	r3, r2
 8003ce4:	f9b7 2008 	ldrsh.w	r2, [r7, #8]
 8003ce8:	3a06      	subs	r2, #6
 8003cea:	f833 3012 	ldrh.w	r3, [r3, r2, lsl #1]
 8003cee:	461a      	mov	r2, r3
 8003cf0:	693b      	ldr	r3, [r7, #16]
 8003cf2:	429a      	cmp	r2, r3
 8003cf4:	d101      	bne.n	8003cfa <checkRightSide+0x79e>
				temp = 1;
 8003cf6:	2301      	movs	r3, #1
 8003cf8:	65fb      	str	r3, [r7, #92]	; 0x5c
			if (matrix[x0+6][y0]==i || matrix[x0+6][y0-6]==i || matrix[x0+12][y0-12]==i)
				temp = 1;
	}
	// ak objekt je ._
	else if (cisloTvaru == 18){
		for (int i = 2; i<10; i++)
 8003cfa:	693b      	ldr	r3, [r7, #16]
 8003cfc:	3301      	adds	r3, #1
 8003cfe:	613b      	str	r3, [r7, #16]
 8003d00:	693b      	ldr	r3, [r7, #16]
 8003d02:	2b09      	cmp	r3, #9
 8003d04:	ddda      	ble.n	8003cbc <checkRightSide+0x760>
			if (matrix[x0+18][y0]==i || matrix[x0+6][y0-6]==i)
				temp = 1;
	}
	return temp;
 8003d06:	6dfb      	ldr	r3, [r7, #92]	; 0x5c
}
 8003d08:	4618      	mov	r0, r3
 8003d0a:	3764      	adds	r7, #100	; 0x64
 8003d0c:	46bd      	mov	sp, r7
 8003d0e:	bc80      	pop	{r7}
 8003d10:	4770      	bx	lr
 8003d12:	bf00      	nop

08003d14 <checkLineFilled>:

int checkLineFilled(uint16_t matrix[128][128]){
 8003d14:	b480      	push	{r7}
 8003d16:	f5ad 7d0d 	sub.w	sp, sp, #564	; 0x234
 8003d1a:	af00      	add	r7, sp, #0
 8003d1c:	1d3b      	adds	r3, r7, #4
 8003d1e:	6018      	str	r0, [r3, #0]
	int cRow[127];
	int temp = 0;
 8003d20:	2300      	movs	r3, #0
 8003d22:	f8c7 322c 	str.w	r3, [r7, #556]	; 0x22c
	int count=0;
 8003d26:	2300      	movs	r3, #0
 8003d28:	f8c7 3228 	str.w	r3, [r7, #552]	; 0x228
	for (int x =0; x<127;x++){
 8003d2c:	2300      	movs	r3, #0
 8003d2e:	f8c7 3224 	str.w	r3, [r7, #548]	; 0x224
 8003d32:	e00b      	b.n	8003d4c <checkLineFilled+0x38>
		cRow[x]=0;
 8003d34:	f107 030c 	add.w	r3, r7, #12
 8003d38:	f8d7 2224 	ldr.w	r2, [r7, #548]	; 0x224
 8003d3c:	2100      	movs	r1, #0
 8003d3e:	f843 1022 	str.w	r1, [r3, r2, lsl #2]

int checkLineFilled(uint16_t matrix[128][128]){
	int cRow[127];
	int temp = 0;
	int count=0;
	for (int x =0; x<127;x++){
 8003d42:	f8d7 3224 	ldr.w	r3, [r7, #548]	; 0x224
 8003d46:	3301      	adds	r3, #1
 8003d48:	f8c7 3224 	str.w	r3, [r7, #548]	; 0x224
 8003d4c:	f8d7 3224 	ldr.w	r3, [r7, #548]	; 0x224
 8003d50:	2b7e      	cmp	r3, #126	; 0x7e
 8003d52:	ddef      	ble.n	8003d34 <checkLineFilled+0x20>
		cRow[x]=0;
	}
	for(int i=0;i<127;i++){
 8003d54:	2300      	movs	r3, #0
 8003d56:	f8c7 3220 	str.w	r3, [r7, #544]	; 0x220
 8003d5a:	e05f      	b.n	8003e1c <checkLineFilled+0x108>
		for(int j=57;j<117;j++){
 8003d5c:	2339      	movs	r3, #57	; 0x39
 8003d5e:	f8c7 321c 	str.w	r3, [r7, #540]	; 0x21c
 8003d62:	e02d      	b.n	8003dc0 <checkLineFilled+0xac>
			for (int z = 2; z<10; z++)
 8003d64:	2302      	movs	r3, #2
 8003d66:	f8c7 3218 	str.w	r3, [r7, #536]	; 0x218
 8003d6a:	e020      	b.n	8003dae <checkLineFilled+0x9a>
				if (matrix[j][i]==z)
 8003d6c:	f8d7 321c 	ldr.w	r3, [r7, #540]	; 0x21c
 8003d70:	021b      	lsls	r3, r3, #8
 8003d72:	1d3a      	adds	r2, r7, #4
 8003d74:	6812      	ldr	r2, [r2, #0]
 8003d76:	4413      	add	r3, r2
 8003d78:	f8d7 2220 	ldr.w	r2, [r7, #544]	; 0x220
 8003d7c:	f833 3012 	ldrh.w	r3, [r3, r2, lsl #1]
 8003d80:	461a      	mov	r2, r3
 8003d82:	f8d7 3218 	ldr.w	r3, [r7, #536]	; 0x218
 8003d86:	429a      	cmp	r2, r3
 8003d88:	d10c      	bne.n	8003da4 <checkLineFilled+0x90>
					cRow[i] += 1;
 8003d8a:	f107 030c 	add.w	r3, r7, #12
 8003d8e:	f8d7 2220 	ldr.w	r2, [r7, #544]	; 0x220
 8003d92:	f853 3022 	ldr.w	r3, [r3, r2, lsl #2]
 8003d96:	1c59      	adds	r1, r3, #1
 8003d98:	f107 030c 	add.w	r3, r7, #12
 8003d9c:	f8d7 2220 	ldr.w	r2, [r7, #544]	; 0x220
 8003da0:	f843 1022 	str.w	r1, [r3, r2, lsl #2]
	for (int x =0; x<127;x++){
		cRow[x]=0;
	}
	for(int i=0;i<127;i++){
		for(int j=57;j<117;j++){
			for (int z = 2; z<10; z++)
 8003da4:	f8d7 3218 	ldr.w	r3, [r7, #536]	; 0x218
 8003da8:	3301      	adds	r3, #1
 8003daa:	f8c7 3218 	str.w	r3, [r7, #536]	; 0x218
 8003dae:	f8d7 3218 	ldr.w	r3, [r7, #536]	; 0x218
 8003db2:	2b09      	cmp	r3, #9
 8003db4:	ddda      	ble.n	8003d6c <checkLineFilled+0x58>
	int count=0;
	for (int x =0; x<127;x++){
		cRow[x]=0;
	}
	for(int i=0;i<127;i++){
		for(int j=57;j<117;j++){
 8003db6:	f8d7 321c 	ldr.w	r3, [r7, #540]	; 0x21c
 8003dba:	3301      	adds	r3, #1
 8003dbc:	f8c7 321c 	str.w	r3, [r7, #540]	; 0x21c
 8003dc0:	f8d7 321c 	ldr.w	r3, [r7, #540]	; 0x21c
 8003dc4:	2b74      	cmp	r3, #116	; 0x74
 8003dc6:	ddcd      	ble.n	8003d64 <checkLineFilled+0x50>
			for (int z = 2; z<10; z++)
				if (matrix[j][i]==z)
					cRow[i] += 1;
				}
		if (cRow[i]==60){
 8003dc8:	f107 030c 	add.w	r3, r7, #12
 8003dcc:	f8d7 2220 	ldr.w	r2, [r7, #544]	; 0x220
 8003dd0:	f853 3022 	ldr.w	r3, [r3, r2, lsl #2]
 8003dd4:	2b3c      	cmp	r3, #60	; 0x3c
 8003dd6:	d11c      	bne.n	8003e12 <checkLineFilled+0xfe>
			count++;
 8003dd8:	f8d7 3228 	ldr.w	r3, [r7, #552]	; 0x228
 8003ddc:	3301      	adds	r3, #1
 8003dde:	f8c7 3228 	str.w	r3, [r7, #552]	; 0x228
			for(int j=57;j<117;j++){
 8003de2:	2339      	movs	r3, #57	; 0x39
 8003de4:	f8c7 3214 	str.w	r3, [r7, #532]	; 0x214
 8003de8:	e00f      	b.n	8003e0a <checkLineFilled+0xf6>
				matrix[j][i]=0;
 8003dea:	f8d7 3214 	ldr.w	r3, [r7, #532]	; 0x214
 8003dee:	021b      	lsls	r3, r3, #8
 8003df0:	1d3a      	adds	r2, r7, #4
 8003df2:	6812      	ldr	r2, [r2, #0]
 8003df4:	4413      	add	r3, r2
 8003df6:	f8d7 2220 	ldr.w	r2, [r7, #544]	; 0x220
 8003dfa:	2100      	movs	r1, #0
 8003dfc:	f823 1012 	strh.w	r1, [r3, r2, lsl #1]
				if (matrix[j][i]==z)
					cRow[i] += 1;
				}
		if (cRow[i]==60){
			count++;
			for(int j=57;j<117;j++){
 8003e00:	f8d7 3214 	ldr.w	r3, [r7, #532]	; 0x214
 8003e04:	3301      	adds	r3, #1
 8003e06:	f8c7 3214 	str.w	r3, [r7, #532]	; 0x214
 8003e0a:	f8d7 3214 	ldr.w	r3, [r7, #532]	; 0x214
 8003e0e:	2b74      	cmp	r3, #116	; 0x74
 8003e10:	ddeb      	ble.n	8003dea <checkLineFilled+0xd6>
	int temp = 0;
	int count=0;
	for (int x =0; x<127;x++){
		cRow[x]=0;
	}
	for(int i=0;i<127;i++){
 8003e12:	f8d7 3220 	ldr.w	r3, [r7, #544]	; 0x220
 8003e16:	3301      	adds	r3, #1
 8003e18:	f8c7 3220 	str.w	r3, [r7, #544]	; 0x220
 8003e1c:	f8d7 3220 	ldr.w	r3, [r7, #544]	; 0x220
 8003e20:	2b7e      	cmp	r3, #126	; 0x7e
 8003e22:	dd9b      	ble.n	8003d5c <checkLineFilled+0x48>
			for(int j=57;j<117;j++){
				matrix[j][i]=0;
			}
		}
	}
	for(int i=0;i<127;i++){
 8003e24:	2300      	movs	r3, #0
 8003e26:	f8c7 3210 	str.w	r3, [r7, #528]	; 0x210
 8003e2a:	e03c      	b.n	8003ea6 <checkLineFilled+0x192>
		for(int j=57;j<117;j++){
 8003e2c:	2339      	movs	r3, #57	; 0x39
 8003e2e:	f8c7 320c 	str.w	r3, [r7, #524]	; 0x20c
 8003e32:	e02f      	b.n	8003e94 <checkLineFilled+0x180>
			if (cRow[i]==60){
 8003e34:	f107 030c 	add.w	r3, r7, #12
 8003e38:	f8d7 2210 	ldr.w	r2, [r7, #528]	; 0x210
 8003e3c:	f853 3022 	ldr.w	r3, [r3, r2, lsl #2]
 8003e40:	2b3c      	cmp	r3, #60	; 0x3c
 8003e42:	d122      	bne.n	8003e8a <checkLineFilled+0x176>
				int pom = i;
 8003e44:	f8d7 3210 	ldr.w	r3, [r7, #528]	; 0x210
 8003e48:	f8c7 3208 	str.w	r3, [r7, #520]	; 0x208
				while(pom!=0){
 8003e4c:	e019      	b.n	8003e82 <checkLineFilled+0x16e>
					matrix[j][pom] = matrix[j][pom-1];
 8003e4e:	f8d7 320c 	ldr.w	r3, [r7, #524]	; 0x20c
 8003e52:	021b      	lsls	r3, r3, #8
 8003e54:	1d3a      	adds	r2, r7, #4
 8003e56:	6812      	ldr	r2, [r2, #0]
 8003e58:	4413      	add	r3, r2
 8003e5a:	f8d7 220c 	ldr.w	r2, [r7, #524]	; 0x20c
 8003e5e:	0212      	lsls	r2, r2, #8
 8003e60:	1d39      	adds	r1, r7, #4
 8003e62:	6809      	ldr	r1, [r1, #0]
 8003e64:	440a      	add	r2, r1
 8003e66:	f8d7 1208 	ldr.w	r1, [r7, #520]	; 0x208
 8003e6a:	3901      	subs	r1, #1
 8003e6c:	f832 1011 	ldrh.w	r1, [r2, r1, lsl #1]
 8003e70:	f8d7 2208 	ldr.w	r2, [r7, #520]	; 0x208
 8003e74:	f823 1012 	strh.w	r1, [r3, r2, lsl #1]
					pom--;
 8003e78:	f8d7 3208 	ldr.w	r3, [r7, #520]	; 0x208
 8003e7c:	3b01      	subs	r3, #1
 8003e7e:	f8c7 3208 	str.w	r3, [r7, #520]	; 0x208
	}
	for(int i=0;i<127;i++){
		for(int j=57;j<117;j++){
			if (cRow[i]==60){
				int pom = i;
				while(pom!=0){
 8003e82:	f8d7 3208 	ldr.w	r3, [r7, #520]	; 0x208
 8003e86:	2b00      	cmp	r3, #0
 8003e88:	d1e1      	bne.n	8003e4e <checkLineFilled+0x13a>
				matrix[j][i]=0;
			}
		}
	}
	for(int i=0;i<127;i++){
		for(int j=57;j<117;j++){
 8003e8a:	f8d7 320c 	ldr.w	r3, [r7, #524]	; 0x20c
 8003e8e:	3301      	adds	r3, #1
 8003e90:	f8c7 320c 	str.w	r3, [r7, #524]	; 0x20c
 8003e94:	f8d7 320c 	ldr.w	r3, [r7, #524]	; 0x20c
 8003e98:	2b74      	cmp	r3, #116	; 0x74
 8003e9a:	ddcb      	ble.n	8003e34 <checkLineFilled+0x120>
			for(int j=57;j<117;j++){
				matrix[j][i]=0;
			}
		}
	}
	for(int i=0;i<127;i++){
 8003e9c:	f8d7 3210 	ldr.w	r3, [r7, #528]	; 0x210
 8003ea0:	3301      	adds	r3, #1
 8003ea2:	f8c7 3210 	str.w	r3, [r7, #528]	; 0x210
 8003ea6:	f8d7 3210 	ldr.w	r3, [r7, #528]	; 0x210
 8003eaa:	2b7e      	cmp	r3, #126	; 0x7e
 8003eac:	ddbe      	ble.n	8003e2c <checkLineFilled+0x118>
					pom--;
				}
			}
		}
	}
	if (count/6 == 1){
 8003eae:	f8d7 3228 	ldr.w	r3, [r7, #552]	; 0x228
 8003eb2:	3b06      	subs	r3, #6
 8003eb4:	2b05      	cmp	r3, #5
 8003eb6:	d803      	bhi.n	8003ec0 <checkLineFilled+0x1ac>
		temp = 100;
 8003eb8:	2364      	movs	r3, #100	; 0x64
 8003eba:	f8c7 322c 	str.w	r3, [r7, #556]	; 0x22c
 8003ebe:	e01b      	b.n	8003ef8 <checkLineFilled+0x1e4>
	}
	else if (count/6 == 2){
 8003ec0:	f8d7 3228 	ldr.w	r3, [r7, #552]	; 0x228
 8003ec4:	3b0c      	subs	r3, #12
 8003ec6:	2b05      	cmp	r3, #5
 8003ec8:	d803      	bhi.n	8003ed2 <checkLineFilled+0x1be>
		temp = 200;
 8003eca:	23c8      	movs	r3, #200	; 0xc8
 8003ecc:	f8c7 322c 	str.w	r3, [r7, #556]	; 0x22c
 8003ed0:	e012      	b.n	8003ef8 <checkLineFilled+0x1e4>
	}
	else if (count/6 == 3){
 8003ed2:	f8d7 3228 	ldr.w	r3, [r7, #552]	; 0x228
 8003ed6:	3b12      	subs	r3, #18
 8003ed8:	2b05      	cmp	r3, #5
 8003eda:	d804      	bhi.n	8003ee6 <checkLineFilled+0x1d2>
		temp = 300;
 8003edc:	f44f 7396 	mov.w	r3, #300	; 0x12c
 8003ee0:	f8c7 322c 	str.w	r3, [r7, #556]	; 0x22c
 8003ee4:	e008      	b.n	8003ef8 <checkLineFilled+0x1e4>
	}
	else if (count/6 == 4){
 8003ee6:	f8d7 3228 	ldr.w	r3, [r7, #552]	; 0x228
 8003eea:	3b18      	subs	r3, #24
 8003eec:	2b05      	cmp	r3, #5
 8003eee:	d803      	bhi.n	8003ef8 <checkLineFilled+0x1e4>
		temp = 800;
 8003ef0:	f44f 7348 	mov.w	r3, #800	; 0x320
 8003ef4:	f8c7 322c 	str.w	r3, [r7, #556]	; 0x22c
	}
	return temp;
 8003ef8:	f8d7 322c 	ldr.w	r3, [r7, #556]	; 0x22c
}
 8003efc:	4618      	mov	r0, r3
 8003efe:	f507 770d 	add.w	r7, r7, #564	; 0x234
 8003f02:	46bd      	mov	sp, r7
 8003f04:	bc80      	pop	{r7}
 8003f06:	4770      	bx	lr

08003f08 <checkGameOver>:

int checkGameOver(uint16_t matrix[128][128], int16_t y0, int cisloTvaru){
 8003f08:	b480      	push	{r7}
 8003f0a:	b087      	sub	sp, #28
 8003f0c:	af00      	add	r7, sp, #0
 8003f0e:	60f8      	str	r0, [r7, #12]
 8003f10:	460b      	mov	r3, r1
 8003f12:	607a      	str	r2, [r7, #4]
 8003f14:	817b      	strh	r3, [r7, #10]
	int temp = 0;
 8003f16:	2300      	movs	r3, #0
 8003f18:	617b      	str	r3, [r7, #20]
	for (int i=0; i<19; i++)
 8003f1a:	2300      	movs	r3, #0
 8003f1c:	613b      	str	r3, [r7, #16]
 8003f1e:	e00f      	b.n	8003f40 <checkGameOver+0x38>
		if (i!=2)
 8003f20:	693b      	ldr	r3, [r7, #16]
 8003f22:	2b02      	cmp	r3, #2
 8003f24:	d009      	beq.n	8003f3a <checkGameOver+0x32>
			if ((cisloTvaru == i) && (y0-6)==0)
 8003f26:	687a      	ldr	r2, [r7, #4]
 8003f28:	693b      	ldr	r3, [r7, #16]
 8003f2a:	429a      	cmp	r2, r3
 8003f2c:	d105      	bne.n	8003f3a <checkGameOver+0x32>
 8003f2e:	f9b7 300a 	ldrsh.w	r3, [r7, #10]
 8003f32:	2b06      	cmp	r3, #6
 8003f34:	d101      	bne.n	8003f3a <checkGameOver+0x32>
				temp=1;
 8003f36:	2301      	movs	r3, #1
 8003f38:	617b      	str	r3, [r7, #20]
	return temp;
}

int checkGameOver(uint16_t matrix[128][128], int16_t y0, int cisloTvaru){
	int temp = 0;
	for (int i=0; i<19; i++)
 8003f3a:	693b      	ldr	r3, [r7, #16]
 8003f3c:	3301      	adds	r3, #1
 8003f3e:	613b      	str	r3, [r7, #16]
 8003f40:	693b      	ldr	r3, [r7, #16]
 8003f42:	2b12      	cmp	r3, #18
 8003f44:	ddec      	ble.n	8003f20 <checkGameOver+0x18>
		if (i!=2)
			if ((cisloTvaru == i) && (y0-6)==0)
				temp=1;
	return temp;
 8003f46:	697b      	ldr	r3, [r7, #20]
}
 8003f48:	4618      	mov	r0, r3
 8003f4a:	371c      	adds	r7, #28
 8003f4c:	46bd      	mov	sp, r7
 8003f4e:	bc80      	pop	{r7}
 8003f50:	4770      	bx	lr
 8003f52:	bf00      	nop

08003f54 <createFrame>:

void createFrame(uint16_t matrix[128][128]){
 8003f54:	b480      	push	{r7}
 8003f56:	b085      	sub	sp, #20
 8003f58:	af00      	add	r7, sp, #0
 8003f5a:	6078      	str	r0, [r7, #4]
	for(int i=56;i<118;i++){
 8003f5c:	2338      	movs	r3, #56	; 0x38
 8003f5e:	60fb      	str	r3, [r7, #12]
 8003f60:	e037      	b.n	8003fd2 <createFrame+0x7e>
		for(int j=0;j<128;j++){
 8003f62:	2300      	movs	r3, #0
 8003f64:	60bb      	str	r3, [r7, #8]
 8003f66:	e02e      	b.n	8003fc6 <createFrame+0x72>
			if(i==56)
 8003f68:	68fb      	ldr	r3, [r7, #12]
 8003f6a:	2b38      	cmp	r3, #56	; 0x38
 8003f6c:	d108      	bne.n	8003f80 <createFrame+0x2c>
				matrix[i][j]=2;
 8003f6e:	68fb      	ldr	r3, [r7, #12]
 8003f70:	021b      	lsls	r3, r3, #8
 8003f72:	687a      	ldr	r2, [r7, #4]
 8003f74:	4413      	add	r3, r2
 8003f76:	68ba      	ldr	r2, [r7, #8]
 8003f78:	2102      	movs	r1, #2
 8003f7a:	f823 1012 	strh.w	r1, [r3, r2, lsl #1]
 8003f7e:	e01f      	b.n	8003fc0 <createFrame+0x6c>
			else if(i==117)
 8003f80:	68fb      	ldr	r3, [r7, #12]
 8003f82:	2b75      	cmp	r3, #117	; 0x75
 8003f84:	d108      	bne.n	8003f98 <createFrame+0x44>
				matrix[i][j]=2;
 8003f86:	68fb      	ldr	r3, [r7, #12]
 8003f88:	021b      	lsls	r3, r3, #8
 8003f8a:	687a      	ldr	r2, [r7, #4]
 8003f8c:	4413      	add	r3, r2
 8003f8e:	68ba      	ldr	r2, [r7, #8]
 8003f90:	2102      	movs	r1, #2
 8003f92:	f823 1012 	strh.w	r1, [r3, r2, lsl #1]
 8003f96:	e013      	b.n	8003fc0 <createFrame+0x6c>
			else if(j==127)
 8003f98:	68bb      	ldr	r3, [r7, #8]
 8003f9a:	2b7f      	cmp	r3, #127	; 0x7f
 8003f9c:	d108      	bne.n	8003fb0 <createFrame+0x5c>
				matrix[i][j]=2;
 8003f9e:	68fb      	ldr	r3, [r7, #12]
 8003fa0:	021b      	lsls	r3, r3, #8
 8003fa2:	687a      	ldr	r2, [r7, #4]
 8003fa4:	4413      	add	r3, r2
 8003fa6:	68ba      	ldr	r2, [r7, #8]
 8003fa8:	2102      	movs	r1, #2
 8003faa:	f823 1012 	strh.w	r1, [r3, r2, lsl #1]
 8003fae:	e007      	b.n	8003fc0 <createFrame+0x6c>
			else
				matrix[i][j]=0;
 8003fb0:	68fb      	ldr	r3, [r7, #12]
 8003fb2:	021b      	lsls	r3, r3, #8
 8003fb4:	687a      	ldr	r2, [r7, #4]
 8003fb6:	4413      	add	r3, r2
 8003fb8:	68ba      	ldr	r2, [r7, #8]
 8003fba:	2100      	movs	r1, #0
 8003fbc:	f823 1012 	strh.w	r1, [r3, r2, lsl #1]
	return temp;
}

void createFrame(uint16_t matrix[128][128]){
	for(int i=56;i<118;i++){
		for(int j=0;j<128;j++){
 8003fc0:	68bb      	ldr	r3, [r7, #8]
 8003fc2:	3301      	adds	r3, #1
 8003fc4:	60bb      	str	r3, [r7, #8]
 8003fc6:	68bb      	ldr	r3, [r7, #8]
 8003fc8:	2b7f      	cmp	r3, #127	; 0x7f
 8003fca:	ddcd      	ble.n	8003f68 <createFrame+0x14>
				temp=1;
	return temp;
}

void createFrame(uint16_t matrix[128][128]){
	for(int i=56;i<118;i++){
 8003fcc:	68fb      	ldr	r3, [r7, #12]
 8003fce:	3301      	adds	r3, #1
 8003fd0:	60fb      	str	r3, [r7, #12]
 8003fd2:	68fb      	ldr	r3, [r7, #12]
 8003fd4:	2b75      	cmp	r3, #117	; 0x75
 8003fd6:	ddc4      	ble.n	8003f62 <createFrame+0xe>
				matrix[i][j]=2;
			else
				matrix[i][j]=0;
		}
	}
}
 8003fd8:	bf00      	nop
 8003fda:	3714      	adds	r7, #20
 8003fdc:	46bd      	mov	sp, r7
 8003fde:	bc80      	pop	{r7}
 8003fe0:	4770      	bx	lr
 8003fe2:	bf00      	nop

08003fe4 <createText>:

void createText(char alias[7]){
 8003fe4:	e92d 41f0 	stmdb	sp!, {r4, r5, r6, r7, r8, lr}
 8003fe8:	b086      	sub	sp, #24
 8003fea:	af02      	add	r7, sp, #8
 8003fec:	6078      	str	r0, [r7, #4]
	lcdPutS("Player:", lcdTextX(1), lcdTextY(1), decodeRgbValue(255, 255, 255), decodeRgbValue(0, 0, 0));
 8003fee:	2001      	movs	r0, #1
 8003ff0:	f7fd fa58 	bl	80014a4 <lcdTextX>
 8003ff4:	4603      	mov	r3, r0
 8003ff6:	461c      	mov	r4, r3
 8003ff8:	2001      	movs	r0, #1
 8003ffa:	f7fd fa63 	bl	80014c4 <lcdTextY>
 8003ffe:	4603      	mov	r3, r0
 8004000:	461d      	mov	r5, r3
 8004002:	22ff      	movs	r2, #255	; 0xff
 8004004:	21ff      	movs	r1, #255	; 0xff
 8004006:	20ff      	movs	r0, #255	; 0xff
 8004008:	f7fd fa30 	bl	800146c <decodeRgbValue>
 800400c:	4603      	mov	r3, r0
 800400e:	461e      	mov	r6, r3
 8004010:	2200      	movs	r2, #0
 8004012:	2100      	movs	r1, #0
 8004014:	2000      	movs	r0, #0
 8004016:	f7fd fa29 	bl	800146c <decodeRgbValue>
 800401a:	4603      	mov	r3, r0
 800401c:	9300      	str	r3, [sp, #0]
 800401e:	4633      	mov	r3, r6
 8004020:	462a      	mov	r2, r5
 8004022:	4621      	mov	r1, r4
 8004024:	4848      	ldr	r0, [pc, #288]	; (8004148 <createText+0x164>)
 8004026:	f7fd fa5b 	bl	80014e0 <lcdPutS>
	for (int i=0; i<7; i++)
 800402a:	2300      	movs	r3, #0
 800402c:	60fb      	str	r3, [r7, #12]
 800402e:	e028      	b.n	8004082 <createText+0x9e>
		lcdPutCh(alias[i], lcdTextX(i+1), lcdTextY(2), decodeRgbValue(255, 255, 255), decodeRgbValue(0, 0, 0));
 8004030:	68fb      	ldr	r3, [r7, #12]
 8004032:	687a      	ldr	r2, [r7, #4]
 8004034:	4413      	add	r3, r2
 8004036:	781c      	ldrb	r4, [r3, #0]
 8004038:	68fb      	ldr	r3, [r7, #12]
 800403a:	b2db      	uxtb	r3, r3
 800403c:	3301      	adds	r3, #1
 800403e:	b2db      	uxtb	r3, r3
 8004040:	4618      	mov	r0, r3
 8004042:	f7fd fa2f 	bl	80014a4 <lcdTextX>
 8004046:	4603      	mov	r3, r0
 8004048:	461d      	mov	r5, r3
 800404a:	2002      	movs	r0, #2
 800404c:	f7fd fa3a 	bl	80014c4 <lcdTextY>
 8004050:	4603      	mov	r3, r0
 8004052:	461e      	mov	r6, r3
 8004054:	22ff      	movs	r2, #255	; 0xff
 8004056:	21ff      	movs	r1, #255	; 0xff
 8004058:	20ff      	movs	r0, #255	; 0xff
 800405a:	f7fd fa07 	bl	800146c <decodeRgbValue>
 800405e:	4603      	mov	r3, r0
 8004060:	4698      	mov	r8, r3
 8004062:	2200      	movs	r2, #0
 8004064:	2100      	movs	r1, #0
 8004066:	2000      	movs	r0, #0
 8004068:	f7fd fa00 	bl	800146c <decodeRgbValue>
 800406c:	4603      	mov	r3, r0
 800406e:	9300      	str	r3, [sp, #0]
 8004070:	4643      	mov	r3, r8
 8004072:	4632      	mov	r2, r6
 8004074:	4629      	mov	r1, r5
 8004076:	4620      	mov	r0, r4
 8004078:	f7fd f982 	bl	8001380 <lcdPutCh>
	}
}

void createText(char alias[7]){
	lcdPutS("Player:", lcdTextX(1), lcdTextY(1), decodeRgbValue(255, 255, 255), decodeRgbValue(0, 0, 0));
	for (int i=0; i<7; i++)
 800407c:	68fb      	ldr	r3, [r7, #12]
 800407e:	3301      	adds	r3, #1
 8004080:	60fb      	str	r3, [r7, #12]
 8004082:	68fb      	ldr	r3, [r7, #12]
 8004084:	2b06      	cmp	r3, #6
 8004086:	ddd3      	ble.n	8004030 <createText+0x4c>
		lcdPutCh(alias[i], lcdTextX(i+1), lcdTextY(2), decodeRgbValue(255, 255, 255), decodeRgbValue(0, 0, 0));
	lcdPutS("Lines:", lcdTextX(1), lcdTextY(4), decodeRgbValue(255, 255, 255), decodeRgbValue(0, 0, 0));
 8004088:	2001      	movs	r0, #1
 800408a:	f7fd fa0b 	bl	80014a4 <lcdTextX>
 800408e:	4603      	mov	r3, r0
 8004090:	461c      	mov	r4, r3
 8004092:	2004      	movs	r0, #4
 8004094:	f7fd fa16 	bl	80014c4 <lcdTextY>
 8004098:	4603      	mov	r3, r0
 800409a:	461d      	mov	r5, r3
 800409c:	22ff      	movs	r2, #255	; 0xff
 800409e:	21ff      	movs	r1, #255	; 0xff
 80040a0:	20ff      	movs	r0, #255	; 0xff
 80040a2:	f7fd f9e3 	bl	800146c <decodeRgbValue>
 80040a6:	4603      	mov	r3, r0
 80040a8:	461e      	mov	r6, r3
 80040aa:	2200      	movs	r2, #0
 80040ac:	2100      	movs	r1, #0
 80040ae:	2000      	movs	r0, #0
 80040b0:	f7fd f9dc 	bl	800146c <decodeRgbValue>
 80040b4:	4603      	mov	r3, r0
 80040b6:	9300      	str	r3, [sp, #0]
 80040b8:	4633      	mov	r3, r6
 80040ba:	462a      	mov	r2, r5
 80040bc:	4621      	mov	r1, r4
 80040be:	4823      	ldr	r0, [pc, #140]	; (800414c <createText+0x168>)
 80040c0:	f7fd fa0e 	bl	80014e0 <lcdPutS>
	lcdPutS("Score:", lcdTextX(1), lcdTextY(7), decodeRgbValue(255, 255, 255), decodeRgbValue(0, 0, 0));
 80040c4:	2001      	movs	r0, #1
 80040c6:	f7fd f9ed 	bl	80014a4 <lcdTextX>
 80040ca:	4603      	mov	r3, r0
 80040cc:	461c      	mov	r4, r3
 80040ce:	2007      	movs	r0, #7
 80040d0:	f7fd f9f8 	bl	80014c4 <lcdTextY>
 80040d4:	4603      	mov	r3, r0
 80040d6:	461d      	mov	r5, r3
 80040d8:	22ff      	movs	r2, #255	; 0xff
 80040da:	21ff      	movs	r1, #255	; 0xff
 80040dc:	20ff      	movs	r0, #255	; 0xff
 80040de:	f7fd f9c5 	bl	800146c <decodeRgbValue>
 80040e2:	4603      	mov	r3, r0
 80040e4:	461e      	mov	r6, r3
 80040e6:	2200      	movs	r2, #0
 80040e8:	2100      	movs	r1, #0
 80040ea:	2000      	movs	r0, #0
 80040ec:	f7fd f9be 	bl	800146c <decodeRgbValue>
 80040f0:	4603      	mov	r3, r0
 80040f2:	9300      	str	r3, [sp, #0]
 80040f4:	4633      	mov	r3, r6
 80040f6:	462a      	mov	r2, r5
 80040f8:	4621      	mov	r1, r4
 80040fa:	4815      	ldr	r0, [pc, #84]	; (8004150 <createText+0x16c>)
 80040fc:	f7fd f9f0 	bl	80014e0 <lcdPutS>
	lcdPutS("Time:", lcdTextX(1), lcdTextY(10), decodeRgbValue(255, 255, 255), decodeRgbValue(0, 0, 0));
 8004100:	2001      	movs	r0, #1
 8004102:	f7fd f9cf 	bl	80014a4 <lcdTextX>
 8004106:	4603      	mov	r3, r0
 8004108:	461c      	mov	r4, r3
 800410a:	200a      	movs	r0, #10
 800410c:	f7fd f9da 	bl	80014c4 <lcdTextY>
 8004110:	4603      	mov	r3, r0
 8004112:	461d      	mov	r5, r3
 8004114:	22ff      	movs	r2, #255	; 0xff
 8004116:	21ff      	movs	r1, #255	; 0xff
 8004118:	20ff      	movs	r0, #255	; 0xff
 800411a:	f7fd f9a7 	bl	800146c <decodeRgbValue>
 800411e:	4603      	mov	r3, r0
 8004120:	461e      	mov	r6, r3
 8004122:	2200      	movs	r2, #0
 8004124:	2100      	movs	r1, #0
 8004126:	2000      	movs	r0, #0
 8004128:	f7fd f9a0 	bl	800146c <decodeRgbValue>
 800412c:	4603      	mov	r3, r0
 800412e:	9300      	str	r3, [sp, #0]
 8004130:	4633      	mov	r3, r6
 8004132:	462a      	mov	r2, r5
 8004134:	4621      	mov	r1, r4
 8004136:	4807      	ldr	r0, [pc, #28]	; (8004154 <createText+0x170>)
 8004138:	f7fd f9d2 	bl	80014e0 <lcdPutS>
}
 800413c:	bf00      	nop
 800413e:	3710      	adds	r7, #16
 8004140:	46bd      	mov	sp, r7
 8004142:	e8bd 81f0 	ldmia.w	sp!, {r4, r5, r6, r7, r8, pc}
 8004146:	bf00      	nop
 8004148:	08007d90 	.word	0x08007d90
 800414c:	08007d98 	.word	0x08007d98
 8004150:	08007da0 	.word	0x08007da0
 8004154:	08007da8 	.word	0x08007da8

08004158 <rotateObject>:

int rotateObject(int cisloTvaru){
 8004158:	b480      	push	{r7}
 800415a:	b083      	sub	sp, #12
 800415c:	af00      	add	r7, sp, #0
 800415e:	6078      	str	r0, [r7, #4]
	if (cisloTvaru == 1)
 8004160:	687b      	ldr	r3, [r7, #4]
 8004162:	2b01      	cmp	r3, #1
 8004164:	d103      	bne.n	800416e <rotateObject+0x16>
		cisloTvaru+=1;
 8004166:	687b      	ldr	r3, [r7, #4]
 8004168:	3301      	adds	r3, #1
 800416a:	607b      	str	r3, [r7, #4]
 800416c:	e075      	b.n	800425a <rotateObject+0x102>
	else if (cisloTvaru == 2)
 800416e:	687b      	ldr	r3, [r7, #4]
 8004170:	2b02      	cmp	r3, #2
 8004172:	d103      	bne.n	800417c <rotateObject+0x24>
	  cisloTvaru-=1;
 8004174:	687b      	ldr	r3, [r7, #4]
 8004176:	3b01      	subs	r3, #1
 8004178:	607b      	str	r3, [r7, #4]
 800417a:	e06e      	b.n	800425a <rotateObject+0x102>
	else if (cisloTvaru == 3)
 800417c:	687b      	ldr	r3, [r7, #4]
 800417e:	2b03      	cmp	r3, #3
 8004180:	d103      	bne.n	800418a <rotateObject+0x32>
	  cisloTvaru+=1;
 8004182:	687b      	ldr	r3, [r7, #4]
 8004184:	3301      	adds	r3, #1
 8004186:	607b      	str	r3, [r7, #4]
 8004188:	e067      	b.n	800425a <rotateObject+0x102>
	else if (cisloTvaru == 4)
 800418a:	687b      	ldr	r3, [r7, #4]
 800418c:	2b04      	cmp	r3, #4
 800418e:	d103      	bne.n	8004198 <rotateObject+0x40>
	  cisloTvaru-=1;
 8004190:	687b      	ldr	r3, [r7, #4]
 8004192:	3b01      	subs	r3, #1
 8004194:	607b      	str	r3, [r7, #4]
 8004196:	e060      	b.n	800425a <rotateObject+0x102>
	else if (cisloTvaru == 5)
 8004198:	687b      	ldr	r3, [r7, #4]
 800419a:	2b05      	cmp	r3, #5
 800419c:	d103      	bne.n	80041a6 <rotateObject+0x4e>
	  cisloTvaru+=1;
 800419e:	687b      	ldr	r3, [r7, #4]
 80041a0:	3301      	adds	r3, #1
 80041a2:	607b      	str	r3, [r7, #4]
 80041a4:	e059      	b.n	800425a <rotateObject+0x102>
	else if (cisloTvaru == 6)
 80041a6:	687b      	ldr	r3, [r7, #4]
 80041a8:	2b06      	cmp	r3, #6
 80041aa:	d103      	bne.n	80041b4 <rotateObject+0x5c>
	  cisloTvaru-=1;
 80041ac:	687b      	ldr	r3, [r7, #4]
 80041ae:	3b01      	subs	r3, #1
 80041b0:	607b      	str	r3, [r7, #4]
 80041b2:	e052      	b.n	800425a <rotateObject+0x102>
	else if (cisloTvaru == 7)
 80041b4:	687b      	ldr	r3, [r7, #4]
 80041b6:	2b07      	cmp	r3, #7
 80041b8:	d103      	bne.n	80041c2 <rotateObject+0x6a>
	  cisloTvaru+=1;
 80041ba:	687b      	ldr	r3, [r7, #4]
 80041bc:	3301      	adds	r3, #1
 80041be:	607b      	str	r3, [r7, #4]
 80041c0:	e04b      	b.n	800425a <rotateObject+0x102>
	else if (cisloTvaru == 8)
 80041c2:	687b      	ldr	r3, [r7, #4]
 80041c4:	2b08      	cmp	r3, #8
 80041c6:	d103      	bne.n	80041d0 <rotateObject+0x78>
	  cisloTvaru+=1;
 80041c8:	687b      	ldr	r3, [r7, #4]
 80041ca:	3301      	adds	r3, #1
 80041cc:	607b      	str	r3, [r7, #4]
 80041ce:	e044      	b.n	800425a <rotateObject+0x102>
	else if (cisloTvaru == 9)
 80041d0:	687b      	ldr	r3, [r7, #4]
 80041d2:	2b09      	cmp	r3, #9
 80041d4:	d103      	bne.n	80041de <rotateObject+0x86>
	  cisloTvaru+=1;
 80041d6:	687b      	ldr	r3, [r7, #4]
 80041d8:	3301      	adds	r3, #1
 80041da:	607b      	str	r3, [r7, #4]
 80041dc:	e03d      	b.n	800425a <rotateObject+0x102>
	else if (cisloTvaru == 10)
 80041de:	687b      	ldr	r3, [r7, #4]
 80041e0:	2b0a      	cmp	r3, #10
 80041e2:	d103      	bne.n	80041ec <rotateObject+0x94>
	  cisloTvaru-=3;
 80041e4:	687b      	ldr	r3, [r7, #4]
 80041e6:	3b03      	subs	r3, #3
 80041e8:	607b      	str	r3, [r7, #4]
 80041ea:	e036      	b.n	800425a <rotateObject+0x102>
	else if (cisloTvaru == 11)
 80041ec:	687b      	ldr	r3, [r7, #4]
 80041ee:	2b0b      	cmp	r3, #11
 80041f0:	d103      	bne.n	80041fa <rotateObject+0xa2>
	  cisloTvaru+=1;
 80041f2:	687b      	ldr	r3, [r7, #4]
 80041f4:	3301      	adds	r3, #1
 80041f6:	607b      	str	r3, [r7, #4]
 80041f8:	e02f      	b.n	800425a <rotateObject+0x102>
	else if (cisloTvaru == 12)
 80041fa:	687b      	ldr	r3, [r7, #4]
 80041fc:	2b0c      	cmp	r3, #12
 80041fe:	d103      	bne.n	8004208 <rotateObject+0xb0>
	  cisloTvaru+=1;
 8004200:	687b      	ldr	r3, [r7, #4]
 8004202:	3301      	adds	r3, #1
 8004204:	607b      	str	r3, [r7, #4]
 8004206:	e028      	b.n	800425a <rotateObject+0x102>
	else if (cisloTvaru == 13)
 8004208:	687b      	ldr	r3, [r7, #4]
 800420a:	2b0d      	cmp	r3, #13
 800420c:	d103      	bne.n	8004216 <rotateObject+0xbe>
	  cisloTvaru+=1;
 800420e:	687b      	ldr	r3, [r7, #4]
 8004210:	3301      	adds	r3, #1
 8004212:	607b      	str	r3, [r7, #4]
 8004214:	e021      	b.n	800425a <rotateObject+0x102>
	else if (cisloTvaru == 14)
 8004216:	687b      	ldr	r3, [r7, #4]
 8004218:	2b0e      	cmp	r3, #14
 800421a:	d103      	bne.n	8004224 <rotateObject+0xcc>
	  cisloTvaru-=3;
 800421c:	687b      	ldr	r3, [r7, #4]
 800421e:	3b03      	subs	r3, #3
 8004220:	607b      	str	r3, [r7, #4]
 8004222:	e01a      	b.n	800425a <rotateObject+0x102>
	else if (cisloTvaru == 15)
 8004224:	687b      	ldr	r3, [r7, #4]
 8004226:	2b0f      	cmp	r3, #15
 8004228:	d103      	bne.n	8004232 <rotateObject+0xda>
	  cisloTvaru+=1;
 800422a:	687b      	ldr	r3, [r7, #4]
 800422c:	3301      	adds	r3, #1
 800422e:	607b      	str	r3, [r7, #4]
 8004230:	e013      	b.n	800425a <rotateObject+0x102>
	else if (cisloTvaru == 16)
 8004232:	687b      	ldr	r3, [r7, #4]
 8004234:	2b10      	cmp	r3, #16
 8004236:	d103      	bne.n	8004240 <rotateObject+0xe8>
	  cisloTvaru+=1;
 8004238:	687b      	ldr	r3, [r7, #4]
 800423a:	3301      	adds	r3, #1
 800423c:	607b      	str	r3, [r7, #4]
 800423e:	e00c      	b.n	800425a <rotateObject+0x102>
	else if (cisloTvaru == 17)
 8004240:	687b      	ldr	r3, [r7, #4]
 8004242:	2b11      	cmp	r3, #17
 8004244:	d103      	bne.n	800424e <rotateObject+0xf6>
	  cisloTvaru+=1;
 8004246:	687b      	ldr	r3, [r7, #4]
 8004248:	3301      	adds	r3, #1
 800424a:	607b      	str	r3, [r7, #4]
 800424c:	e005      	b.n	800425a <rotateObject+0x102>
	else if (cisloTvaru == 18)
 800424e:	687b      	ldr	r3, [r7, #4]
 8004250:	2b12      	cmp	r3, #18
 8004252:	d102      	bne.n	800425a <rotateObject+0x102>
	  cisloTvaru-=3;
 8004254:	687b      	ldr	r3, [r7, #4]
 8004256:	3b03      	subs	r3, #3
 8004258:	607b      	str	r3, [r7, #4]
	return cisloTvaru;
 800425a:	687b      	ldr	r3, [r7, #4]
}
 800425c:	4618      	mov	r0, r3
 800425e:	370c      	adds	r7, #12
 8004260:	46bd      	mov	sp, r7
 8004262:	bc80      	pop	{r7}
 8004264:	4770      	bx	lr
 8004266:	bf00      	nop

08004268 <checkRotation>:

int checkRotation(uint16_t matrix[128][128], int16_t x0, int16_t y0, int cisloTvaru){
 8004268:	b480      	push	{r7}
 800426a:	b0bd      	sub	sp, #244	; 0xf4
 800426c:	af00      	add	r7, sp, #0
 800426e:	60f8      	str	r0, [r7, #12]
 8004270:	607b      	str	r3, [r7, #4]
 8004272:	460b      	mov	r3, r1
 8004274:	817b      	strh	r3, [r7, #10]
 8004276:	4613      	mov	r3, r2
 8004278:	813b      	strh	r3, [r7, #8]
	int temp = 0;
 800427a:	2300      	movs	r3, #0
 800427c:	f8c7 30ec 	str.w	r3, [r7, #236]	; 0xec
	if (cisloTvaru == 1){
 8004280:	687b      	ldr	r3, [r7, #4]
 8004282:	2b01      	cmp	r3, #1
 8004284:	d13f      	bne.n	8004306 <checkRotation+0x9e>
		for(int i=0;i<24;i++)
 8004286:	2300      	movs	r3, #0
 8004288:	f8c7 30e8 	str.w	r3, [r7, #232]	; 0xe8
 800428c:	e035      	b.n	80042fa <checkRotation+0x92>
			for(int j=0;j<6;j++)
 800428e:	2300      	movs	r3, #0
 8004290:	f8c7 30e4 	str.w	r3, [r7, #228]	; 0xe4
 8004294:	e028      	b.n	80042e8 <checkRotation+0x80>
				for (int z = 2; z<10; z++)
 8004296:	2302      	movs	r3, #2
 8004298:	f8c7 30e0 	str.w	r3, [r7, #224]	; 0xe0
 800429c:	e01b      	b.n	80042d6 <checkRotation+0x6e>
					if (matrix[x0+i][y0-j]==z)
 800429e:	f9b7 200a 	ldrsh.w	r2, [r7, #10]
 80042a2:	f8d7 30e8 	ldr.w	r3, [r7, #232]	; 0xe8
 80042a6:	4413      	add	r3, r2
 80042a8:	021b      	lsls	r3, r3, #8
 80042aa:	68fa      	ldr	r2, [r7, #12]
 80042ac:	4413      	add	r3, r2
 80042ae:	f9b7 1008 	ldrsh.w	r1, [r7, #8]
 80042b2:	f8d7 20e4 	ldr.w	r2, [r7, #228]	; 0xe4
 80042b6:	1a8a      	subs	r2, r1, r2
 80042b8:	f833 3012 	ldrh.w	r3, [r3, r2, lsl #1]
 80042bc:	461a      	mov	r2, r3
 80042be:	f8d7 30e0 	ldr.w	r3, [r7, #224]	; 0xe0
 80042c2:	429a      	cmp	r2, r3
 80042c4:	d102      	bne.n	80042cc <checkRotation+0x64>
						temp = 1;
 80042c6:	2301      	movs	r3, #1
 80042c8:	f8c7 30ec 	str.w	r3, [r7, #236]	; 0xec
int checkRotation(uint16_t matrix[128][128], int16_t x0, int16_t y0, int cisloTvaru){
	int temp = 0;
	if (cisloTvaru == 1){
		for(int i=0;i<24;i++)
			for(int j=0;j<6;j++)
				for (int z = 2; z<10; z++)
 80042cc:	f8d7 30e0 	ldr.w	r3, [r7, #224]	; 0xe0
 80042d0:	3301      	adds	r3, #1
 80042d2:	f8c7 30e0 	str.w	r3, [r7, #224]	; 0xe0
 80042d6:	f8d7 30e0 	ldr.w	r3, [r7, #224]	; 0xe0
 80042da:	2b09      	cmp	r3, #9
 80042dc:	dddf      	ble.n	800429e <checkRotation+0x36>

int checkRotation(uint16_t matrix[128][128], int16_t x0, int16_t y0, int cisloTvaru){
	int temp = 0;
	if (cisloTvaru == 1){
		for(int i=0;i<24;i++)
			for(int j=0;j<6;j++)
 80042de:	f8d7 30e4 	ldr.w	r3, [r7, #228]	; 0xe4
 80042e2:	3301      	adds	r3, #1
 80042e4:	f8c7 30e4 	str.w	r3, [r7, #228]	; 0xe4
 80042e8:	f8d7 30e4 	ldr.w	r3, [r7, #228]	; 0xe4
 80042ec:	2b05      	cmp	r3, #5
 80042ee:	ddd2      	ble.n	8004296 <checkRotation+0x2e>
}

int checkRotation(uint16_t matrix[128][128], int16_t x0, int16_t y0, int cisloTvaru){
	int temp = 0;
	if (cisloTvaru == 1){
		for(int i=0;i<24;i++)
 80042f0:	f8d7 30e8 	ldr.w	r3, [r7, #232]	; 0xe8
 80042f4:	3301      	adds	r3, #1
 80042f6:	f8c7 30e8 	str.w	r3, [r7, #232]	; 0xe8
 80042fa:	f8d7 30e8 	ldr.w	r3, [r7, #232]	; 0xe8
 80042fe:	2b17      	cmp	r3, #23
 8004300:	ddc5      	ble.n	800428e <checkRotation+0x26>
 8004302:	f000 be37 	b.w	8004f74 <checkRotation+0xd0c>
			for(int j=0;j<6;j++)
				for (int z = 2; z<10; z++)
					if (matrix[x0+i][y0-j]==z)
						temp = 1;
	}
	else if (cisloTvaru == 2){
 8004306:	687b      	ldr	r3, [r7, #4]
 8004308:	2b02      	cmp	r3, #2
 800430a:	d13f      	bne.n	800438c <checkRotation+0x124>
		for(int i=0;i<6;i++)
 800430c:	2300      	movs	r3, #0
 800430e:	f8c7 30dc 	str.w	r3, [r7, #220]	; 0xdc
 8004312:	e035      	b.n	8004380 <checkRotation+0x118>
			for(int j=0;j<24;j++)
 8004314:	2300      	movs	r3, #0
 8004316:	f8c7 30d8 	str.w	r3, [r7, #216]	; 0xd8
 800431a:	e028      	b.n	800436e <checkRotation+0x106>
				for (int z = 2; z<10; z++)
 800431c:	2302      	movs	r3, #2
 800431e:	f8c7 30d4 	str.w	r3, [r7, #212]	; 0xd4
 8004322:	e01b      	b.n	800435c <checkRotation+0xf4>
					if (matrix[x0+i][y0-j]==z)
 8004324:	f9b7 200a 	ldrsh.w	r2, [r7, #10]
 8004328:	f8d7 30dc 	ldr.w	r3, [r7, #220]	; 0xdc
 800432c:	4413      	add	r3, r2
 800432e:	021b      	lsls	r3, r3, #8
 8004330:	68fa      	ldr	r2, [r7, #12]
 8004332:	4413      	add	r3, r2
 8004334:	f9b7 1008 	ldrsh.w	r1, [r7, #8]
 8004338:	f8d7 20d8 	ldr.w	r2, [r7, #216]	; 0xd8
 800433c:	1a8a      	subs	r2, r1, r2
 800433e:	f833 3012 	ldrh.w	r3, [r3, r2, lsl #1]
 8004342:	461a      	mov	r2, r3
 8004344:	f8d7 30d4 	ldr.w	r3, [r7, #212]	; 0xd4
 8004348:	429a      	cmp	r2, r3
 800434a:	d102      	bne.n	8004352 <checkRotation+0xea>
						temp = 1;
 800434c:	2301      	movs	r3, #1
 800434e:	f8c7 30ec 	str.w	r3, [r7, #236]	; 0xec
						temp = 1;
	}
	else if (cisloTvaru == 2){
		for(int i=0;i<6;i++)
			for(int j=0;j<24;j++)
				for (int z = 2; z<10; z++)
 8004352:	f8d7 30d4 	ldr.w	r3, [r7, #212]	; 0xd4
 8004356:	3301      	adds	r3, #1
 8004358:	f8c7 30d4 	str.w	r3, [r7, #212]	; 0xd4
 800435c:	f8d7 30d4 	ldr.w	r3, [r7, #212]	; 0xd4
 8004360:	2b09      	cmp	r3, #9
 8004362:	dddf      	ble.n	8004324 <checkRotation+0xbc>
					if (matrix[x0+i][y0-j]==z)
						temp = 1;
	}
	else if (cisloTvaru == 2){
		for(int i=0;i<6;i++)
			for(int j=0;j<24;j++)
 8004364:	f8d7 30d8 	ldr.w	r3, [r7, #216]	; 0xd8
 8004368:	3301      	adds	r3, #1
 800436a:	f8c7 30d8 	str.w	r3, [r7, #216]	; 0xd8
 800436e:	f8d7 30d8 	ldr.w	r3, [r7, #216]	; 0xd8
 8004372:	2b17      	cmp	r3, #23
 8004374:	ddd2      	ble.n	800431c <checkRotation+0xb4>
				for (int z = 2; z<10; z++)
					if (matrix[x0+i][y0-j]==z)
						temp = 1;
	}
	else if (cisloTvaru == 2){
		for(int i=0;i<6;i++)
 8004376:	f8d7 30dc 	ldr.w	r3, [r7, #220]	; 0xdc
 800437a:	3301      	adds	r3, #1
 800437c:	f8c7 30dc 	str.w	r3, [r7, #220]	; 0xdc
 8004380:	f8d7 30dc 	ldr.w	r3, [r7, #220]	; 0xdc
 8004384:	2b05      	cmp	r3, #5
 8004386:	ddc5      	ble.n	8004314 <checkRotation+0xac>
 8004388:	f000 bdf4 	b.w	8004f74 <checkRotation+0xd0c>
			for(int j=0;j<24;j++)
				for (int z = 2; z<10; z++)
					if (matrix[x0+i][y0-j]==z)
						temp = 1;
	}
	else if (cisloTvaru == 3){
 800438c:	687b      	ldr	r3, [r7, #4]
 800438e:	2b03      	cmp	r3, #3
 8004390:	f040 8087 	bne.w	80044a2 <checkRotation+0x23a>
		for(int i=0;i<12;i++)
 8004394:	2300      	movs	r3, #0
 8004396:	f8c7 30d0 	str.w	r3, [r7, #208]	; 0xd0
 800439a:	e07b      	b.n	8004494 <checkRotation+0x22c>
			for(int j=0;j<18;j++){
 800439c:	2300      	movs	r3, #0
 800439e:	f8c7 30cc 	str.w	r3, [r7, #204]	; 0xcc
 80043a2:	e06e      	b.n	8004482 <checkRotation+0x21a>
				for (int z = 2; z<10; z++){
 80043a4:	2302      	movs	r3, #2
 80043a6:	f8c7 30c8 	str.w	r3, [r7, #200]	; 0xc8
 80043aa:	e061      	b.n	8004470 <checkRotation+0x208>
					if (j>5 && i>5)
 80043ac:	f8d7 30cc 	ldr.w	r3, [r7, #204]	; 0xcc
 80043b0:	2b05      	cmp	r3, #5
 80043b2:	dd1a      	ble.n	80043ea <checkRotation+0x182>
 80043b4:	f8d7 30d0 	ldr.w	r3, [r7, #208]	; 0xd0
 80043b8:	2b05      	cmp	r3, #5
 80043ba:	dd16      	ble.n	80043ea <checkRotation+0x182>
						if (matrix[x0+i][y0-j]==z)
 80043bc:	f9b7 200a 	ldrsh.w	r2, [r7, #10]
 80043c0:	f8d7 30d0 	ldr.w	r3, [r7, #208]	; 0xd0
 80043c4:	4413      	add	r3, r2
 80043c6:	021b      	lsls	r3, r3, #8
 80043c8:	68fa      	ldr	r2, [r7, #12]
 80043ca:	4413      	add	r3, r2
 80043cc:	f9b7 1008 	ldrsh.w	r1, [r7, #8]
 80043d0:	f8d7 20cc 	ldr.w	r2, [r7, #204]	; 0xcc
 80043d4:	1a8a      	subs	r2, r1, r2
 80043d6:	f833 3012 	ldrh.w	r3, [r3, r2, lsl #1]
 80043da:	461a      	mov	r2, r3
 80043dc:	f8d7 30c8 	ldr.w	r3, [r7, #200]	; 0xc8
 80043e0:	429a      	cmp	r2, r3
 80043e2:	d102      	bne.n	80043ea <checkRotation+0x182>
							temp = 1;
 80043e4:	2301      	movs	r3, #1
 80043e6:	f8c7 30ec 	str.w	r3, [r7, #236]	; 0xec
					if (j>5 && j<12)
 80043ea:	f8d7 30cc 	ldr.w	r3, [r7, #204]	; 0xcc
 80043ee:	2b05      	cmp	r3, #5
 80043f0:	dd1a      	ble.n	8004428 <checkRotation+0x1c0>
 80043f2:	f8d7 30cc 	ldr.w	r3, [r7, #204]	; 0xcc
 80043f6:	2b0b      	cmp	r3, #11
 80043f8:	dc16      	bgt.n	8004428 <checkRotation+0x1c0>
						if (matrix[x0+i][y0-j]==z)
 80043fa:	f9b7 200a 	ldrsh.w	r2, [r7, #10]
 80043fe:	f8d7 30d0 	ldr.w	r3, [r7, #208]	; 0xd0
 8004402:	4413      	add	r3, r2
 8004404:	021b      	lsls	r3, r3, #8
 8004406:	68fa      	ldr	r2, [r7, #12]
 8004408:	4413      	add	r3, r2
 800440a:	f9b7 1008 	ldrsh.w	r1, [r7, #8]
 800440e:	f8d7 20cc 	ldr.w	r2, [r7, #204]	; 0xcc
 8004412:	1a8a      	subs	r2, r1, r2
 8004414:	f833 3012 	ldrh.w	r3, [r3, r2, lsl #1]
 8004418:	461a      	mov	r2, r3
 800441a:	f8d7 30c8 	ldr.w	r3, [r7, #200]	; 0xc8
 800441e:	429a      	cmp	r2, r3
 8004420:	d102      	bne.n	8004428 <checkRotation+0x1c0>
							temp = 1;
 8004422:	2301      	movs	r3, #1
 8004424:	f8c7 30ec 	str.w	r3, [r7, #236]	; 0xec
					if (j<12 && i<6)
 8004428:	f8d7 30cc 	ldr.w	r3, [r7, #204]	; 0xcc
 800442c:	2b0b      	cmp	r3, #11
 800442e:	dc1a      	bgt.n	8004466 <checkRotation+0x1fe>
 8004430:	f8d7 30d0 	ldr.w	r3, [r7, #208]	; 0xd0
 8004434:	2b05      	cmp	r3, #5
 8004436:	dc16      	bgt.n	8004466 <checkRotation+0x1fe>
						if (matrix[x0+i][y0-j]==z)
 8004438:	f9b7 200a 	ldrsh.w	r2, [r7, #10]
 800443c:	f8d7 30d0 	ldr.w	r3, [r7, #208]	; 0xd0
 8004440:	4413      	add	r3, r2
 8004442:	021b      	lsls	r3, r3, #8
 8004444:	68fa      	ldr	r2, [r7, #12]
 8004446:	4413      	add	r3, r2
 8004448:	f9b7 1008 	ldrsh.w	r1, [r7, #8]
 800444c:	f8d7 20cc 	ldr.w	r2, [r7, #204]	; 0xcc
 8004450:	1a8a      	subs	r2, r1, r2
 8004452:	f833 3012 	ldrh.w	r3, [r3, r2, lsl #1]
 8004456:	461a      	mov	r2, r3
 8004458:	f8d7 30c8 	ldr.w	r3, [r7, #200]	; 0xc8
 800445c:	429a      	cmp	r2, r3
 800445e:	d102      	bne.n	8004466 <checkRotation+0x1fe>
							temp = 1;
 8004460:	2301      	movs	r3, #1
 8004462:	f8c7 30ec 	str.w	r3, [r7, #236]	; 0xec
						temp = 1;
	}
	else if (cisloTvaru == 3){
		for(int i=0;i<12;i++)
			for(int j=0;j<18;j++){
				for (int z = 2; z<10; z++){
 8004466:	f8d7 30c8 	ldr.w	r3, [r7, #200]	; 0xc8
 800446a:	3301      	adds	r3, #1
 800446c:	f8c7 30c8 	str.w	r3, [r7, #200]	; 0xc8
 8004470:	f8d7 30c8 	ldr.w	r3, [r7, #200]	; 0xc8
 8004474:	2b09      	cmp	r3, #9
 8004476:	dd99      	ble.n	80043ac <checkRotation+0x144>
					if (matrix[x0+i][y0-j]==z)
						temp = 1;
	}
	else if (cisloTvaru == 3){
		for(int i=0;i<12;i++)
			for(int j=0;j<18;j++){
 8004478:	f8d7 30cc 	ldr.w	r3, [r7, #204]	; 0xcc
 800447c:	3301      	adds	r3, #1
 800447e:	f8c7 30cc 	str.w	r3, [r7, #204]	; 0xcc
 8004482:	f8d7 30cc 	ldr.w	r3, [r7, #204]	; 0xcc
 8004486:	2b11      	cmp	r3, #17
 8004488:	dd8c      	ble.n	80043a4 <checkRotation+0x13c>
				for (int z = 2; z<10; z++)
					if (matrix[x0+i][y0-j]==z)
						temp = 1;
	}
	else if (cisloTvaru == 3){
		for(int i=0;i<12;i++)
 800448a:	f8d7 30d0 	ldr.w	r3, [r7, #208]	; 0xd0
 800448e:	3301      	adds	r3, #1
 8004490:	f8c7 30d0 	str.w	r3, [r7, #208]	; 0xd0
 8004494:	f8d7 30d0 	ldr.w	r3, [r7, #208]	; 0xd0
 8004498:	2b0b      	cmp	r3, #11
 800449a:	f77f af7f 	ble.w	800439c <checkRotation+0x134>
 800449e:	f000 bd69 	b.w	8004f74 <checkRotation+0xd0c>
						if (matrix[x0+i][y0-j]==z)
							temp = 1;
				}
			}
	}
	else if (cisloTvaru == 4){
 80044a2:	687b      	ldr	r3, [r7, #4]
 80044a4:	2b04      	cmp	r3, #4
 80044a6:	d166      	bne.n	8004576 <checkRotation+0x30e>
		for(int i=0;i<18;i++)
 80044a8:	2300      	movs	r3, #0
 80044aa:	f8c7 30c4 	str.w	r3, [r7, #196]	; 0xc4
 80044ae:	e05c      	b.n	800456a <checkRotation+0x302>
			for(int j=0;j<12;j++){
 80044b0:	2300      	movs	r3, #0
 80044b2:	f8c7 30c0 	str.w	r3, [r7, #192]	; 0xc0
 80044b6:	e04f      	b.n	8004558 <checkRotation+0x2f0>
				for (int z = 2; z<10; z++){
 80044b8:	2302      	movs	r3, #2
 80044ba:	f8c7 30bc 	str.w	r3, [r7, #188]	; 0xbc
 80044be:	e042      	b.n	8004546 <checkRotation+0x2de>
					if (j<6 && i>5)
 80044c0:	f8d7 30c0 	ldr.w	r3, [r7, #192]	; 0xc0
 80044c4:	2b05      	cmp	r3, #5
 80044c6:	dc1a      	bgt.n	80044fe <checkRotation+0x296>
 80044c8:	f8d7 30c4 	ldr.w	r3, [r7, #196]	; 0xc4
 80044cc:	2b05      	cmp	r3, #5
 80044ce:	dd16      	ble.n	80044fe <checkRotation+0x296>
						if (matrix[x0+i][y0-j]==z)
 80044d0:	f9b7 200a 	ldrsh.w	r2, [r7, #10]
 80044d4:	f8d7 30c4 	ldr.w	r3, [r7, #196]	; 0xc4
 80044d8:	4413      	add	r3, r2
 80044da:	021b      	lsls	r3, r3, #8
 80044dc:	68fa      	ldr	r2, [r7, #12]
 80044de:	4413      	add	r3, r2
 80044e0:	f9b7 1008 	ldrsh.w	r1, [r7, #8]
 80044e4:	f8d7 20c0 	ldr.w	r2, [r7, #192]	; 0xc0
 80044e8:	1a8a      	subs	r2, r1, r2
 80044ea:	f833 3012 	ldrh.w	r3, [r3, r2, lsl #1]
 80044ee:	461a      	mov	r2, r3
 80044f0:	f8d7 30bc 	ldr.w	r3, [r7, #188]	; 0xbc
 80044f4:	429a      	cmp	r2, r3
 80044f6:	d102      	bne.n	80044fe <checkRotation+0x296>
							temp = 1;
 80044f8:	2301      	movs	r3, #1
 80044fa:	f8c7 30ec 	str.w	r3, [r7, #236]	; 0xec
					if (j>5 && i<12)
 80044fe:	f8d7 30c0 	ldr.w	r3, [r7, #192]	; 0xc0
 8004502:	2b05      	cmp	r3, #5
 8004504:	dd1a      	ble.n	800453c <checkRotation+0x2d4>
 8004506:	f8d7 30c4 	ldr.w	r3, [r7, #196]	; 0xc4
 800450a:	2b0b      	cmp	r3, #11
 800450c:	dc16      	bgt.n	800453c <checkRotation+0x2d4>
						if (matrix[x0+i][y0-j]==z)
 800450e:	f9b7 200a 	ldrsh.w	r2, [r7, #10]
 8004512:	f8d7 30c4 	ldr.w	r3, [r7, #196]	; 0xc4
 8004516:	4413      	add	r3, r2
 8004518:	021b      	lsls	r3, r3, #8
 800451a:	68fa      	ldr	r2, [r7, #12]
 800451c:	4413      	add	r3, r2
 800451e:	f9b7 1008 	ldrsh.w	r1, [r7, #8]
 8004522:	f8d7 20c0 	ldr.w	r2, [r7, #192]	; 0xc0
 8004526:	1a8a      	subs	r2, r1, r2
 8004528:	f833 3012 	ldrh.w	r3, [r3, r2, lsl #1]
 800452c:	461a      	mov	r2, r3
 800452e:	f8d7 30bc 	ldr.w	r3, [r7, #188]	; 0xbc
 8004532:	429a      	cmp	r2, r3
 8004534:	d102      	bne.n	800453c <checkRotation+0x2d4>
							temp = 1;
 8004536:	2301      	movs	r3, #1
 8004538:	f8c7 30ec 	str.w	r3, [r7, #236]	; 0xec
			}
	}
	else if (cisloTvaru == 4){
		for(int i=0;i<18;i++)
			for(int j=0;j<12;j++){
				for (int z = 2; z<10; z++){
 800453c:	f8d7 30bc 	ldr.w	r3, [r7, #188]	; 0xbc
 8004540:	3301      	adds	r3, #1
 8004542:	f8c7 30bc 	str.w	r3, [r7, #188]	; 0xbc
 8004546:	f8d7 30bc 	ldr.w	r3, [r7, #188]	; 0xbc
 800454a:	2b09      	cmp	r3, #9
 800454c:	ddb8      	ble.n	80044c0 <checkRotation+0x258>
				}
			}
	}
	else if (cisloTvaru == 4){
		for(int i=0;i<18;i++)
			for(int j=0;j<12;j++){
 800454e:	f8d7 30c0 	ldr.w	r3, [r7, #192]	; 0xc0
 8004552:	3301      	adds	r3, #1
 8004554:	f8c7 30c0 	str.w	r3, [r7, #192]	; 0xc0
 8004558:	f8d7 30c0 	ldr.w	r3, [r7, #192]	; 0xc0
 800455c:	2b0b      	cmp	r3, #11
 800455e:	ddab      	ble.n	80044b8 <checkRotation+0x250>
							temp = 1;
				}
			}
	}
	else if (cisloTvaru == 4){
		for(int i=0;i<18;i++)
 8004560:	f8d7 30c4 	ldr.w	r3, [r7, #196]	; 0xc4
 8004564:	3301      	adds	r3, #1
 8004566:	f8c7 30c4 	str.w	r3, [r7, #196]	; 0xc4
 800456a:	f8d7 30c4 	ldr.w	r3, [r7, #196]	; 0xc4
 800456e:	2b11      	cmp	r3, #17
 8004570:	dd9e      	ble.n	80044b0 <checkRotation+0x248>
 8004572:	f000 bcff 	b.w	8004f74 <checkRotation+0xd0c>
						if (matrix[x0+i][y0-j]==z)
							temp = 1;
				}
			}
	}
	else if (cisloTvaru == 5){
 8004576:	687b      	ldr	r3, [r7, #4]
 8004578:	2b05      	cmp	r3, #5
 800457a:	f040 8087 	bne.w	800468c <checkRotation+0x424>
		for(int i=0;i<12;i++)
 800457e:	2300      	movs	r3, #0
 8004580:	f8c7 30b8 	str.w	r3, [r7, #184]	; 0xb8
 8004584:	e07b      	b.n	800467e <checkRotation+0x416>
			for(int j=0;j<18;j++){
 8004586:	2300      	movs	r3, #0
 8004588:	f8c7 30b4 	str.w	r3, [r7, #180]	; 0xb4
 800458c:	e06e      	b.n	800466c <checkRotation+0x404>
				for (int z = 2; z<10; z++){
 800458e:	2302      	movs	r3, #2
 8004590:	f8c7 30b0 	str.w	r3, [r7, #176]	; 0xb0
 8004594:	e061      	b.n	800465a <checkRotation+0x3f2>
					if (j>5 && i<6)
 8004596:	f8d7 30b4 	ldr.w	r3, [r7, #180]	; 0xb4
 800459a:	2b05      	cmp	r3, #5
 800459c:	dd1a      	ble.n	80045d4 <checkRotation+0x36c>
 800459e:	f8d7 30b8 	ldr.w	r3, [r7, #184]	; 0xb8
 80045a2:	2b05      	cmp	r3, #5
 80045a4:	dc16      	bgt.n	80045d4 <checkRotation+0x36c>
						if (matrix[x0+i][y0-j]==z)
 80045a6:	f9b7 200a 	ldrsh.w	r2, [r7, #10]
 80045aa:	f8d7 30b8 	ldr.w	r3, [r7, #184]	; 0xb8
 80045ae:	4413      	add	r3, r2
 80045b0:	021b      	lsls	r3, r3, #8
 80045b2:	68fa      	ldr	r2, [r7, #12]
 80045b4:	4413      	add	r3, r2
 80045b6:	f9b7 1008 	ldrsh.w	r1, [r7, #8]
 80045ba:	f8d7 20b4 	ldr.w	r2, [r7, #180]	; 0xb4
 80045be:	1a8a      	subs	r2, r1, r2
 80045c0:	f833 3012 	ldrh.w	r3, [r3, r2, lsl #1]
 80045c4:	461a      	mov	r2, r3
 80045c6:	f8d7 30b0 	ldr.w	r3, [r7, #176]	; 0xb0
 80045ca:	429a      	cmp	r2, r3
 80045cc:	d102      	bne.n	80045d4 <checkRotation+0x36c>
							temp = 1;
 80045ce:	2301      	movs	r3, #1
 80045d0:	f8c7 30ec 	str.w	r3, [r7, #236]	; 0xec
					if (j>5 && j<12)
 80045d4:	f8d7 30b4 	ldr.w	r3, [r7, #180]	; 0xb4
 80045d8:	2b05      	cmp	r3, #5
 80045da:	dd1a      	ble.n	8004612 <checkRotation+0x3aa>
 80045dc:	f8d7 30b4 	ldr.w	r3, [r7, #180]	; 0xb4
 80045e0:	2b0b      	cmp	r3, #11
 80045e2:	dc16      	bgt.n	8004612 <checkRotation+0x3aa>
						if (matrix[x0+i][y0-j]==z)
 80045e4:	f9b7 200a 	ldrsh.w	r2, [r7, #10]
 80045e8:	f8d7 30b8 	ldr.w	r3, [r7, #184]	; 0xb8
 80045ec:	4413      	add	r3, r2
 80045ee:	021b      	lsls	r3, r3, #8
 80045f0:	68fa      	ldr	r2, [r7, #12]
 80045f2:	4413      	add	r3, r2
 80045f4:	f9b7 1008 	ldrsh.w	r1, [r7, #8]
 80045f8:	f8d7 20b4 	ldr.w	r2, [r7, #180]	; 0xb4
 80045fc:	1a8a      	subs	r2, r1, r2
 80045fe:	f833 3012 	ldrh.w	r3, [r3, r2, lsl #1]
 8004602:	461a      	mov	r2, r3
 8004604:	f8d7 30b0 	ldr.w	r3, [r7, #176]	; 0xb0
 8004608:	429a      	cmp	r2, r3
 800460a:	d102      	bne.n	8004612 <checkRotation+0x3aa>
							temp = 1;
 800460c:	2301      	movs	r3, #1
 800460e:	f8c7 30ec 	str.w	r3, [r7, #236]	; 0xec
					if (j<12 && i>5)
 8004612:	f8d7 30b4 	ldr.w	r3, [r7, #180]	; 0xb4
 8004616:	2b0b      	cmp	r3, #11
 8004618:	dc1a      	bgt.n	8004650 <checkRotation+0x3e8>
 800461a:	f8d7 30b8 	ldr.w	r3, [r7, #184]	; 0xb8
 800461e:	2b05      	cmp	r3, #5
 8004620:	dd16      	ble.n	8004650 <checkRotation+0x3e8>
						if (matrix[x0+i][y0-j]==z)
 8004622:	f9b7 200a 	ldrsh.w	r2, [r7, #10]
 8004626:	f8d7 30b8 	ldr.w	r3, [r7, #184]	; 0xb8
 800462a:	4413      	add	r3, r2
 800462c:	021b      	lsls	r3, r3, #8
 800462e:	68fa      	ldr	r2, [r7, #12]
 8004630:	4413      	add	r3, r2
 8004632:	f9b7 1008 	ldrsh.w	r1, [r7, #8]
 8004636:	f8d7 20b4 	ldr.w	r2, [r7, #180]	; 0xb4
 800463a:	1a8a      	subs	r2, r1, r2
 800463c:	f833 3012 	ldrh.w	r3, [r3, r2, lsl #1]
 8004640:	461a      	mov	r2, r3
 8004642:	f8d7 30b0 	ldr.w	r3, [r7, #176]	; 0xb0
 8004646:	429a      	cmp	r2, r3
 8004648:	d102      	bne.n	8004650 <checkRotation+0x3e8>
							temp = 1;
 800464a:	2301      	movs	r3, #1
 800464c:	f8c7 30ec 	str.w	r3, [r7, #236]	; 0xec
			}
	}
	else if (cisloTvaru == 5){
		for(int i=0;i<12;i++)
			for(int j=0;j<18;j++){
				for (int z = 2; z<10; z++){
 8004650:	f8d7 30b0 	ldr.w	r3, [r7, #176]	; 0xb0
 8004654:	3301      	adds	r3, #1
 8004656:	f8c7 30b0 	str.w	r3, [r7, #176]	; 0xb0
 800465a:	f8d7 30b0 	ldr.w	r3, [r7, #176]	; 0xb0
 800465e:	2b09      	cmp	r3, #9
 8004660:	dd99      	ble.n	8004596 <checkRotation+0x32e>
				}
			}
	}
	else if (cisloTvaru == 5){
		for(int i=0;i<12;i++)
			for(int j=0;j<18;j++){
 8004662:	f8d7 30b4 	ldr.w	r3, [r7, #180]	; 0xb4
 8004666:	3301      	adds	r3, #1
 8004668:	f8c7 30b4 	str.w	r3, [r7, #180]	; 0xb4
 800466c:	f8d7 30b4 	ldr.w	r3, [r7, #180]	; 0xb4
 8004670:	2b11      	cmp	r3, #17
 8004672:	dd8c      	ble.n	800458e <checkRotation+0x326>
							temp = 1;
				}
			}
	}
	else if (cisloTvaru == 5){
		for(int i=0;i<12;i++)
 8004674:	f8d7 30b8 	ldr.w	r3, [r7, #184]	; 0xb8
 8004678:	3301      	adds	r3, #1
 800467a:	f8c7 30b8 	str.w	r3, [r7, #184]	; 0xb8
 800467e:	f8d7 30b8 	ldr.w	r3, [r7, #184]	; 0xb8
 8004682:	2b0b      	cmp	r3, #11
 8004684:	f77f af7f 	ble.w	8004586 <checkRotation+0x31e>
 8004688:	f000 bc74 	b.w	8004f74 <checkRotation+0xd0c>
						if (matrix[x0+i][y0-j]==z)
							temp = 1;
				}
			}
	}
	else if (cisloTvaru == 6){
 800468c:	687b      	ldr	r3, [r7, #4]
 800468e:	2b06      	cmp	r3, #6
 8004690:	d166      	bne.n	8004760 <checkRotation+0x4f8>
		for(int i=0;i<18;i++)
 8004692:	2300      	movs	r3, #0
 8004694:	f8c7 30ac 	str.w	r3, [r7, #172]	; 0xac
 8004698:	e05c      	b.n	8004754 <checkRotation+0x4ec>
			for(int j=0;j<12;j++){
 800469a:	2300      	movs	r3, #0
 800469c:	f8c7 30a8 	str.w	r3, [r7, #168]	; 0xa8
 80046a0:	e04f      	b.n	8004742 <checkRotation+0x4da>
				for (int z = 2; z<10; z++){
 80046a2:	2302      	movs	r3, #2
 80046a4:	f8c7 30a4 	str.w	r3, [r7, #164]	; 0xa4
 80046a8:	e042      	b.n	8004730 <checkRotation+0x4c8>
					if (j>5 && i>5)
 80046aa:	f8d7 30a8 	ldr.w	r3, [r7, #168]	; 0xa8
 80046ae:	2b05      	cmp	r3, #5
 80046b0:	dd1a      	ble.n	80046e8 <checkRotation+0x480>
 80046b2:	f8d7 30ac 	ldr.w	r3, [r7, #172]	; 0xac
 80046b6:	2b05      	cmp	r3, #5
 80046b8:	dd16      	ble.n	80046e8 <checkRotation+0x480>
						if (matrix[x0+i][y0-j]==z)
 80046ba:	f9b7 200a 	ldrsh.w	r2, [r7, #10]
 80046be:	f8d7 30ac 	ldr.w	r3, [r7, #172]	; 0xac
 80046c2:	4413      	add	r3, r2
 80046c4:	021b      	lsls	r3, r3, #8
 80046c6:	68fa      	ldr	r2, [r7, #12]
 80046c8:	4413      	add	r3, r2
 80046ca:	f9b7 1008 	ldrsh.w	r1, [r7, #8]
 80046ce:	f8d7 20a8 	ldr.w	r2, [r7, #168]	; 0xa8
 80046d2:	1a8a      	subs	r2, r1, r2
 80046d4:	f833 3012 	ldrh.w	r3, [r3, r2, lsl #1]
 80046d8:	461a      	mov	r2, r3
 80046da:	f8d7 30a4 	ldr.w	r3, [r7, #164]	; 0xa4
 80046de:	429a      	cmp	r2, r3
 80046e0:	d102      	bne.n	80046e8 <checkRotation+0x480>
							temp = 1;
 80046e2:	2301      	movs	r3, #1
 80046e4:	f8c7 30ec 	str.w	r3, [r7, #236]	; 0xec
					if (j<6 && i<12)
 80046e8:	f8d7 30a8 	ldr.w	r3, [r7, #168]	; 0xa8
 80046ec:	2b05      	cmp	r3, #5
 80046ee:	dc1a      	bgt.n	8004726 <checkRotation+0x4be>
 80046f0:	f8d7 30ac 	ldr.w	r3, [r7, #172]	; 0xac
 80046f4:	2b0b      	cmp	r3, #11
 80046f6:	dc16      	bgt.n	8004726 <checkRotation+0x4be>
						if (matrix[x0+i][y0-j]==z)
 80046f8:	f9b7 200a 	ldrsh.w	r2, [r7, #10]
 80046fc:	f8d7 30ac 	ldr.w	r3, [r7, #172]	; 0xac
 8004700:	4413      	add	r3, r2
 8004702:	021b      	lsls	r3, r3, #8
 8004704:	68fa      	ldr	r2, [r7, #12]
 8004706:	4413      	add	r3, r2
 8004708:	f9b7 1008 	ldrsh.w	r1, [r7, #8]
 800470c:	f8d7 20a8 	ldr.w	r2, [r7, #168]	; 0xa8
 8004710:	1a8a      	subs	r2, r1, r2
 8004712:	f833 3012 	ldrh.w	r3, [r3, r2, lsl #1]
 8004716:	461a      	mov	r2, r3
 8004718:	f8d7 30a4 	ldr.w	r3, [r7, #164]	; 0xa4
 800471c:	429a      	cmp	r2, r3
 800471e:	d102      	bne.n	8004726 <checkRotation+0x4be>
							temp = 1;
 8004720:	2301      	movs	r3, #1
 8004722:	f8c7 30ec 	str.w	r3, [r7, #236]	; 0xec
			}
	}
	else if (cisloTvaru == 6){
		for(int i=0;i<18;i++)
			for(int j=0;j<12;j++){
				for (int z = 2; z<10; z++){
 8004726:	f8d7 30a4 	ldr.w	r3, [r7, #164]	; 0xa4
 800472a:	3301      	adds	r3, #1
 800472c:	f8c7 30a4 	str.w	r3, [r7, #164]	; 0xa4
 8004730:	f8d7 30a4 	ldr.w	r3, [r7, #164]	; 0xa4
 8004734:	2b09      	cmp	r3, #9
 8004736:	ddb8      	ble.n	80046aa <checkRotation+0x442>
				}
			}
	}
	else if (cisloTvaru == 6){
		for(int i=0;i<18;i++)
			for(int j=0;j<12;j++){
 8004738:	f8d7 30a8 	ldr.w	r3, [r7, #168]	; 0xa8
 800473c:	3301      	adds	r3, #1
 800473e:	f8c7 30a8 	str.w	r3, [r7, #168]	; 0xa8
 8004742:	f8d7 30a8 	ldr.w	r3, [r7, #168]	; 0xa8
 8004746:	2b0b      	cmp	r3, #11
 8004748:	ddab      	ble.n	80046a2 <checkRotation+0x43a>
							temp = 1;
				}
			}
	}
	else if (cisloTvaru == 6){
		for(int i=0;i<18;i++)
 800474a:	f8d7 30ac 	ldr.w	r3, [r7, #172]	; 0xac
 800474e:	3301      	adds	r3, #1
 8004750:	f8c7 30ac 	str.w	r3, [r7, #172]	; 0xac
 8004754:	f8d7 30ac 	ldr.w	r3, [r7, #172]	; 0xac
 8004758:	2b11      	cmp	r3, #17
 800475a:	dd9e      	ble.n	800469a <checkRotation+0x432>
 800475c:	f000 bc0a 	b.w	8004f74 <checkRotation+0xd0c>
						if (matrix[x0+i][y0-j]==z)
							temp = 1;
				}
			}
	}
	else if (cisloTvaru == 7){
 8004760:	687b      	ldr	r3, [r7, #4]
 8004762:	2b07      	cmp	r3, #7
 8004764:	d161      	bne.n	800482a <checkRotation+0x5c2>
		for(int i=0;i<18;i++)
 8004766:	2300      	movs	r3, #0
 8004768:	f8c7 30a0 	str.w	r3, [r7, #160]	; 0xa0
 800476c:	e058      	b.n	8004820 <checkRotation+0x5b8>
			for(int j=0;j<12;j++){
 800476e:	2300      	movs	r3, #0
 8004770:	f8c7 309c 	str.w	r3, [r7, #156]	; 0x9c
 8004774:	e04b      	b.n	800480e <checkRotation+0x5a6>
				for (int z = 2; z<10; z++){
 8004776:	2302      	movs	r3, #2
 8004778:	f8c7 3098 	str.w	r3, [r7, #152]	; 0x98
 800477c:	e03e      	b.n	80047fc <checkRotation+0x594>
					if (j<6)
 800477e:	f8d7 309c 	ldr.w	r3, [r7, #156]	; 0x9c
 8004782:	2b05      	cmp	r3, #5
 8004784:	dc16      	bgt.n	80047b4 <checkRotation+0x54c>
						if (matrix[x0+i][y0-j]==z)
 8004786:	f9b7 200a 	ldrsh.w	r2, [r7, #10]
 800478a:	f8d7 30a0 	ldr.w	r3, [r7, #160]	; 0xa0
 800478e:	4413      	add	r3, r2
 8004790:	021b      	lsls	r3, r3, #8
 8004792:	68fa      	ldr	r2, [r7, #12]
 8004794:	4413      	add	r3, r2
 8004796:	f9b7 1008 	ldrsh.w	r1, [r7, #8]
 800479a:	f8d7 209c 	ldr.w	r2, [r7, #156]	; 0x9c
 800479e:	1a8a      	subs	r2, r1, r2
 80047a0:	f833 3012 	ldrh.w	r3, [r3, r2, lsl #1]
 80047a4:	461a      	mov	r2, r3
 80047a6:	f8d7 3098 	ldr.w	r3, [r7, #152]	; 0x98
 80047aa:	429a      	cmp	r2, r3
 80047ac:	d102      	bne.n	80047b4 <checkRotation+0x54c>
							temp = 1;
 80047ae:	2301      	movs	r3, #1
 80047b0:	f8c7 30ec 	str.w	r3, [r7, #236]	; 0xec
					if (j>5 && i>11)
 80047b4:	f8d7 309c 	ldr.w	r3, [r7, #156]	; 0x9c
 80047b8:	2b05      	cmp	r3, #5
 80047ba:	dd1a      	ble.n	80047f2 <checkRotation+0x58a>
 80047bc:	f8d7 30a0 	ldr.w	r3, [r7, #160]	; 0xa0
 80047c0:	2b0b      	cmp	r3, #11
 80047c2:	dd16      	ble.n	80047f2 <checkRotation+0x58a>
						if (matrix[x0+i][y0-j]==z)
 80047c4:	f9b7 200a 	ldrsh.w	r2, [r7, #10]
 80047c8:	f8d7 30a0 	ldr.w	r3, [r7, #160]	; 0xa0
 80047cc:	4413      	add	r3, r2
 80047ce:	021b      	lsls	r3, r3, #8
 80047d0:	68fa      	ldr	r2, [r7, #12]
 80047d2:	4413      	add	r3, r2
 80047d4:	f9b7 1008 	ldrsh.w	r1, [r7, #8]
 80047d8:	f8d7 209c 	ldr.w	r2, [r7, #156]	; 0x9c
 80047dc:	1a8a      	subs	r2, r1, r2
 80047de:	f833 3012 	ldrh.w	r3, [r3, r2, lsl #1]
 80047e2:	461a      	mov	r2, r3
 80047e4:	f8d7 3098 	ldr.w	r3, [r7, #152]	; 0x98
 80047e8:	429a      	cmp	r2, r3
 80047ea:	d102      	bne.n	80047f2 <checkRotation+0x58a>
							temp = 1;
 80047ec:	2301      	movs	r3, #1
 80047ee:	f8c7 30ec 	str.w	r3, [r7, #236]	; 0xec
			}
	}
	else if (cisloTvaru == 7){
		for(int i=0;i<18;i++)
			for(int j=0;j<12;j++){
				for (int z = 2; z<10; z++){
 80047f2:	f8d7 3098 	ldr.w	r3, [r7, #152]	; 0x98
 80047f6:	3301      	adds	r3, #1
 80047f8:	f8c7 3098 	str.w	r3, [r7, #152]	; 0x98
 80047fc:	f8d7 3098 	ldr.w	r3, [r7, #152]	; 0x98
 8004800:	2b09      	cmp	r3, #9
 8004802:	ddbc      	ble.n	800477e <checkRotation+0x516>
				}
			}
	}
	else if (cisloTvaru == 7){
		for(int i=0;i<18;i++)
			for(int j=0;j<12;j++){
 8004804:	f8d7 309c 	ldr.w	r3, [r7, #156]	; 0x9c
 8004808:	3301      	adds	r3, #1
 800480a:	f8c7 309c 	str.w	r3, [r7, #156]	; 0x9c
 800480e:	f8d7 309c 	ldr.w	r3, [r7, #156]	; 0x9c
 8004812:	2b0b      	cmp	r3, #11
 8004814:	ddaf      	ble.n	8004776 <checkRotation+0x50e>
							temp = 1;
				}
			}
	}
	else if (cisloTvaru == 7){
		for(int i=0;i<18;i++)
 8004816:	f8d7 30a0 	ldr.w	r3, [r7, #160]	; 0xa0
 800481a:	3301      	adds	r3, #1
 800481c:	f8c7 30a0 	str.w	r3, [r7, #160]	; 0xa0
 8004820:	f8d7 30a0 	ldr.w	r3, [r7, #160]	; 0xa0
 8004824:	2b11      	cmp	r3, #17
 8004826:	dda2      	ble.n	800476e <checkRotation+0x506>
 8004828:	e3a4      	b.n	8004f74 <checkRotation+0xd0c>
						if (matrix[x0+i][y0-j]==z)
							temp = 1;
				}
			}
	}
	else if (cisloTvaru == 8){
 800482a:	687b      	ldr	r3, [r7, #4]
 800482c:	2b08      	cmp	r3, #8
 800482e:	d161      	bne.n	80048f4 <checkRotation+0x68c>
		for(int i=0;i<12;i++)
 8004830:	2300      	movs	r3, #0
 8004832:	f8c7 3094 	str.w	r3, [r7, #148]	; 0x94
 8004836:	e058      	b.n	80048ea <checkRotation+0x682>
			for(int j=0;j<18;j++){
 8004838:	2300      	movs	r3, #0
 800483a:	f8c7 3090 	str.w	r3, [r7, #144]	; 0x90
 800483e:	e04b      	b.n	80048d8 <checkRotation+0x670>
				for (int z = 2; z<10; z++){
 8004840:	2302      	movs	r3, #2
 8004842:	f8c7 308c 	str.w	r3, [r7, #140]	; 0x8c
 8004846:	e03e      	b.n	80048c6 <checkRotation+0x65e>
					if (j<12 && i>5)
 8004848:	f8d7 3090 	ldr.w	r3, [r7, #144]	; 0x90
 800484c:	2b0b      	cmp	r3, #11
 800484e:	dc1a      	bgt.n	8004886 <checkRotation+0x61e>
 8004850:	f8d7 3094 	ldr.w	r3, [r7, #148]	; 0x94
 8004854:	2b05      	cmp	r3, #5
 8004856:	dd16      	ble.n	8004886 <checkRotation+0x61e>
						if (matrix[x0+i][y0-j]==z)
 8004858:	f9b7 200a 	ldrsh.w	r2, [r7, #10]
 800485c:	f8d7 3094 	ldr.w	r3, [r7, #148]	; 0x94
 8004860:	4413      	add	r3, r2
 8004862:	021b      	lsls	r3, r3, #8
 8004864:	68fa      	ldr	r2, [r7, #12]
 8004866:	4413      	add	r3, r2
 8004868:	f9b7 1008 	ldrsh.w	r1, [r7, #8]
 800486c:	f8d7 2090 	ldr.w	r2, [r7, #144]	; 0x90
 8004870:	1a8a      	subs	r2, r1, r2
 8004872:	f833 3012 	ldrh.w	r3, [r3, r2, lsl #1]
 8004876:	461a      	mov	r2, r3
 8004878:	f8d7 308c 	ldr.w	r3, [r7, #140]	; 0x8c
 800487c:	429a      	cmp	r2, r3
 800487e:	d102      	bne.n	8004886 <checkRotation+0x61e>
							temp = 1;
 8004880:	2301      	movs	r3, #1
 8004882:	f8c7 30ec 	str.w	r3, [r7, #236]	; 0xec
					if (j>11)
 8004886:	f8d7 3090 	ldr.w	r3, [r7, #144]	; 0x90
 800488a:	2b0b      	cmp	r3, #11
 800488c:	dd16      	ble.n	80048bc <checkRotation+0x654>
						if (matrix[x0+i][y0-j]==z)
 800488e:	f9b7 200a 	ldrsh.w	r2, [r7, #10]
 8004892:	f8d7 3094 	ldr.w	r3, [r7, #148]	; 0x94
 8004896:	4413      	add	r3, r2
 8004898:	021b      	lsls	r3, r3, #8
 800489a:	68fa      	ldr	r2, [r7, #12]
 800489c:	4413      	add	r3, r2
 800489e:	f9b7 1008 	ldrsh.w	r1, [r7, #8]
 80048a2:	f8d7 2090 	ldr.w	r2, [r7, #144]	; 0x90
 80048a6:	1a8a      	subs	r2, r1, r2
 80048a8:	f833 3012 	ldrh.w	r3, [r3, r2, lsl #1]
 80048ac:	461a      	mov	r2, r3
 80048ae:	f8d7 308c 	ldr.w	r3, [r7, #140]	; 0x8c
 80048b2:	429a      	cmp	r2, r3
 80048b4:	d102      	bne.n	80048bc <checkRotation+0x654>
							temp = 1;
 80048b6:	2301      	movs	r3, #1
 80048b8:	f8c7 30ec 	str.w	r3, [r7, #236]	; 0xec
			}
	}
	else if (cisloTvaru == 8){
		for(int i=0;i<12;i++)
			for(int j=0;j<18;j++){
				for (int z = 2; z<10; z++){
 80048bc:	f8d7 308c 	ldr.w	r3, [r7, #140]	; 0x8c
 80048c0:	3301      	adds	r3, #1
 80048c2:	f8c7 308c 	str.w	r3, [r7, #140]	; 0x8c
 80048c6:	f8d7 308c 	ldr.w	r3, [r7, #140]	; 0x8c
 80048ca:	2b09      	cmp	r3, #9
 80048cc:	ddbc      	ble.n	8004848 <checkRotation+0x5e0>
				}
			}
	}
	else if (cisloTvaru == 8){
		for(int i=0;i<12;i++)
			for(int j=0;j<18;j++){
 80048ce:	f8d7 3090 	ldr.w	r3, [r7, #144]	; 0x90
 80048d2:	3301      	adds	r3, #1
 80048d4:	f8c7 3090 	str.w	r3, [r7, #144]	; 0x90
 80048d8:	f8d7 3090 	ldr.w	r3, [r7, #144]	; 0x90
 80048dc:	2b11      	cmp	r3, #17
 80048de:	ddaf      	ble.n	8004840 <checkRotation+0x5d8>
							temp = 1;
				}
			}
	}
	else if (cisloTvaru == 8){
		for(int i=0;i<12;i++)
 80048e0:	f8d7 3094 	ldr.w	r3, [r7, #148]	; 0x94
 80048e4:	3301      	adds	r3, #1
 80048e6:	f8c7 3094 	str.w	r3, [r7, #148]	; 0x94
 80048ea:	f8d7 3094 	ldr.w	r3, [r7, #148]	; 0x94
 80048ee:	2b0b      	cmp	r3, #11
 80048f0:	dda2      	ble.n	8004838 <checkRotation+0x5d0>
 80048f2:	e33f      	b.n	8004f74 <checkRotation+0xd0c>
						if (matrix[x0+i][y0-j]==z)
							temp = 1;
				}
			}
	}
	else if (cisloTvaru == 9){
 80048f4:	687b      	ldr	r3, [r7, #4]
 80048f6:	2b09      	cmp	r3, #9
 80048f8:	d161      	bne.n	80049be <checkRotation+0x756>
		for(int i=0;i<18;i++)
 80048fa:	2300      	movs	r3, #0
 80048fc:	f8c7 3088 	str.w	r3, [r7, #136]	; 0x88
 8004900:	e058      	b.n	80049b4 <checkRotation+0x74c>
			for(int j=0;j<12;j++){
 8004902:	2300      	movs	r3, #0
 8004904:	f8c7 3084 	str.w	r3, [r7, #132]	; 0x84
 8004908:	e04b      	b.n	80049a2 <checkRotation+0x73a>
				for (int z = 2; z<10; z++){
 800490a:	2302      	movs	r3, #2
 800490c:	f8c7 3080 	str.w	r3, [r7, #128]	; 0x80
 8004910:	e03e      	b.n	8004990 <checkRotation+0x728>
					if (j<6 && i<6)
 8004912:	f8d7 3084 	ldr.w	r3, [r7, #132]	; 0x84
 8004916:	2b05      	cmp	r3, #5
 8004918:	dc1a      	bgt.n	8004950 <checkRotation+0x6e8>
 800491a:	f8d7 3088 	ldr.w	r3, [r7, #136]	; 0x88
 800491e:	2b05      	cmp	r3, #5
 8004920:	dc16      	bgt.n	8004950 <checkRotation+0x6e8>
						if (matrix[x0+i][y0-j]==z)
 8004922:	f9b7 200a 	ldrsh.w	r2, [r7, #10]
 8004926:	f8d7 3088 	ldr.w	r3, [r7, #136]	; 0x88
 800492a:	4413      	add	r3, r2
 800492c:	021b      	lsls	r3, r3, #8
 800492e:	68fa      	ldr	r2, [r7, #12]
 8004930:	4413      	add	r3, r2
 8004932:	f9b7 1008 	ldrsh.w	r1, [r7, #8]
 8004936:	f8d7 2084 	ldr.w	r2, [r7, #132]	; 0x84
 800493a:	1a8a      	subs	r2, r1, r2
 800493c:	f833 3012 	ldrh.w	r3, [r3, r2, lsl #1]
 8004940:	461a      	mov	r2, r3
 8004942:	f8d7 3080 	ldr.w	r3, [r7, #128]	; 0x80
 8004946:	429a      	cmp	r2, r3
 8004948:	d102      	bne.n	8004950 <checkRotation+0x6e8>
							temp = 1;
 800494a:	2301      	movs	r3, #1
 800494c:	f8c7 30ec 	str.w	r3, [r7, #236]	; 0xec
					if (j>5)
 8004950:	f8d7 3084 	ldr.w	r3, [r7, #132]	; 0x84
 8004954:	2b05      	cmp	r3, #5
 8004956:	dd16      	ble.n	8004986 <checkRotation+0x71e>
						if (matrix[x0+i][y0-j]==z)
 8004958:	f9b7 200a 	ldrsh.w	r2, [r7, #10]
 800495c:	f8d7 3088 	ldr.w	r3, [r7, #136]	; 0x88
 8004960:	4413      	add	r3, r2
 8004962:	021b      	lsls	r3, r3, #8
 8004964:	68fa      	ldr	r2, [r7, #12]
 8004966:	4413      	add	r3, r2
 8004968:	f9b7 1008 	ldrsh.w	r1, [r7, #8]
 800496c:	f8d7 2084 	ldr.w	r2, [r7, #132]	; 0x84
 8004970:	1a8a      	subs	r2, r1, r2
 8004972:	f833 3012 	ldrh.w	r3, [r3, r2, lsl #1]
 8004976:	461a      	mov	r2, r3
 8004978:	f8d7 3080 	ldr.w	r3, [r7, #128]	; 0x80
 800497c:	429a      	cmp	r2, r3
 800497e:	d102      	bne.n	8004986 <checkRotation+0x71e>
							temp = 1;
 8004980:	2301      	movs	r3, #1
 8004982:	f8c7 30ec 	str.w	r3, [r7, #236]	; 0xec
			}
	}
	else if (cisloTvaru == 9){
		for(int i=0;i<18;i++)
			for(int j=0;j<12;j++){
				for (int z = 2; z<10; z++){
 8004986:	f8d7 3080 	ldr.w	r3, [r7, #128]	; 0x80
 800498a:	3301      	adds	r3, #1
 800498c:	f8c7 3080 	str.w	r3, [r7, #128]	; 0x80
 8004990:	f8d7 3080 	ldr.w	r3, [r7, #128]	; 0x80
 8004994:	2b09      	cmp	r3, #9
 8004996:	ddbc      	ble.n	8004912 <checkRotation+0x6aa>
				}
			}
	}
	else if (cisloTvaru == 9){
		for(int i=0;i<18;i++)
			for(int j=0;j<12;j++){
 8004998:	f8d7 3084 	ldr.w	r3, [r7, #132]	; 0x84
 800499c:	3301      	adds	r3, #1
 800499e:	f8c7 3084 	str.w	r3, [r7, #132]	; 0x84
 80049a2:	f8d7 3084 	ldr.w	r3, [r7, #132]	; 0x84
 80049a6:	2b0b      	cmp	r3, #11
 80049a8:	ddaf      	ble.n	800490a <checkRotation+0x6a2>
							temp = 1;
				}
			}
	}
	else if (cisloTvaru == 9){
		for(int i=0;i<18;i++)
 80049aa:	f8d7 3088 	ldr.w	r3, [r7, #136]	; 0x88
 80049ae:	3301      	adds	r3, #1
 80049b0:	f8c7 3088 	str.w	r3, [r7, #136]	; 0x88
 80049b4:	f8d7 3088 	ldr.w	r3, [r7, #136]	; 0x88
 80049b8:	2b11      	cmp	r3, #17
 80049ba:	dda2      	ble.n	8004902 <checkRotation+0x69a>
 80049bc:	e2da      	b.n	8004f74 <checkRotation+0xd0c>
						if (matrix[x0+i][y0-j]==z)
							temp = 1;
				}
			}
	}
	else if (cisloTvaru == 10){
 80049be:	687b      	ldr	r3, [r7, #4]
 80049c0:	2b0a      	cmp	r3, #10
 80049c2:	d14c      	bne.n	8004a5e <checkRotation+0x7f6>
		for(int i=0;i<12;i++)
 80049c4:	2300      	movs	r3, #0
 80049c6:	67fb      	str	r3, [r7, #124]	; 0x7c
 80049c8:	e045      	b.n	8004a56 <checkRotation+0x7ee>
			for(int j=0;j<18;j++){
 80049ca:	2300      	movs	r3, #0
 80049cc:	67bb      	str	r3, [r7, #120]	; 0x78
 80049ce:	e03c      	b.n	8004a4a <checkRotation+0x7e2>
				for (int z = 2; z<10; z++){
 80049d0:	2302      	movs	r3, #2
 80049d2:	677b      	str	r3, [r7, #116]	; 0x74
 80049d4:	e033      	b.n	8004a3e <checkRotation+0x7d6>
					if (j>5 && i<6)
 80049d6:	6fbb      	ldr	r3, [r7, #120]	; 0x78
 80049d8:	2b05      	cmp	r3, #5
 80049da:	dd16      	ble.n	8004a0a <checkRotation+0x7a2>
 80049dc:	6ffb      	ldr	r3, [r7, #124]	; 0x7c
 80049de:	2b05      	cmp	r3, #5
 80049e0:	dc13      	bgt.n	8004a0a <checkRotation+0x7a2>
						if (matrix[x0+i][y0-j]==z)
 80049e2:	f9b7 200a 	ldrsh.w	r2, [r7, #10]
 80049e6:	6ffb      	ldr	r3, [r7, #124]	; 0x7c
 80049e8:	4413      	add	r3, r2
 80049ea:	021b      	lsls	r3, r3, #8
 80049ec:	68fa      	ldr	r2, [r7, #12]
 80049ee:	4413      	add	r3, r2
 80049f0:	f9b7 1008 	ldrsh.w	r1, [r7, #8]
 80049f4:	6fba      	ldr	r2, [r7, #120]	; 0x78
 80049f6:	1a8a      	subs	r2, r1, r2
 80049f8:	f833 3012 	ldrh.w	r3, [r3, r2, lsl #1]
 80049fc:	461a      	mov	r2, r3
 80049fe:	6f7b      	ldr	r3, [r7, #116]	; 0x74
 8004a00:	429a      	cmp	r2, r3
 8004a02:	d102      	bne.n	8004a0a <checkRotation+0x7a2>
							temp = 1;
 8004a04:	2301      	movs	r3, #1
 8004a06:	f8c7 30ec 	str.w	r3, [r7, #236]	; 0xec
					if (j<6)
 8004a0a:	6fbb      	ldr	r3, [r7, #120]	; 0x78
 8004a0c:	2b05      	cmp	r3, #5
 8004a0e:	dc13      	bgt.n	8004a38 <checkRotation+0x7d0>
						if (matrix[x0+i][y0-j]==z)
 8004a10:	f9b7 200a 	ldrsh.w	r2, [r7, #10]
 8004a14:	6ffb      	ldr	r3, [r7, #124]	; 0x7c
 8004a16:	4413      	add	r3, r2
 8004a18:	021b      	lsls	r3, r3, #8
 8004a1a:	68fa      	ldr	r2, [r7, #12]
 8004a1c:	4413      	add	r3, r2
 8004a1e:	f9b7 1008 	ldrsh.w	r1, [r7, #8]
 8004a22:	6fba      	ldr	r2, [r7, #120]	; 0x78
 8004a24:	1a8a      	subs	r2, r1, r2
 8004a26:	f833 3012 	ldrh.w	r3, [r3, r2, lsl #1]
 8004a2a:	461a      	mov	r2, r3
 8004a2c:	6f7b      	ldr	r3, [r7, #116]	; 0x74
 8004a2e:	429a      	cmp	r2, r3
 8004a30:	d102      	bne.n	8004a38 <checkRotation+0x7d0>
							temp = 1;
 8004a32:	2301      	movs	r3, #1
 8004a34:	f8c7 30ec 	str.w	r3, [r7, #236]	; 0xec
			}
	}
	else if (cisloTvaru == 10){
		for(int i=0;i<12;i++)
			for(int j=0;j<18;j++){
				for (int z = 2; z<10; z++){
 8004a38:	6f7b      	ldr	r3, [r7, #116]	; 0x74
 8004a3a:	3301      	adds	r3, #1
 8004a3c:	677b      	str	r3, [r7, #116]	; 0x74
 8004a3e:	6f7b      	ldr	r3, [r7, #116]	; 0x74
 8004a40:	2b09      	cmp	r3, #9
 8004a42:	ddc8      	ble.n	80049d6 <checkRotation+0x76e>
				}
			}
	}
	else if (cisloTvaru == 10){
		for(int i=0;i<12;i++)
			for(int j=0;j<18;j++){
 8004a44:	6fbb      	ldr	r3, [r7, #120]	; 0x78
 8004a46:	3301      	adds	r3, #1
 8004a48:	67bb      	str	r3, [r7, #120]	; 0x78
 8004a4a:	6fbb      	ldr	r3, [r7, #120]	; 0x78
 8004a4c:	2b11      	cmp	r3, #17
 8004a4e:	ddbf      	ble.n	80049d0 <checkRotation+0x768>
							temp = 1;
				}
			}
	}
	else if (cisloTvaru == 10){
		for(int i=0;i<12;i++)
 8004a50:	6ffb      	ldr	r3, [r7, #124]	; 0x7c
 8004a52:	3301      	adds	r3, #1
 8004a54:	67fb      	str	r3, [r7, #124]	; 0x7c
 8004a56:	6ffb      	ldr	r3, [r7, #124]	; 0x7c
 8004a58:	2b0b      	cmp	r3, #11
 8004a5a:	ddb6      	ble.n	80049ca <checkRotation+0x762>
 8004a5c:	e28a      	b.n	8004f74 <checkRotation+0xd0c>
						if (matrix[x0+i][y0-j]==z)
							temp = 1;
				}
			}
	}
	else if (cisloTvaru == 11){
 8004a5e:	687b      	ldr	r3, [r7, #4]
 8004a60:	2b0b      	cmp	r3, #11
 8004a62:	d14f      	bne.n	8004b04 <checkRotation+0x89c>
		for(int i=0;i<12;i++)
 8004a64:	2300      	movs	r3, #0
 8004a66:	673b      	str	r3, [r7, #112]	; 0x70
 8004a68:	e048      	b.n	8004afc <checkRotation+0x894>
			for(int j=0;j<18;j++){
 8004a6a:	2300      	movs	r3, #0
 8004a6c:	66fb      	str	r3, [r7, #108]	; 0x6c
 8004a6e:	e03f      	b.n	8004af0 <checkRotation+0x888>
				for (int z = 2; z<10; z++){
 8004a70:	2302      	movs	r3, #2
 8004a72:	66bb      	str	r3, [r7, #104]	; 0x68
 8004a74:	e036      	b.n	8004ae4 <checkRotation+0x87c>
					if ((j>5 && j<12) && (i<6))
 8004a76:	6efb      	ldr	r3, [r7, #108]	; 0x6c
 8004a78:	2b05      	cmp	r3, #5
 8004a7a:	dd19      	ble.n	8004ab0 <checkRotation+0x848>
 8004a7c:	6efb      	ldr	r3, [r7, #108]	; 0x6c
 8004a7e:	2b0b      	cmp	r3, #11
 8004a80:	dc16      	bgt.n	8004ab0 <checkRotation+0x848>
 8004a82:	6f3b      	ldr	r3, [r7, #112]	; 0x70
 8004a84:	2b05      	cmp	r3, #5
 8004a86:	dc13      	bgt.n	8004ab0 <checkRotation+0x848>
						if (matrix[x0+i][y0-j]==z)
 8004a88:	f9b7 200a 	ldrsh.w	r2, [r7, #10]
 8004a8c:	6f3b      	ldr	r3, [r7, #112]	; 0x70
 8004a8e:	4413      	add	r3, r2
 8004a90:	021b      	lsls	r3, r3, #8
 8004a92:	68fa      	ldr	r2, [r7, #12]
 8004a94:	4413      	add	r3, r2
 8004a96:	f9b7 1008 	ldrsh.w	r1, [r7, #8]
 8004a9a:	6efa      	ldr	r2, [r7, #108]	; 0x6c
 8004a9c:	1a8a      	subs	r2, r1, r2
 8004a9e:	f833 3012 	ldrh.w	r3, [r3, r2, lsl #1]
 8004aa2:	461a      	mov	r2, r3
 8004aa4:	6ebb      	ldr	r3, [r7, #104]	; 0x68
 8004aa6:	429a      	cmp	r2, r3
 8004aa8:	d102      	bne.n	8004ab0 <checkRotation+0x848>
							temp = 1;
 8004aaa:	2301      	movs	r3, #1
 8004aac:	f8c7 30ec 	str.w	r3, [r7, #236]	; 0xec
					if (i>5)
 8004ab0:	6f3b      	ldr	r3, [r7, #112]	; 0x70
 8004ab2:	2b05      	cmp	r3, #5
 8004ab4:	dd13      	ble.n	8004ade <checkRotation+0x876>
						if (matrix[x0+i][y0-j]==z)
 8004ab6:	f9b7 200a 	ldrsh.w	r2, [r7, #10]
 8004aba:	6f3b      	ldr	r3, [r7, #112]	; 0x70
 8004abc:	4413      	add	r3, r2
 8004abe:	021b      	lsls	r3, r3, #8
 8004ac0:	68fa      	ldr	r2, [r7, #12]
 8004ac2:	4413      	add	r3, r2
 8004ac4:	f9b7 1008 	ldrsh.w	r1, [r7, #8]
 8004ac8:	6efa      	ldr	r2, [r7, #108]	; 0x6c
 8004aca:	1a8a      	subs	r2, r1, r2
 8004acc:	f833 3012 	ldrh.w	r3, [r3, r2, lsl #1]
 8004ad0:	461a      	mov	r2, r3
 8004ad2:	6ebb      	ldr	r3, [r7, #104]	; 0x68
 8004ad4:	429a      	cmp	r2, r3
 8004ad6:	d102      	bne.n	8004ade <checkRotation+0x876>
							temp = 1;
 8004ad8:	2301      	movs	r3, #1
 8004ada:	f8c7 30ec 	str.w	r3, [r7, #236]	; 0xec
			}
	}
	else if (cisloTvaru == 11){
		for(int i=0;i<12;i++)
			for(int j=0;j<18;j++){
				for (int z = 2; z<10; z++){
 8004ade:	6ebb      	ldr	r3, [r7, #104]	; 0x68
 8004ae0:	3301      	adds	r3, #1
 8004ae2:	66bb      	str	r3, [r7, #104]	; 0x68
 8004ae4:	6ebb      	ldr	r3, [r7, #104]	; 0x68
 8004ae6:	2b09      	cmp	r3, #9
 8004ae8:	ddc5      	ble.n	8004a76 <checkRotation+0x80e>
				}
			}
	}
	else if (cisloTvaru == 11){
		for(int i=0;i<12;i++)
			for(int j=0;j<18;j++){
 8004aea:	6efb      	ldr	r3, [r7, #108]	; 0x6c
 8004aec:	3301      	adds	r3, #1
 8004aee:	66fb      	str	r3, [r7, #108]	; 0x6c
 8004af0:	6efb      	ldr	r3, [r7, #108]	; 0x6c
 8004af2:	2b11      	cmp	r3, #17
 8004af4:	ddbc      	ble.n	8004a70 <checkRotation+0x808>
							temp = 1;
				}
			}
	}
	else if (cisloTvaru == 11){
		for(int i=0;i<12;i++)
 8004af6:	6f3b      	ldr	r3, [r7, #112]	; 0x70
 8004af8:	3301      	adds	r3, #1
 8004afa:	673b      	str	r3, [r7, #112]	; 0x70
 8004afc:	6f3b      	ldr	r3, [r7, #112]	; 0x70
 8004afe:	2b0b      	cmp	r3, #11
 8004b00:	ddb3      	ble.n	8004a6a <checkRotation+0x802>
 8004b02:	e237      	b.n	8004f74 <checkRotation+0xd0c>
						if (matrix[x0+i][y0-j]==z)
							temp = 1;
				}
			}
	}
	else if (cisloTvaru == 12){
 8004b04:	687b      	ldr	r3, [r7, #4]
 8004b06:	2b0c      	cmp	r3, #12
 8004b08:	d14f      	bne.n	8004baa <checkRotation+0x942>
		for(int i=0;i<18;i++)
 8004b0a:	2300      	movs	r3, #0
 8004b0c:	667b      	str	r3, [r7, #100]	; 0x64
 8004b0e:	e048      	b.n	8004ba2 <checkRotation+0x93a>
			for(int j=0;j<12;j++){
 8004b10:	2300      	movs	r3, #0
 8004b12:	663b      	str	r3, [r7, #96]	; 0x60
 8004b14:	e03f      	b.n	8004b96 <checkRotation+0x92e>
				for (int z = 2; z<10; z++){
 8004b16:	2302      	movs	r3, #2
 8004b18:	65fb      	str	r3, [r7, #92]	; 0x5c
 8004b1a:	e036      	b.n	8004b8a <checkRotation+0x922>
					if (j<6 && (i>5 && i<12))
 8004b1c:	6e3b      	ldr	r3, [r7, #96]	; 0x60
 8004b1e:	2b05      	cmp	r3, #5
 8004b20:	dc19      	bgt.n	8004b56 <checkRotation+0x8ee>
 8004b22:	6e7b      	ldr	r3, [r7, #100]	; 0x64
 8004b24:	2b05      	cmp	r3, #5
 8004b26:	dd16      	ble.n	8004b56 <checkRotation+0x8ee>
 8004b28:	6e7b      	ldr	r3, [r7, #100]	; 0x64
 8004b2a:	2b0b      	cmp	r3, #11
 8004b2c:	dc13      	bgt.n	8004b56 <checkRotation+0x8ee>
						if (matrix[x0+i][y0-j]==z)
 8004b2e:	f9b7 200a 	ldrsh.w	r2, [r7, #10]
 8004b32:	6e7b      	ldr	r3, [r7, #100]	; 0x64
 8004b34:	4413      	add	r3, r2
 8004b36:	021b      	lsls	r3, r3, #8
 8004b38:	68fa      	ldr	r2, [r7, #12]
 8004b3a:	4413      	add	r3, r2
 8004b3c:	f9b7 1008 	ldrsh.w	r1, [r7, #8]
 8004b40:	6e3a      	ldr	r2, [r7, #96]	; 0x60
 8004b42:	1a8a      	subs	r2, r1, r2
 8004b44:	f833 3012 	ldrh.w	r3, [r3, r2, lsl #1]
 8004b48:	461a      	mov	r2, r3
 8004b4a:	6dfb      	ldr	r3, [r7, #92]	; 0x5c
 8004b4c:	429a      	cmp	r2, r3
 8004b4e:	d102      	bne.n	8004b56 <checkRotation+0x8ee>
							temp = 1;
 8004b50:	2301      	movs	r3, #1
 8004b52:	f8c7 30ec 	str.w	r3, [r7, #236]	; 0xec
					if (j>5)
 8004b56:	6e3b      	ldr	r3, [r7, #96]	; 0x60
 8004b58:	2b05      	cmp	r3, #5
 8004b5a:	dd13      	ble.n	8004b84 <checkRotation+0x91c>
						if (matrix[x0+i][y0-j]==z)
 8004b5c:	f9b7 200a 	ldrsh.w	r2, [r7, #10]
 8004b60:	6e7b      	ldr	r3, [r7, #100]	; 0x64
 8004b62:	4413      	add	r3, r2
 8004b64:	021b      	lsls	r3, r3, #8
 8004b66:	68fa      	ldr	r2, [r7, #12]
 8004b68:	4413      	add	r3, r2
 8004b6a:	f9b7 1008 	ldrsh.w	r1, [r7, #8]
 8004b6e:	6e3a      	ldr	r2, [r7, #96]	; 0x60
 8004b70:	1a8a      	subs	r2, r1, r2
 8004b72:	f833 3012 	ldrh.w	r3, [r3, r2, lsl #1]
 8004b76:	461a      	mov	r2, r3
 8004b78:	6dfb      	ldr	r3, [r7, #92]	; 0x5c
 8004b7a:	429a      	cmp	r2, r3
 8004b7c:	d102      	bne.n	8004b84 <checkRotation+0x91c>
							temp = 1;
 8004b7e:	2301      	movs	r3, #1
 8004b80:	f8c7 30ec 	str.w	r3, [r7, #236]	; 0xec
			}
	}
	else if (cisloTvaru == 12){
		for(int i=0;i<18;i++)
			for(int j=0;j<12;j++){
				for (int z = 2; z<10; z++){
 8004b84:	6dfb      	ldr	r3, [r7, #92]	; 0x5c
 8004b86:	3301      	adds	r3, #1
 8004b88:	65fb      	str	r3, [r7, #92]	; 0x5c
 8004b8a:	6dfb      	ldr	r3, [r7, #92]	; 0x5c
 8004b8c:	2b09      	cmp	r3, #9
 8004b8e:	ddc5      	ble.n	8004b1c <checkRotation+0x8b4>
				}
			}
	}
	else if (cisloTvaru == 12){
		for(int i=0;i<18;i++)
			for(int j=0;j<12;j++){
 8004b90:	6e3b      	ldr	r3, [r7, #96]	; 0x60
 8004b92:	3301      	adds	r3, #1
 8004b94:	663b      	str	r3, [r7, #96]	; 0x60
 8004b96:	6e3b      	ldr	r3, [r7, #96]	; 0x60
 8004b98:	2b0b      	cmp	r3, #11
 8004b9a:	ddbc      	ble.n	8004b16 <checkRotation+0x8ae>
							temp = 1;
				}
			}
	}
	else if (cisloTvaru == 12){
		for(int i=0;i<18;i++)
 8004b9c:	6e7b      	ldr	r3, [r7, #100]	; 0x64
 8004b9e:	3301      	adds	r3, #1
 8004ba0:	667b      	str	r3, [r7, #100]	; 0x64
 8004ba2:	6e7b      	ldr	r3, [r7, #100]	; 0x64
 8004ba4:	2b11      	cmp	r3, #17
 8004ba6:	ddb3      	ble.n	8004b10 <checkRotation+0x8a8>
 8004ba8:	e1e4      	b.n	8004f74 <checkRotation+0xd0c>
						if (matrix[x0+i][y0-j]==z)
							temp = 1;
				}
			}
	}
	else if (cisloTvaru == 13){
 8004baa:	687b      	ldr	r3, [r7, #4]
 8004bac:	2b0d      	cmp	r3, #13
 8004bae:	d14f      	bne.n	8004c50 <checkRotation+0x9e8>
		for(int i=0;i<12;i++)
 8004bb0:	2300      	movs	r3, #0
 8004bb2:	65bb      	str	r3, [r7, #88]	; 0x58
 8004bb4:	e048      	b.n	8004c48 <checkRotation+0x9e0>
			for(int j=0;j<18;j++){
 8004bb6:	2300      	movs	r3, #0
 8004bb8:	657b      	str	r3, [r7, #84]	; 0x54
 8004bba:	e03f      	b.n	8004c3c <checkRotation+0x9d4>
				for (int z = 2; z<10; z++){
 8004bbc:	2302      	movs	r3, #2
 8004bbe:	653b      	str	r3, [r7, #80]	; 0x50
 8004bc0:	e036      	b.n	8004c30 <checkRotation+0x9c8>
					if (i<6)
 8004bc2:	6dbb      	ldr	r3, [r7, #88]	; 0x58
 8004bc4:	2b05      	cmp	r3, #5
 8004bc6:	dc13      	bgt.n	8004bf0 <checkRotation+0x988>
						if (matrix[x0+i][y0-j]==z)
 8004bc8:	f9b7 200a 	ldrsh.w	r2, [r7, #10]
 8004bcc:	6dbb      	ldr	r3, [r7, #88]	; 0x58
 8004bce:	4413      	add	r3, r2
 8004bd0:	021b      	lsls	r3, r3, #8
 8004bd2:	68fa      	ldr	r2, [r7, #12]
 8004bd4:	4413      	add	r3, r2
 8004bd6:	f9b7 1008 	ldrsh.w	r1, [r7, #8]
 8004bda:	6d7a      	ldr	r2, [r7, #84]	; 0x54
 8004bdc:	1a8a      	subs	r2, r1, r2
 8004bde:	f833 3012 	ldrh.w	r3, [r3, r2, lsl #1]
 8004be2:	461a      	mov	r2, r3
 8004be4:	6d3b      	ldr	r3, [r7, #80]	; 0x50
 8004be6:	429a      	cmp	r2, r3
 8004be8:	d102      	bne.n	8004bf0 <checkRotation+0x988>
							temp = 1;
 8004bea:	2301      	movs	r3, #1
 8004bec:	f8c7 30ec 	str.w	r3, [r7, #236]	; 0xec
					if ((j>5 && j<12) && (i>5))
 8004bf0:	6d7b      	ldr	r3, [r7, #84]	; 0x54
 8004bf2:	2b05      	cmp	r3, #5
 8004bf4:	dd19      	ble.n	8004c2a <checkRotation+0x9c2>
 8004bf6:	6d7b      	ldr	r3, [r7, #84]	; 0x54
 8004bf8:	2b0b      	cmp	r3, #11
 8004bfa:	dc16      	bgt.n	8004c2a <checkRotation+0x9c2>
 8004bfc:	6dbb      	ldr	r3, [r7, #88]	; 0x58
 8004bfe:	2b05      	cmp	r3, #5
 8004c00:	dd13      	ble.n	8004c2a <checkRotation+0x9c2>
						if (matrix[x0+i][y0-j]==z)
 8004c02:	f9b7 200a 	ldrsh.w	r2, [r7, #10]
 8004c06:	6dbb      	ldr	r3, [r7, #88]	; 0x58
 8004c08:	4413      	add	r3, r2
 8004c0a:	021b      	lsls	r3, r3, #8
 8004c0c:	68fa      	ldr	r2, [r7, #12]
 8004c0e:	4413      	add	r3, r2
 8004c10:	f9b7 1008 	ldrsh.w	r1, [r7, #8]
 8004c14:	6d7a      	ldr	r2, [r7, #84]	; 0x54
 8004c16:	1a8a      	subs	r2, r1, r2
 8004c18:	f833 3012 	ldrh.w	r3, [r3, r2, lsl #1]
 8004c1c:	461a      	mov	r2, r3
 8004c1e:	6d3b      	ldr	r3, [r7, #80]	; 0x50
 8004c20:	429a      	cmp	r2, r3
 8004c22:	d102      	bne.n	8004c2a <checkRotation+0x9c2>
							temp = 1;
 8004c24:	2301      	movs	r3, #1
 8004c26:	f8c7 30ec 	str.w	r3, [r7, #236]	; 0xec
			}
	}
	else if (cisloTvaru == 13){
		for(int i=0;i<12;i++)
			for(int j=0;j<18;j++){
				for (int z = 2; z<10; z++){
 8004c2a:	6d3b      	ldr	r3, [r7, #80]	; 0x50
 8004c2c:	3301      	adds	r3, #1
 8004c2e:	653b      	str	r3, [r7, #80]	; 0x50
 8004c30:	6d3b      	ldr	r3, [r7, #80]	; 0x50
 8004c32:	2b09      	cmp	r3, #9
 8004c34:	ddc5      	ble.n	8004bc2 <checkRotation+0x95a>
				}
			}
	}
	else if (cisloTvaru == 13){
		for(int i=0;i<12;i++)
			for(int j=0;j<18;j++){
 8004c36:	6d7b      	ldr	r3, [r7, #84]	; 0x54
 8004c38:	3301      	adds	r3, #1
 8004c3a:	657b      	str	r3, [r7, #84]	; 0x54
 8004c3c:	6d7b      	ldr	r3, [r7, #84]	; 0x54
 8004c3e:	2b11      	cmp	r3, #17
 8004c40:	ddbc      	ble.n	8004bbc <checkRotation+0x954>
							temp = 1;
				}
			}
	}
	else if (cisloTvaru == 13){
		for(int i=0;i<12;i++)
 8004c42:	6dbb      	ldr	r3, [r7, #88]	; 0x58
 8004c44:	3301      	adds	r3, #1
 8004c46:	65bb      	str	r3, [r7, #88]	; 0x58
 8004c48:	6dbb      	ldr	r3, [r7, #88]	; 0x58
 8004c4a:	2b0b      	cmp	r3, #11
 8004c4c:	ddb3      	ble.n	8004bb6 <checkRotation+0x94e>
 8004c4e:	e191      	b.n	8004f74 <checkRotation+0xd0c>
						if (matrix[x0+i][y0-j]==z)
							temp = 1;
				}
			}
	}
	else if (cisloTvaru == 14){
 8004c50:	687b      	ldr	r3, [r7, #4]
 8004c52:	2b0e      	cmp	r3, #14
 8004c54:	d14f      	bne.n	8004cf6 <checkRotation+0xa8e>
		for(int i=0;i<18;i++)
 8004c56:	2300      	movs	r3, #0
 8004c58:	64fb      	str	r3, [r7, #76]	; 0x4c
 8004c5a:	e048      	b.n	8004cee <checkRotation+0xa86>
			for(int j=0;j<12;j++){
 8004c5c:	2300      	movs	r3, #0
 8004c5e:	64bb      	str	r3, [r7, #72]	; 0x48
 8004c60:	e03f      	b.n	8004ce2 <checkRotation+0xa7a>
				for (int z = 2; z<10; z++){
 8004c62:	2302      	movs	r3, #2
 8004c64:	647b      	str	r3, [r7, #68]	; 0x44
 8004c66:	e036      	b.n	8004cd6 <checkRotation+0xa6e>
					if (j<6)
 8004c68:	6cbb      	ldr	r3, [r7, #72]	; 0x48
 8004c6a:	2b05      	cmp	r3, #5
 8004c6c:	dc13      	bgt.n	8004c96 <checkRotation+0xa2e>
						if (matrix[x0+i][y0-j]==z)
 8004c6e:	f9b7 200a 	ldrsh.w	r2, [r7, #10]
 8004c72:	6cfb      	ldr	r3, [r7, #76]	; 0x4c
 8004c74:	4413      	add	r3, r2
 8004c76:	021b      	lsls	r3, r3, #8
 8004c78:	68fa      	ldr	r2, [r7, #12]
 8004c7a:	4413      	add	r3, r2
 8004c7c:	f9b7 1008 	ldrsh.w	r1, [r7, #8]
 8004c80:	6cba      	ldr	r2, [r7, #72]	; 0x48
 8004c82:	1a8a      	subs	r2, r1, r2
 8004c84:	f833 3012 	ldrh.w	r3, [r3, r2, lsl #1]
 8004c88:	461a      	mov	r2, r3
 8004c8a:	6c7b      	ldr	r3, [r7, #68]	; 0x44
 8004c8c:	429a      	cmp	r2, r3
 8004c8e:	d102      	bne.n	8004c96 <checkRotation+0xa2e>
							temp = 1;
 8004c90:	2301      	movs	r3, #1
 8004c92:	f8c7 30ec 	str.w	r3, [r7, #236]	; 0xec
					if (j>5 && (i>5 && i<12))
 8004c96:	6cbb      	ldr	r3, [r7, #72]	; 0x48
 8004c98:	2b05      	cmp	r3, #5
 8004c9a:	dd19      	ble.n	8004cd0 <checkRotation+0xa68>
 8004c9c:	6cfb      	ldr	r3, [r7, #76]	; 0x4c
 8004c9e:	2b05      	cmp	r3, #5
 8004ca0:	dd16      	ble.n	8004cd0 <checkRotation+0xa68>
 8004ca2:	6cfb      	ldr	r3, [r7, #76]	; 0x4c
 8004ca4:	2b0b      	cmp	r3, #11
 8004ca6:	dc13      	bgt.n	8004cd0 <checkRotation+0xa68>
						if (matrix[x0+i][y0-j]==z)
 8004ca8:	f9b7 200a 	ldrsh.w	r2, [r7, #10]
 8004cac:	6cfb      	ldr	r3, [r7, #76]	; 0x4c
 8004cae:	4413      	add	r3, r2
 8004cb0:	021b      	lsls	r3, r3, #8
 8004cb2:	68fa      	ldr	r2, [r7, #12]
 8004cb4:	4413      	add	r3, r2
 8004cb6:	f9b7 1008 	ldrsh.w	r1, [r7, #8]
 8004cba:	6cba      	ldr	r2, [r7, #72]	; 0x48
 8004cbc:	1a8a      	subs	r2, r1, r2
 8004cbe:	f833 3012 	ldrh.w	r3, [r3, r2, lsl #1]
 8004cc2:	461a      	mov	r2, r3
 8004cc4:	6c7b      	ldr	r3, [r7, #68]	; 0x44
 8004cc6:	429a      	cmp	r2, r3
 8004cc8:	d102      	bne.n	8004cd0 <checkRotation+0xa68>
							temp = 1;
 8004cca:	2301      	movs	r3, #1
 8004ccc:	f8c7 30ec 	str.w	r3, [r7, #236]	; 0xec
			}
	}
	else if (cisloTvaru == 14){
		for(int i=0;i<18;i++)
			for(int j=0;j<12;j++){
				for (int z = 2; z<10; z++){
 8004cd0:	6c7b      	ldr	r3, [r7, #68]	; 0x44
 8004cd2:	3301      	adds	r3, #1
 8004cd4:	647b      	str	r3, [r7, #68]	; 0x44
 8004cd6:	6c7b      	ldr	r3, [r7, #68]	; 0x44
 8004cd8:	2b09      	cmp	r3, #9
 8004cda:	ddc5      	ble.n	8004c68 <checkRotation+0xa00>
				}
			}
	}
	else if (cisloTvaru == 14){
		for(int i=0;i<18;i++)
			for(int j=0;j<12;j++){
 8004cdc:	6cbb      	ldr	r3, [r7, #72]	; 0x48
 8004cde:	3301      	adds	r3, #1
 8004ce0:	64bb      	str	r3, [r7, #72]	; 0x48
 8004ce2:	6cbb      	ldr	r3, [r7, #72]	; 0x48
 8004ce4:	2b0b      	cmp	r3, #11
 8004ce6:	ddbc      	ble.n	8004c62 <checkRotation+0x9fa>
							temp = 1;
				}
			}
	}
	else if (cisloTvaru == 14){
		for(int i=0;i<18;i++)
 8004ce8:	6cfb      	ldr	r3, [r7, #76]	; 0x4c
 8004cea:	3301      	adds	r3, #1
 8004cec:	64fb      	str	r3, [r7, #76]	; 0x4c
 8004cee:	6cfb      	ldr	r3, [r7, #76]	; 0x4c
 8004cf0:	2b11      	cmp	r3, #17
 8004cf2:	ddb3      	ble.n	8004c5c <checkRotation+0x9f4>
 8004cf4:	e13e      	b.n	8004f74 <checkRotation+0xd0c>
						if (matrix[x0+i][y0-j]==z)
							temp = 1;
				}
			}
	}
	else if (cisloTvaru == 15){
 8004cf6:	687b      	ldr	r3, [r7, #4]
 8004cf8:	2b0f      	cmp	r3, #15
 8004cfa:	d14c      	bne.n	8004d96 <checkRotation+0xb2e>
		for(int i=0;i<18;i++)
 8004cfc:	2300      	movs	r3, #0
 8004cfe:	643b      	str	r3, [r7, #64]	; 0x40
 8004d00:	e045      	b.n	8004d8e <checkRotation+0xb26>
			for(int j=0;j<12;j++){
 8004d02:	2300      	movs	r3, #0
 8004d04:	63fb      	str	r3, [r7, #60]	; 0x3c
 8004d06:	e03c      	b.n	8004d82 <checkRotation+0xb1a>
				for (int z = 2; z<10; z++){
 8004d08:	2302      	movs	r3, #2
 8004d0a:	63bb      	str	r3, [r7, #56]	; 0x38
 8004d0c:	e033      	b.n	8004d76 <checkRotation+0xb0e>
					if (j<6 && i>11)
 8004d0e:	6bfb      	ldr	r3, [r7, #60]	; 0x3c
 8004d10:	2b05      	cmp	r3, #5
 8004d12:	dc16      	bgt.n	8004d42 <checkRotation+0xada>
 8004d14:	6c3b      	ldr	r3, [r7, #64]	; 0x40
 8004d16:	2b0b      	cmp	r3, #11
 8004d18:	dd13      	ble.n	8004d42 <checkRotation+0xada>
						if (matrix[x0+i][y0-j]==z)
 8004d1a:	f9b7 200a 	ldrsh.w	r2, [r7, #10]
 8004d1e:	6c3b      	ldr	r3, [r7, #64]	; 0x40
 8004d20:	4413      	add	r3, r2
 8004d22:	021b      	lsls	r3, r3, #8
 8004d24:	68fa      	ldr	r2, [r7, #12]
 8004d26:	4413      	add	r3, r2
 8004d28:	f9b7 1008 	ldrsh.w	r1, [r7, #8]
 8004d2c:	6bfa      	ldr	r2, [r7, #60]	; 0x3c
 8004d2e:	1a8a      	subs	r2, r1, r2
 8004d30:	f833 3012 	ldrh.w	r3, [r3, r2, lsl #1]
 8004d34:	461a      	mov	r2, r3
 8004d36:	6bbb      	ldr	r3, [r7, #56]	; 0x38
 8004d38:	429a      	cmp	r2, r3
 8004d3a:	d102      	bne.n	8004d42 <checkRotation+0xada>
							temp = 1;
 8004d3c:	2301      	movs	r3, #1
 8004d3e:	f8c7 30ec 	str.w	r3, [r7, #236]	; 0xec
					if (j>5)
 8004d42:	6bfb      	ldr	r3, [r7, #60]	; 0x3c
 8004d44:	2b05      	cmp	r3, #5
 8004d46:	dd13      	ble.n	8004d70 <checkRotation+0xb08>
						if (matrix[x0+i][y0-j]==z)
 8004d48:	f9b7 200a 	ldrsh.w	r2, [r7, #10]
 8004d4c:	6c3b      	ldr	r3, [r7, #64]	; 0x40
 8004d4e:	4413      	add	r3, r2
 8004d50:	021b      	lsls	r3, r3, #8
 8004d52:	68fa      	ldr	r2, [r7, #12]
 8004d54:	4413      	add	r3, r2
 8004d56:	f9b7 1008 	ldrsh.w	r1, [r7, #8]
 8004d5a:	6bfa      	ldr	r2, [r7, #60]	; 0x3c
 8004d5c:	1a8a      	subs	r2, r1, r2
 8004d5e:	f833 3012 	ldrh.w	r3, [r3, r2, lsl #1]
 8004d62:	461a      	mov	r2, r3
 8004d64:	6bbb      	ldr	r3, [r7, #56]	; 0x38
 8004d66:	429a      	cmp	r2, r3
 8004d68:	d102      	bne.n	8004d70 <checkRotation+0xb08>
							temp = 1;
 8004d6a:	2301      	movs	r3, #1
 8004d6c:	f8c7 30ec 	str.w	r3, [r7, #236]	; 0xec
			}
	}
	else if (cisloTvaru == 15){
		for(int i=0;i<18;i++)
			for(int j=0;j<12;j++){
				for (int z = 2; z<10; z++){
 8004d70:	6bbb      	ldr	r3, [r7, #56]	; 0x38
 8004d72:	3301      	adds	r3, #1
 8004d74:	63bb      	str	r3, [r7, #56]	; 0x38
 8004d76:	6bbb      	ldr	r3, [r7, #56]	; 0x38
 8004d78:	2b09      	cmp	r3, #9
 8004d7a:	ddc8      	ble.n	8004d0e <checkRotation+0xaa6>
				}
			}
	}
	else if (cisloTvaru == 15){
		for(int i=0;i<18;i++)
			for(int j=0;j<12;j++){
 8004d7c:	6bfb      	ldr	r3, [r7, #60]	; 0x3c
 8004d7e:	3301      	adds	r3, #1
 8004d80:	63fb      	str	r3, [r7, #60]	; 0x3c
 8004d82:	6bfb      	ldr	r3, [r7, #60]	; 0x3c
 8004d84:	2b0b      	cmp	r3, #11
 8004d86:	ddbf      	ble.n	8004d08 <checkRotation+0xaa0>
							temp = 1;
				}
			}
	}
	else if (cisloTvaru == 15){
		for(int i=0;i<18;i++)
 8004d88:	6c3b      	ldr	r3, [r7, #64]	; 0x40
 8004d8a:	3301      	adds	r3, #1
 8004d8c:	643b      	str	r3, [r7, #64]	; 0x40
 8004d8e:	6c3b      	ldr	r3, [r7, #64]	; 0x40
 8004d90:	2b11      	cmp	r3, #17
 8004d92:	ddb6      	ble.n	8004d02 <checkRotation+0xa9a>
 8004d94:	e0ee      	b.n	8004f74 <checkRotation+0xd0c>
						if (matrix[x0+i][y0-j]==z)
							temp = 1;
				}
			}
	}
	else if (cisloTvaru == 16){
 8004d96:	687b      	ldr	r3, [r7, #4]
 8004d98:	2b10      	cmp	r3, #16
 8004d9a:	d14c      	bne.n	8004e36 <checkRotation+0xbce>
		for(int i=0;i<12;i++)
 8004d9c:	2300      	movs	r3, #0
 8004d9e:	637b      	str	r3, [r7, #52]	; 0x34
 8004da0:	e045      	b.n	8004e2e <checkRotation+0xbc6>
			for(int j=0;j<18;j++){
 8004da2:	2300      	movs	r3, #0
 8004da4:	633b      	str	r3, [r7, #48]	; 0x30
 8004da6:	e03c      	b.n	8004e22 <checkRotation+0xbba>
				for (int z = 2; z<10; z++){
 8004da8:	2302      	movs	r3, #2
 8004daa:	62fb      	str	r3, [r7, #44]	; 0x2c
 8004dac:	e033      	b.n	8004e16 <checkRotation+0xbae>
					if (j<12 && i<6)
 8004dae:	6b3b      	ldr	r3, [r7, #48]	; 0x30
 8004db0:	2b0b      	cmp	r3, #11
 8004db2:	dc16      	bgt.n	8004de2 <checkRotation+0xb7a>
 8004db4:	6b7b      	ldr	r3, [r7, #52]	; 0x34
 8004db6:	2b05      	cmp	r3, #5
 8004db8:	dc13      	bgt.n	8004de2 <checkRotation+0xb7a>
						if (matrix[x0+i][y0-j]==z)
 8004dba:	f9b7 200a 	ldrsh.w	r2, [r7, #10]
 8004dbe:	6b7b      	ldr	r3, [r7, #52]	; 0x34
 8004dc0:	4413      	add	r3, r2
 8004dc2:	021b      	lsls	r3, r3, #8
 8004dc4:	68fa      	ldr	r2, [r7, #12]
 8004dc6:	4413      	add	r3, r2
 8004dc8:	f9b7 1008 	ldrsh.w	r1, [r7, #8]
 8004dcc:	6b3a      	ldr	r2, [r7, #48]	; 0x30
 8004dce:	1a8a      	subs	r2, r1, r2
 8004dd0:	f833 3012 	ldrh.w	r3, [r3, r2, lsl #1]
 8004dd4:	461a      	mov	r2, r3
 8004dd6:	6afb      	ldr	r3, [r7, #44]	; 0x2c
 8004dd8:	429a      	cmp	r2, r3
 8004dda:	d102      	bne.n	8004de2 <checkRotation+0xb7a>
							temp = 1;
 8004ddc:	2301      	movs	r3, #1
 8004dde:	f8c7 30ec 	str.w	r3, [r7, #236]	; 0xec
					if (j>11)
 8004de2:	6b3b      	ldr	r3, [r7, #48]	; 0x30
 8004de4:	2b0b      	cmp	r3, #11
 8004de6:	dd13      	ble.n	8004e10 <checkRotation+0xba8>
						if (matrix[x0+i][y0-j]==z)
 8004de8:	f9b7 200a 	ldrsh.w	r2, [r7, #10]
 8004dec:	6b7b      	ldr	r3, [r7, #52]	; 0x34
 8004dee:	4413      	add	r3, r2
 8004df0:	021b      	lsls	r3, r3, #8
 8004df2:	68fa      	ldr	r2, [r7, #12]
 8004df4:	4413      	add	r3, r2
 8004df6:	f9b7 1008 	ldrsh.w	r1, [r7, #8]
 8004dfa:	6b3a      	ldr	r2, [r7, #48]	; 0x30
 8004dfc:	1a8a      	subs	r2, r1, r2
 8004dfe:	f833 3012 	ldrh.w	r3, [r3, r2, lsl #1]
 8004e02:	461a      	mov	r2, r3
 8004e04:	6afb      	ldr	r3, [r7, #44]	; 0x2c
 8004e06:	429a      	cmp	r2, r3
 8004e08:	d102      	bne.n	8004e10 <checkRotation+0xba8>
							temp = 1;
 8004e0a:	2301      	movs	r3, #1
 8004e0c:	f8c7 30ec 	str.w	r3, [r7, #236]	; 0xec
			}
	}
	else if (cisloTvaru == 16){
		for(int i=0;i<12;i++)
			for(int j=0;j<18;j++){
				for (int z = 2; z<10; z++){
 8004e10:	6afb      	ldr	r3, [r7, #44]	; 0x2c
 8004e12:	3301      	adds	r3, #1
 8004e14:	62fb      	str	r3, [r7, #44]	; 0x2c
 8004e16:	6afb      	ldr	r3, [r7, #44]	; 0x2c
 8004e18:	2b09      	cmp	r3, #9
 8004e1a:	ddc8      	ble.n	8004dae <checkRotation+0xb46>
				}
			}
	}
	else if (cisloTvaru == 16){
		for(int i=0;i<12;i++)
			for(int j=0;j<18;j++){
 8004e1c:	6b3b      	ldr	r3, [r7, #48]	; 0x30
 8004e1e:	3301      	adds	r3, #1
 8004e20:	633b      	str	r3, [r7, #48]	; 0x30
 8004e22:	6b3b      	ldr	r3, [r7, #48]	; 0x30
 8004e24:	2b11      	cmp	r3, #17
 8004e26:	ddbf      	ble.n	8004da8 <checkRotation+0xb40>
							temp = 1;
				}
			}
	}
	else if (cisloTvaru == 16){
		for(int i=0;i<12;i++)
 8004e28:	6b7b      	ldr	r3, [r7, #52]	; 0x34
 8004e2a:	3301      	adds	r3, #1
 8004e2c:	637b      	str	r3, [r7, #52]	; 0x34
 8004e2e:	6b7b      	ldr	r3, [r7, #52]	; 0x34
 8004e30:	2b0b      	cmp	r3, #11
 8004e32:	ddb6      	ble.n	8004da2 <checkRotation+0xb3a>
 8004e34:	e09e      	b.n	8004f74 <checkRotation+0xd0c>
						if (matrix[x0+i][y0-j]==z)
							temp = 1;
				}
			}
	}
	else if (cisloTvaru == 17){
 8004e36:	687b      	ldr	r3, [r7, #4]
 8004e38:	2b11      	cmp	r3, #17
 8004e3a:	d14c      	bne.n	8004ed6 <checkRotation+0xc6e>
		for(int i=0;i<18;i++)
 8004e3c:	2300      	movs	r3, #0
 8004e3e:	62bb      	str	r3, [r7, #40]	; 0x28
 8004e40:	e045      	b.n	8004ece <checkRotation+0xc66>
			for(int j=0;j<12;j++){
 8004e42:	2300      	movs	r3, #0
 8004e44:	627b      	str	r3, [r7, #36]	; 0x24
 8004e46:	e03c      	b.n	8004ec2 <checkRotation+0xc5a>
				for (int z = 2; z<10; z++){
 8004e48:	2302      	movs	r3, #2
 8004e4a:	623b      	str	r3, [r7, #32]
 8004e4c:	e033      	b.n	8004eb6 <checkRotation+0xc4e>
					if (j<6)
 8004e4e:	6a7b      	ldr	r3, [r7, #36]	; 0x24
 8004e50:	2b05      	cmp	r3, #5
 8004e52:	dc13      	bgt.n	8004e7c <checkRotation+0xc14>
						if (matrix[x0+i][y0-j]==z)
 8004e54:	f9b7 200a 	ldrsh.w	r2, [r7, #10]
 8004e58:	6abb      	ldr	r3, [r7, #40]	; 0x28
 8004e5a:	4413      	add	r3, r2
 8004e5c:	021b      	lsls	r3, r3, #8
 8004e5e:	68fa      	ldr	r2, [r7, #12]
 8004e60:	4413      	add	r3, r2
 8004e62:	f9b7 1008 	ldrsh.w	r1, [r7, #8]
 8004e66:	6a7a      	ldr	r2, [r7, #36]	; 0x24
 8004e68:	1a8a      	subs	r2, r1, r2
 8004e6a:	f833 3012 	ldrh.w	r3, [r3, r2, lsl #1]
 8004e6e:	461a      	mov	r2, r3
 8004e70:	6a3b      	ldr	r3, [r7, #32]
 8004e72:	429a      	cmp	r2, r3
 8004e74:	d102      	bne.n	8004e7c <checkRotation+0xc14>
							temp = 1;
 8004e76:	2301      	movs	r3, #1
 8004e78:	f8c7 30ec 	str.w	r3, [r7, #236]	; 0xec
					if (j>5 && i<6)
 8004e7c:	6a7b      	ldr	r3, [r7, #36]	; 0x24
 8004e7e:	2b05      	cmp	r3, #5
 8004e80:	dd16      	ble.n	8004eb0 <checkRotation+0xc48>
 8004e82:	6abb      	ldr	r3, [r7, #40]	; 0x28
 8004e84:	2b05      	cmp	r3, #5
 8004e86:	dc13      	bgt.n	8004eb0 <checkRotation+0xc48>
						if (matrix[x0+i][y0-j]==z)
 8004e88:	f9b7 200a 	ldrsh.w	r2, [r7, #10]
 8004e8c:	6abb      	ldr	r3, [r7, #40]	; 0x28
 8004e8e:	4413      	add	r3, r2
 8004e90:	021b      	lsls	r3, r3, #8
 8004e92:	68fa      	ldr	r2, [r7, #12]
 8004e94:	4413      	add	r3, r2
 8004e96:	f9b7 1008 	ldrsh.w	r1, [r7, #8]
 8004e9a:	6a7a      	ldr	r2, [r7, #36]	; 0x24
 8004e9c:	1a8a      	subs	r2, r1, r2
 8004e9e:	f833 3012 	ldrh.w	r3, [r3, r2, lsl #1]
 8004ea2:	461a      	mov	r2, r3
 8004ea4:	6a3b      	ldr	r3, [r7, #32]
 8004ea6:	429a      	cmp	r2, r3
 8004ea8:	d102      	bne.n	8004eb0 <checkRotation+0xc48>
							temp = 1;
 8004eaa:	2301      	movs	r3, #1
 8004eac:	f8c7 30ec 	str.w	r3, [r7, #236]	; 0xec
			}
	}
	else if (cisloTvaru == 17){
		for(int i=0;i<18;i++)
			for(int j=0;j<12;j++){
				for (int z = 2; z<10; z++){
 8004eb0:	6a3b      	ldr	r3, [r7, #32]
 8004eb2:	3301      	adds	r3, #1
 8004eb4:	623b      	str	r3, [r7, #32]
 8004eb6:	6a3b      	ldr	r3, [r7, #32]
 8004eb8:	2b09      	cmp	r3, #9
 8004eba:	ddc8      	ble.n	8004e4e <checkRotation+0xbe6>
				}
			}
	}
	else if (cisloTvaru == 17){
		for(int i=0;i<18;i++)
			for(int j=0;j<12;j++){
 8004ebc:	6a7b      	ldr	r3, [r7, #36]	; 0x24
 8004ebe:	3301      	adds	r3, #1
 8004ec0:	627b      	str	r3, [r7, #36]	; 0x24
 8004ec2:	6a7b      	ldr	r3, [r7, #36]	; 0x24
 8004ec4:	2b0b      	cmp	r3, #11
 8004ec6:	ddbf      	ble.n	8004e48 <checkRotation+0xbe0>
							temp = 1;
				}
			}
	}
	else if (cisloTvaru == 17){
		for(int i=0;i<18;i++)
 8004ec8:	6abb      	ldr	r3, [r7, #40]	; 0x28
 8004eca:	3301      	adds	r3, #1
 8004ecc:	62bb      	str	r3, [r7, #40]	; 0x28
 8004ece:	6abb      	ldr	r3, [r7, #40]	; 0x28
 8004ed0:	2b11      	cmp	r3, #17
 8004ed2:	ddb6      	ble.n	8004e42 <checkRotation+0xbda>
 8004ed4:	e04e      	b.n	8004f74 <checkRotation+0xd0c>
						if (matrix[x0+i][y0-j]==z)
							temp = 1;
				}
			}
	}
	else if (cisloTvaru == 18){
 8004ed6:	687b      	ldr	r3, [r7, #4]
 8004ed8:	2b12      	cmp	r3, #18
 8004eda:	d14b      	bne.n	8004f74 <checkRotation+0xd0c>
		for(int i=0;i<12;i++)
 8004edc:	2300      	movs	r3, #0
 8004ede:	61fb      	str	r3, [r7, #28]
 8004ee0:	e045      	b.n	8004f6e <checkRotation+0xd06>
			for(int j=0;j<18;j++){
 8004ee2:	2300      	movs	r3, #0
 8004ee4:	61bb      	str	r3, [r7, #24]
 8004ee6:	e03c      	b.n	8004f62 <checkRotation+0xcfa>
				for (int z = 2; z<10; z++){
 8004ee8:	2302      	movs	r3, #2
 8004eea:	617b      	str	r3, [r7, #20]
 8004eec:	e033      	b.n	8004f56 <checkRotation+0xcee>
					if (j<6)
 8004eee:	69bb      	ldr	r3, [r7, #24]
 8004ef0:	2b05      	cmp	r3, #5
 8004ef2:	dc13      	bgt.n	8004f1c <checkRotation+0xcb4>
						if (matrix[x0+i][y0-j]==z)
 8004ef4:	f9b7 200a 	ldrsh.w	r2, [r7, #10]
 8004ef8:	69fb      	ldr	r3, [r7, #28]
 8004efa:	4413      	add	r3, r2
 8004efc:	021b      	lsls	r3, r3, #8
 8004efe:	68fa      	ldr	r2, [r7, #12]
 8004f00:	4413      	add	r3, r2
 8004f02:	f9b7 1008 	ldrsh.w	r1, [r7, #8]
 8004f06:	69ba      	ldr	r2, [r7, #24]
 8004f08:	1a8a      	subs	r2, r1, r2
 8004f0a:	f833 3012 	ldrh.w	r3, [r3, r2, lsl #1]
 8004f0e:	461a      	mov	r2, r3
 8004f10:	697b      	ldr	r3, [r7, #20]
 8004f12:	429a      	cmp	r2, r3
 8004f14:	d102      	bne.n	8004f1c <checkRotation+0xcb4>
							temp = 1;
 8004f16:	2301      	movs	r3, #1
 8004f18:	f8c7 30ec 	str.w	r3, [r7, #236]	; 0xec
					if (j>5 && i>5)
 8004f1c:	69bb      	ldr	r3, [r7, #24]
 8004f1e:	2b05      	cmp	r3, #5
 8004f20:	dd16      	ble.n	8004f50 <checkRotation+0xce8>
 8004f22:	69fb      	ldr	r3, [r7, #28]
 8004f24:	2b05      	cmp	r3, #5
 8004f26:	dd13      	ble.n	8004f50 <checkRotation+0xce8>
						if (matrix[x0+i][y0-j]==z)
 8004f28:	f9b7 200a 	ldrsh.w	r2, [r7, #10]
 8004f2c:	69fb      	ldr	r3, [r7, #28]
 8004f2e:	4413      	add	r3, r2
 8004f30:	021b      	lsls	r3, r3, #8
 8004f32:	68fa      	ldr	r2, [r7, #12]
 8004f34:	4413      	add	r3, r2
 8004f36:	f9b7 1008 	ldrsh.w	r1, [r7, #8]
 8004f3a:	69ba      	ldr	r2, [r7, #24]
 8004f3c:	1a8a      	subs	r2, r1, r2
 8004f3e:	f833 3012 	ldrh.w	r3, [r3, r2, lsl #1]
 8004f42:	461a      	mov	r2, r3
 8004f44:	697b      	ldr	r3, [r7, #20]
 8004f46:	429a      	cmp	r2, r3
 8004f48:	d102      	bne.n	8004f50 <checkRotation+0xce8>
							temp = 1;
 8004f4a:	2301      	movs	r3, #1
 8004f4c:	f8c7 30ec 	str.w	r3, [r7, #236]	; 0xec
			}
	}
	else if (cisloTvaru == 18){
		for(int i=0;i<12;i++)
			for(int j=0;j<18;j++){
				for (int z = 2; z<10; z++){
 8004f50:	697b      	ldr	r3, [r7, #20]
 8004f52:	3301      	adds	r3, #1
 8004f54:	617b      	str	r3, [r7, #20]
 8004f56:	697b      	ldr	r3, [r7, #20]
 8004f58:	2b09      	cmp	r3, #9
 8004f5a:	ddc8      	ble.n	8004eee <checkRotation+0xc86>
				}
			}
	}
	else if (cisloTvaru == 18){
		for(int i=0;i<12;i++)
			for(int j=0;j<18;j++){
 8004f5c:	69bb      	ldr	r3, [r7, #24]
 8004f5e:	3301      	adds	r3, #1
 8004f60:	61bb      	str	r3, [r7, #24]
 8004f62:	69bb      	ldr	r3, [r7, #24]
 8004f64:	2b11      	cmp	r3, #17
 8004f66:	ddbf      	ble.n	8004ee8 <checkRotation+0xc80>
							temp = 1;
				}
			}
	}
	else if (cisloTvaru == 18){
		for(int i=0;i<12;i++)
 8004f68:	69fb      	ldr	r3, [r7, #28]
 8004f6a:	3301      	adds	r3, #1
 8004f6c:	61fb      	str	r3, [r7, #28]
 8004f6e:	69fb      	ldr	r3, [r7, #28]
 8004f70:	2b0b      	cmp	r3, #11
 8004f72:	ddb6      	ble.n	8004ee2 <checkRotation+0xc7a>
							temp = 1;
				}
			}
	}

	return temp;
 8004f74:	f8d7 30ec 	ldr.w	r3, [r7, #236]	; 0xec
}
 8004f78:	4618      	mov	r0, r3
 8004f7a:	37f4      	adds	r7, #244	; 0xf4
 8004f7c:	46bd      	mov	sp, r7
 8004f7e:	bc80      	pop	{r7}
 8004f80:	4770      	bx	lr
 8004f82:	bf00      	nop

08004f84 <placeDownBlock>:

void placeDownBlock(uint16_t matrix[128][128], int16_t x0, int16_t y0, int cisloTvaru){
 8004f84:	b480      	push	{r7}
 8004f86:	b0ab      	sub	sp, #172	; 0xac
 8004f88:	af00      	add	r7, sp, #0
 8004f8a:	60f8      	str	r0, [r7, #12]
 8004f8c:	607b      	str	r3, [r7, #4]
 8004f8e:	460b      	mov	r3, r1
 8004f90:	817b      	strh	r3, [r7, #10]
 8004f92:	4613      	mov	r3, r2
 8004f94:	813b      	strh	r3, [r7, #8]
	// ak objekt je stvorec
	if (cisloTvaru == 0){
 8004f96:	687b      	ldr	r3, [r7, #4]
 8004f98:	2b00      	cmp	r3, #0
 8004f9a:	d132      	bne.n	8005002 <placeDownBlock+0x7e>
		for(int i=0;i<12;i++)
 8004f9c:	2300      	movs	r3, #0
 8004f9e:	f8c7 30a4 	str.w	r3, [r7, #164]	; 0xa4
 8004fa2:	e028      	b.n	8004ff6 <placeDownBlock+0x72>
			for(int j=0;j<12;j++)
 8004fa4:	2300      	movs	r3, #0
 8004fa6:	f8c7 30a0 	str.w	r3, [r7, #160]	; 0xa0
 8004faa:	e01b      	b.n	8004fe4 <placeDownBlock+0x60>
				if (y0-j>1)
 8004fac:	f9b7 2008 	ldrsh.w	r2, [r7, #8]
 8004fb0:	f8d7 30a0 	ldr.w	r3, [r7, #160]	; 0xa0
 8004fb4:	1ad3      	subs	r3, r2, r3
 8004fb6:	2b01      	cmp	r3, #1
 8004fb8:	dd0f      	ble.n	8004fda <placeDownBlock+0x56>
					matrix[x0+i][y0-j]=3;
 8004fba:	f9b7 200a 	ldrsh.w	r2, [r7, #10]
 8004fbe:	f8d7 30a4 	ldr.w	r3, [r7, #164]	; 0xa4
 8004fc2:	4413      	add	r3, r2
 8004fc4:	021b      	lsls	r3, r3, #8
 8004fc6:	68fa      	ldr	r2, [r7, #12]
 8004fc8:	4413      	add	r3, r2
 8004fca:	f9b7 1008 	ldrsh.w	r1, [r7, #8]
 8004fce:	f8d7 20a0 	ldr.w	r2, [r7, #160]	; 0xa0
 8004fd2:	1a8a      	subs	r2, r1, r2
 8004fd4:	2103      	movs	r1, #3
 8004fd6:	f823 1012 	strh.w	r1, [r3, r2, lsl #1]

void placeDownBlock(uint16_t matrix[128][128], int16_t x0, int16_t y0, int cisloTvaru){
	// ak objekt je stvorec
	if (cisloTvaru == 0){
		for(int i=0;i<12;i++)
			for(int j=0;j<12;j++)
 8004fda:	f8d7 30a0 	ldr.w	r3, [r7, #160]	; 0xa0
 8004fde:	3301      	adds	r3, #1
 8004fe0:	f8c7 30a0 	str.w	r3, [r7, #160]	; 0xa0
 8004fe4:	f8d7 30a0 	ldr.w	r3, [r7, #160]	; 0xa0
 8004fe8:	2b0b      	cmp	r3, #11
 8004fea:	dddf      	ble.n	8004fac <placeDownBlock+0x28>
}

void placeDownBlock(uint16_t matrix[128][128], int16_t x0, int16_t y0, int cisloTvaru){
	// ak objekt je stvorec
	if (cisloTvaru == 0){
		for(int i=0;i<12;i++)
 8004fec:	f8d7 30a4 	ldr.w	r3, [r7, #164]	; 0xa4
 8004ff0:	3301      	adds	r3, #1
 8004ff2:	f8c7 30a4 	str.w	r3, [r7, #164]	; 0xa4
 8004ff6:	f8d7 30a4 	ldr.w	r3, [r7, #164]	; 0xa4
 8004ffa:	2b0b      	cmp	r3, #11
 8004ffc:	ddd2      	ble.n	8004fa4 <placeDownBlock+0x20>
					if (j>5 && i<6)
						matrix[x0+i][y0-j]=9;
				}
			}
	}
}
 8004ffe:	f000 bce2 	b.w	80059c6 <placeDownBlock+0xa42>
			for(int j=0;j<12;j++)
				if (y0-j>1)
					matrix[x0+i][y0-j]=3;
	}
	// ak objekt je obdlznik |
	else if (cisloTvaru == 1){
 8005002:	687b      	ldr	r3, [r7, #4]
 8005004:	2b01      	cmp	r3, #1
 8005006:	d132      	bne.n	800506e <placeDownBlock+0xea>
		for(int i=0;i<6;i++)
 8005008:	2300      	movs	r3, #0
 800500a:	f8c7 309c 	str.w	r3, [r7, #156]	; 0x9c
 800500e:	e028      	b.n	8005062 <placeDownBlock+0xde>
			for(int j=0;j<24;j++)
 8005010:	2300      	movs	r3, #0
 8005012:	f8c7 3098 	str.w	r3, [r7, #152]	; 0x98
 8005016:	e01b      	b.n	8005050 <placeDownBlock+0xcc>
				if (y0-j>1)
 8005018:	f9b7 2008 	ldrsh.w	r2, [r7, #8]
 800501c:	f8d7 3098 	ldr.w	r3, [r7, #152]	; 0x98
 8005020:	1ad3      	subs	r3, r2, r3
 8005022:	2b01      	cmp	r3, #1
 8005024:	dd0f      	ble.n	8005046 <placeDownBlock+0xc2>
					matrix[x0+i][y0-j]=4;
 8005026:	f9b7 200a 	ldrsh.w	r2, [r7, #10]
 800502a:	f8d7 309c 	ldr.w	r3, [r7, #156]	; 0x9c
 800502e:	4413      	add	r3, r2
 8005030:	021b      	lsls	r3, r3, #8
 8005032:	68fa      	ldr	r2, [r7, #12]
 8005034:	4413      	add	r3, r2
 8005036:	f9b7 1008 	ldrsh.w	r1, [r7, #8]
 800503a:	f8d7 2098 	ldr.w	r2, [r7, #152]	; 0x98
 800503e:	1a8a      	subs	r2, r1, r2
 8005040:	2104      	movs	r1, #4
 8005042:	f823 1012 	strh.w	r1, [r3, r2, lsl #1]
					matrix[x0+i][y0-j]=3;
	}
	// ak objekt je obdlznik |
	else if (cisloTvaru == 1){
		for(int i=0;i<6;i++)
			for(int j=0;j<24;j++)
 8005046:	f8d7 3098 	ldr.w	r3, [r7, #152]	; 0x98
 800504a:	3301      	adds	r3, #1
 800504c:	f8c7 3098 	str.w	r3, [r7, #152]	; 0x98
 8005050:	f8d7 3098 	ldr.w	r3, [r7, #152]	; 0x98
 8005054:	2b17      	cmp	r3, #23
 8005056:	dddf      	ble.n	8005018 <placeDownBlock+0x94>
				if (y0-j>1)
					matrix[x0+i][y0-j]=3;
	}
	// ak objekt je obdlznik |
	else if (cisloTvaru == 1){
		for(int i=0;i<6;i++)
 8005058:	f8d7 309c 	ldr.w	r3, [r7, #156]	; 0x9c
 800505c:	3301      	adds	r3, #1
 800505e:	f8c7 309c 	str.w	r3, [r7, #156]	; 0x9c
 8005062:	f8d7 309c 	ldr.w	r3, [r7, #156]	; 0x9c
 8005066:	2b05      	cmp	r3, #5
 8005068:	ddd2      	ble.n	8005010 <placeDownBlock+0x8c>
					if (j>5 && i<6)
						matrix[x0+i][y0-j]=9;
				}
			}
	}
}
 800506a:	f000 bcac 	b.w	80059c6 <placeDownBlock+0xa42>
			for(int j=0;j<24;j++)
				if (y0-j>1)
					matrix[x0+i][y0-j]=4;
	}
	// ak objekt je obdlznik _
	else if (cisloTvaru == 2){
 800506e:	687b      	ldr	r3, [r7, #4]
 8005070:	2b02      	cmp	r3, #2
 8005072:	d132      	bne.n	80050da <placeDownBlock+0x156>
		for(int i=0;i<24;i++)
 8005074:	2300      	movs	r3, #0
 8005076:	f8c7 3094 	str.w	r3, [r7, #148]	; 0x94
 800507a:	e028      	b.n	80050ce <placeDownBlock+0x14a>
			for(int j=0;j<6;j++)
 800507c:	2300      	movs	r3, #0
 800507e:	f8c7 3090 	str.w	r3, [r7, #144]	; 0x90
 8005082:	e01b      	b.n	80050bc <placeDownBlock+0x138>
				if (y0-j>1)
 8005084:	f9b7 2008 	ldrsh.w	r2, [r7, #8]
 8005088:	f8d7 3090 	ldr.w	r3, [r7, #144]	; 0x90
 800508c:	1ad3      	subs	r3, r2, r3
 800508e:	2b01      	cmp	r3, #1
 8005090:	dd0f      	ble.n	80050b2 <placeDownBlock+0x12e>
					matrix[x0+i][y0-j]=4;
 8005092:	f9b7 200a 	ldrsh.w	r2, [r7, #10]
 8005096:	f8d7 3094 	ldr.w	r3, [r7, #148]	; 0x94
 800509a:	4413      	add	r3, r2
 800509c:	021b      	lsls	r3, r3, #8
 800509e:	68fa      	ldr	r2, [r7, #12]
 80050a0:	4413      	add	r3, r2
 80050a2:	f9b7 1008 	ldrsh.w	r1, [r7, #8]
 80050a6:	f8d7 2090 	ldr.w	r2, [r7, #144]	; 0x90
 80050aa:	1a8a      	subs	r2, r1, r2
 80050ac:	2104      	movs	r1, #4
 80050ae:	f823 1012 	strh.w	r1, [r3, r2, lsl #1]
					matrix[x0+i][y0-j]=4;
	}
	// ak objekt je obdlznik _
	else if (cisloTvaru == 2){
		for(int i=0;i<24;i++)
			for(int j=0;j<6;j++)
 80050b2:	f8d7 3090 	ldr.w	r3, [r7, #144]	; 0x90
 80050b6:	3301      	adds	r3, #1
 80050b8:	f8c7 3090 	str.w	r3, [r7, #144]	; 0x90
 80050bc:	f8d7 3090 	ldr.w	r3, [r7, #144]	; 0x90
 80050c0:	2b05      	cmp	r3, #5
 80050c2:	dddf      	ble.n	8005084 <placeDownBlock+0x100>
				if (y0-j>1)
					matrix[x0+i][y0-j]=4;
	}
	// ak objekt je obdlznik _
	else if (cisloTvaru == 2){
		for(int i=0;i<24;i++)
 80050c4:	f8d7 3094 	ldr.w	r3, [r7, #148]	; 0x94
 80050c8:	3301      	adds	r3, #1
 80050ca:	f8c7 3094 	str.w	r3, [r7, #148]	; 0x94
 80050ce:	f8d7 3094 	ldr.w	r3, [r7, #148]	; 0x94
 80050d2:	2b17      	cmp	r3, #23
 80050d4:	ddd2      	ble.n	800507c <placeDownBlock+0xf8>
					if (j>5 && i<6)
						matrix[x0+i][y0-j]=9;
				}
			}
	}
}
 80050d6:	f000 bc76 	b.w	80059c6 <placeDownBlock+0xa42>
			for(int j=0;j<6;j++)
				if (y0-j>1)
					matrix[x0+i][y0-j]=4;
	}
	// ak objekt je Z
	else if (cisloTvaru == 3){
 80050da:	687b      	ldr	r3, [r7, #4]
 80050dc:	2b03      	cmp	r3, #3
 80050de:	d152      	bne.n	8005186 <placeDownBlock+0x202>
		for(int i=0;i<18;i++)
 80050e0:	2300      	movs	r3, #0
 80050e2:	f8c7 308c 	str.w	r3, [r7, #140]	; 0x8c
 80050e6:	e048      	b.n	800517a <placeDownBlock+0x1f6>
			for(int j=0;j<12;j++){
 80050e8:	2300      	movs	r3, #0
 80050ea:	f8c7 3088 	str.w	r3, [r7, #136]	; 0x88
 80050ee:	e03b      	b.n	8005168 <placeDownBlock+0x1e4>
				if (y0-j>1){
 80050f0:	f9b7 2008 	ldrsh.w	r2, [r7, #8]
 80050f4:	f8d7 3088 	ldr.w	r3, [r7, #136]	; 0x88
 80050f8:	1ad3      	subs	r3, r2, r3
 80050fa:	2b01      	cmp	r3, #1
 80050fc:	dd2f      	ble.n	800515e <placeDownBlock+0x1da>
					if (j<6 && i>5)
 80050fe:	f8d7 3088 	ldr.w	r3, [r7, #136]	; 0x88
 8005102:	2b05      	cmp	r3, #5
 8005104:	dc13      	bgt.n	800512e <placeDownBlock+0x1aa>
 8005106:	f8d7 308c 	ldr.w	r3, [r7, #140]	; 0x8c
 800510a:	2b05      	cmp	r3, #5
 800510c:	dd0f      	ble.n	800512e <placeDownBlock+0x1aa>
						matrix[x0+i][y0-j]=5;
 800510e:	f9b7 200a 	ldrsh.w	r2, [r7, #10]
 8005112:	f8d7 308c 	ldr.w	r3, [r7, #140]	; 0x8c
 8005116:	4413      	add	r3, r2
 8005118:	021b      	lsls	r3, r3, #8
 800511a:	68fa      	ldr	r2, [r7, #12]
 800511c:	4413      	add	r3, r2
 800511e:	f9b7 1008 	ldrsh.w	r1, [r7, #8]
 8005122:	f8d7 2088 	ldr.w	r2, [r7, #136]	; 0x88
 8005126:	1a8a      	subs	r2, r1, r2
 8005128:	2105      	movs	r1, #5
 800512a:	f823 1012 	strh.w	r1, [r3, r2, lsl #1]
					if (j>5 && i<12)
 800512e:	f8d7 3088 	ldr.w	r3, [r7, #136]	; 0x88
 8005132:	2b05      	cmp	r3, #5
 8005134:	dd13      	ble.n	800515e <placeDownBlock+0x1da>
 8005136:	f8d7 308c 	ldr.w	r3, [r7, #140]	; 0x8c
 800513a:	2b0b      	cmp	r3, #11
 800513c:	dc0f      	bgt.n	800515e <placeDownBlock+0x1da>
						matrix[x0+i][y0-j]=5;
 800513e:	f9b7 200a 	ldrsh.w	r2, [r7, #10]
 8005142:	f8d7 308c 	ldr.w	r3, [r7, #140]	; 0x8c
 8005146:	4413      	add	r3, r2
 8005148:	021b      	lsls	r3, r3, #8
 800514a:	68fa      	ldr	r2, [r7, #12]
 800514c:	4413      	add	r3, r2
 800514e:	f9b7 1008 	ldrsh.w	r1, [r7, #8]
 8005152:	f8d7 2088 	ldr.w	r2, [r7, #136]	; 0x88
 8005156:	1a8a      	subs	r2, r1, r2
 8005158:	2105      	movs	r1, #5
 800515a:	f823 1012 	strh.w	r1, [r3, r2, lsl #1]
					matrix[x0+i][y0-j]=4;
	}
	// ak objekt je Z
	else if (cisloTvaru == 3){
		for(int i=0;i<18;i++)
			for(int j=0;j<12;j++){
 800515e:	f8d7 3088 	ldr.w	r3, [r7, #136]	; 0x88
 8005162:	3301      	adds	r3, #1
 8005164:	f8c7 3088 	str.w	r3, [r7, #136]	; 0x88
 8005168:	f8d7 3088 	ldr.w	r3, [r7, #136]	; 0x88
 800516c:	2b0b      	cmp	r3, #11
 800516e:	ddbf      	ble.n	80050f0 <placeDownBlock+0x16c>
				if (y0-j>1)
					matrix[x0+i][y0-j]=4;
	}
	// ak objekt je Z
	else if (cisloTvaru == 3){
		for(int i=0;i<18;i++)
 8005170:	f8d7 308c 	ldr.w	r3, [r7, #140]	; 0x8c
 8005174:	3301      	adds	r3, #1
 8005176:	f8c7 308c 	str.w	r3, [r7, #140]	; 0x8c
 800517a:	f8d7 308c 	ldr.w	r3, [r7, #140]	; 0x8c
 800517e:	2b11      	cmp	r3, #17
 8005180:	ddb2      	ble.n	80050e8 <placeDownBlock+0x164>
					if (j>5 && i<6)
						matrix[x0+i][y0-j]=9;
				}
			}
	}
}
 8005182:	f000 bc20 	b.w	80059c6 <placeDownBlock+0xa42>

				}
			}
	}
	// ak objekt je N
	else if (cisloTvaru == 4){
 8005186:	687b      	ldr	r3, [r7, #4]
 8005188:	2b04      	cmp	r3, #4
 800518a:	d169      	bne.n	8005260 <placeDownBlock+0x2dc>
		for(int i=0;i<12;i++)
 800518c:	2300      	movs	r3, #0
 800518e:	f8c7 3084 	str.w	r3, [r7, #132]	; 0x84
 8005192:	e060      	b.n	8005256 <placeDownBlock+0x2d2>
			for(int j=0;j<18;j++){
 8005194:	2300      	movs	r3, #0
 8005196:	f8c7 3080 	str.w	r3, [r7, #128]	; 0x80
 800519a:	e053      	b.n	8005244 <placeDownBlock+0x2c0>
				if (y0-j>1){
 800519c:	f9b7 2008 	ldrsh.w	r2, [r7, #8]
 80051a0:	f8d7 3080 	ldr.w	r3, [r7, #128]	; 0x80
 80051a4:	1ad3      	subs	r3, r2, r3
 80051a6:	2b01      	cmp	r3, #1
 80051a8:	dd47      	ble.n	800523a <placeDownBlock+0x2b6>
					if (j>5 && i>5)
 80051aa:	f8d7 3080 	ldr.w	r3, [r7, #128]	; 0x80
 80051ae:	2b05      	cmp	r3, #5
 80051b0:	dd13      	ble.n	80051da <placeDownBlock+0x256>
 80051b2:	f8d7 3084 	ldr.w	r3, [r7, #132]	; 0x84
 80051b6:	2b05      	cmp	r3, #5
 80051b8:	dd0f      	ble.n	80051da <placeDownBlock+0x256>
						matrix[x0+i][y0-j]=5;
 80051ba:	f9b7 200a 	ldrsh.w	r2, [r7, #10]
 80051be:	f8d7 3084 	ldr.w	r3, [r7, #132]	; 0x84
 80051c2:	4413      	add	r3, r2
 80051c4:	021b      	lsls	r3, r3, #8
 80051c6:	68fa      	ldr	r2, [r7, #12]
 80051c8:	4413      	add	r3, r2
 80051ca:	f9b7 1008 	ldrsh.w	r1, [r7, #8]
 80051ce:	f8d7 2080 	ldr.w	r2, [r7, #128]	; 0x80
 80051d2:	1a8a      	subs	r2, r1, r2
 80051d4:	2105      	movs	r1, #5
 80051d6:	f823 1012 	strh.w	r1, [r3, r2, lsl #1]
					if (j>5 && j<12)
 80051da:	f8d7 3080 	ldr.w	r3, [r7, #128]	; 0x80
 80051de:	2b05      	cmp	r3, #5
 80051e0:	dd13      	ble.n	800520a <placeDownBlock+0x286>
 80051e2:	f8d7 3080 	ldr.w	r3, [r7, #128]	; 0x80
 80051e6:	2b0b      	cmp	r3, #11
 80051e8:	dc0f      	bgt.n	800520a <placeDownBlock+0x286>
						matrix[x0+i][y0-j]=5;
 80051ea:	f9b7 200a 	ldrsh.w	r2, [r7, #10]
 80051ee:	f8d7 3084 	ldr.w	r3, [r7, #132]	; 0x84
 80051f2:	4413      	add	r3, r2
 80051f4:	021b      	lsls	r3, r3, #8
 80051f6:	68fa      	ldr	r2, [r7, #12]
 80051f8:	4413      	add	r3, r2
 80051fa:	f9b7 1008 	ldrsh.w	r1, [r7, #8]
 80051fe:	f8d7 2080 	ldr.w	r2, [r7, #128]	; 0x80
 8005202:	1a8a      	subs	r2, r1, r2
 8005204:	2105      	movs	r1, #5
 8005206:	f823 1012 	strh.w	r1, [r3, r2, lsl #1]
					if (j<12 && i<6)
 800520a:	f8d7 3080 	ldr.w	r3, [r7, #128]	; 0x80
 800520e:	2b0b      	cmp	r3, #11
 8005210:	dc13      	bgt.n	800523a <placeDownBlock+0x2b6>
 8005212:	f8d7 3084 	ldr.w	r3, [r7, #132]	; 0x84
 8005216:	2b05      	cmp	r3, #5
 8005218:	dc0f      	bgt.n	800523a <placeDownBlock+0x2b6>
						matrix[x0+i][y0-j]=5;
 800521a:	f9b7 200a 	ldrsh.w	r2, [r7, #10]
 800521e:	f8d7 3084 	ldr.w	r3, [r7, #132]	; 0x84
 8005222:	4413      	add	r3, r2
 8005224:	021b      	lsls	r3, r3, #8
 8005226:	68fa      	ldr	r2, [r7, #12]
 8005228:	4413      	add	r3, r2
 800522a:	f9b7 1008 	ldrsh.w	r1, [r7, #8]
 800522e:	f8d7 2080 	ldr.w	r2, [r7, #128]	; 0x80
 8005232:	1a8a      	subs	r2, r1, r2
 8005234:	2105      	movs	r1, #5
 8005236:	f823 1012 	strh.w	r1, [r3, r2, lsl #1]
			}
	}
	// ak objekt je N
	else if (cisloTvaru == 4){
		for(int i=0;i<12;i++)
			for(int j=0;j<18;j++){
 800523a:	f8d7 3080 	ldr.w	r3, [r7, #128]	; 0x80
 800523e:	3301      	adds	r3, #1
 8005240:	f8c7 3080 	str.w	r3, [r7, #128]	; 0x80
 8005244:	f8d7 3080 	ldr.w	r3, [r7, #128]	; 0x80
 8005248:	2b11      	cmp	r3, #17
 800524a:	dda7      	ble.n	800519c <placeDownBlock+0x218>
				}
			}
	}
	// ak objekt je N
	else if (cisloTvaru == 4){
		for(int i=0;i<12;i++)
 800524c:	f8d7 3084 	ldr.w	r3, [r7, #132]	; 0x84
 8005250:	3301      	adds	r3, #1
 8005252:	f8c7 3084 	str.w	r3, [r7, #132]	; 0x84
 8005256:	f8d7 3084 	ldr.w	r3, [r7, #132]	; 0x84
 800525a:	2b0b      	cmp	r3, #11
 800525c:	dd9a      	ble.n	8005194 <placeDownBlock+0x210>
					if (j>5 && i<6)
						matrix[x0+i][y0-j]=9;
				}
			}
	}
}
 800525e:	e3b2      	b.n	80059c6 <placeDownBlock+0xa42>
						matrix[x0+i][y0-j]=5;
				}
			}
	}
	// ak objekt je opan Z
	else if (cisloTvaru == 5){
 8005260:	687b      	ldr	r3, [r7, #4]
 8005262:	2b05      	cmp	r3, #5
 8005264:	d140      	bne.n	80052e8 <placeDownBlock+0x364>
		for(int i=0;i<18;i++)
 8005266:	2300      	movs	r3, #0
 8005268:	67fb      	str	r3, [r7, #124]	; 0x7c
 800526a:	e039      	b.n	80052e0 <placeDownBlock+0x35c>
			for(int j=0;j<12;j++){
 800526c:	2300      	movs	r3, #0
 800526e:	67bb      	str	r3, [r7, #120]	; 0x78
 8005270:	e030      	b.n	80052d4 <placeDownBlock+0x350>
				if (y0-j>1){
 8005272:	f9b7 2008 	ldrsh.w	r2, [r7, #8]
 8005276:	6fbb      	ldr	r3, [r7, #120]	; 0x78
 8005278:	1ad3      	subs	r3, r2, r3
 800527a:	2b01      	cmp	r3, #1
 800527c:	dd27      	ble.n	80052ce <placeDownBlock+0x34a>
					if (j>5 && i>5)
 800527e:	6fbb      	ldr	r3, [r7, #120]	; 0x78
 8005280:	2b05      	cmp	r3, #5
 8005282:	dd10      	ble.n	80052a6 <placeDownBlock+0x322>
 8005284:	6ffb      	ldr	r3, [r7, #124]	; 0x7c
 8005286:	2b05      	cmp	r3, #5
 8005288:	dd0d      	ble.n	80052a6 <placeDownBlock+0x322>
						matrix[x0+i][y0-j]=6;
 800528a:	f9b7 200a 	ldrsh.w	r2, [r7, #10]
 800528e:	6ffb      	ldr	r3, [r7, #124]	; 0x7c
 8005290:	4413      	add	r3, r2
 8005292:	021b      	lsls	r3, r3, #8
 8005294:	68fa      	ldr	r2, [r7, #12]
 8005296:	4413      	add	r3, r2
 8005298:	f9b7 1008 	ldrsh.w	r1, [r7, #8]
 800529c:	6fba      	ldr	r2, [r7, #120]	; 0x78
 800529e:	1a8a      	subs	r2, r1, r2
 80052a0:	2106      	movs	r1, #6
 80052a2:	f823 1012 	strh.w	r1, [r3, r2, lsl #1]
					if (j<6 && i<12)
 80052a6:	6fbb      	ldr	r3, [r7, #120]	; 0x78
 80052a8:	2b05      	cmp	r3, #5
 80052aa:	dc10      	bgt.n	80052ce <placeDownBlock+0x34a>
 80052ac:	6ffb      	ldr	r3, [r7, #124]	; 0x7c
 80052ae:	2b0b      	cmp	r3, #11
 80052b0:	dc0d      	bgt.n	80052ce <placeDownBlock+0x34a>
						matrix[x0+i][y0-j]=6;
 80052b2:	f9b7 200a 	ldrsh.w	r2, [r7, #10]
 80052b6:	6ffb      	ldr	r3, [r7, #124]	; 0x7c
 80052b8:	4413      	add	r3, r2
 80052ba:	021b      	lsls	r3, r3, #8
 80052bc:	68fa      	ldr	r2, [r7, #12]
 80052be:	4413      	add	r3, r2
 80052c0:	f9b7 1008 	ldrsh.w	r1, [r7, #8]
 80052c4:	6fba      	ldr	r2, [r7, #120]	; 0x78
 80052c6:	1a8a      	subs	r2, r1, r2
 80052c8:	2106      	movs	r1, #6
 80052ca:	f823 1012 	strh.w	r1, [r3, r2, lsl #1]
			}
	}
	// ak objekt je opan Z
	else if (cisloTvaru == 5){
		for(int i=0;i<18;i++)
			for(int j=0;j<12;j++){
 80052ce:	6fbb      	ldr	r3, [r7, #120]	; 0x78
 80052d0:	3301      	adds	r3, #1
 80052d2:	67bb      	str	r3, [r7, #120]	; 0x78
 80052d4:	6fbb      	ldr	r3, [r7, #120]	; 0x78
 80052d6:	2b0b      	cmp	r3, #11
 80052d8:	ddcb      	ble.n	8005272 <placeDownBlock+0x2ee>
				}
			}
	}
	// ak objekt je opan Z
	else if (cisloTvaru == 5){
		for(int i=0;i<18;i++)
 80052da:	6ffb      	ldr	r3, [r7, #124]	; 0x7c
 80052dc:	3301      	adds	r3, #1
 80052de:	67fb      	str	r3, [r7, #124]	; 0x7c
 80052e0:	6ffb      	ldr	r3, [r7, #124]	; 0x7c
 80052e2:	2b11      	cmp	r3, #17
 80052e4:	ddc2      	ble.n	800526c <placeDownBlock+0x2e8>
					if (j>5 && i<6)
						matrix[x0+i][y0-j]=9;
				}
			}
	}
}
 80052e6:	e36e      	b.n	80059c6 <placeDownBlock+0xa42>
						matrix[x0+i][y0-j]=6;
				}
			}
	}
	// ak objekt je opacny N
	else if (cisloTvaru == 6){
 80052e8:	687b      	ldr	r3, [r7, #4]
 80052ea:	2b06      	cmp	r3, #6
 80052ec:	d154      	bne.n	8005398 <placeDownBlock+0x414>
		for(int i=0;i<12;i++)
 80052ee:	2300      	movs	r3, #0
 80052f0:	677b      	str	r3, [r7, #116]	; 0x74
 80052f2:	e04d      	b.n	8005390 <placeDownBlock+0x40c>
			for(int j=0;j<18;j++){
 80052f4:	2300      	movs	r3, #0
 80052f6:	673b      	str	r3, [r7, #112]	; 0x70
 80052f8:	e044      	b.n	8005384 <placeDownBlock+0x400>
				if (y0-j>1){
 80052fa:	f9b7 2008 	ldrsh.w	r2, [r7, #8]
 80052fe:	6f3b      	ldr	r3, [r7, #112]	; 0x70
 8005300:	1ad3      	subs	r3, r2, r3
 8005302:	2b01      	cmp	r3, #1
 8005304:	dd3b      	ble.n	800537e <placeDownBlock+0x3fa>
					if (j>5 && i<6)
 8005306:	6f3b      	ldr	r3, [r7, #112]	; 0x70
 8005308:	2b05      	cmp	r3, #5
 800530a:	dd10      	ble.n	800532e <placeDownBlock+0x3aa>
 800530c:	6f7b      	ldr	r3, [r7, #116]	; 0x74
 800530e:	2b05      	cmp	r3, #5
 8005310:	dc0d      	bgt.n	800532e <placeDownBlock+0x3aa>
						matrix[x0+i][y0-j]=6;
 8005312:	f9b7 200a 	ldrsh.w	r2, [r7, #10]
 8005316:	6f7b      	ldr	r3, [r7, #116]	; 0x74
 8005318:	4413      	add	r3, r2
 800531a:	021b      	lsls	r3, r3, #8
 800531c:	68fa      	ldr	r2, [r7, #12]
 800531e:	4413      	add	r3, r2
 8005320:	f9b7 1008 	ldrsh.w	r1, [r7, #8]
 8005324:	6f3a      	ldr	r2, [r7, #112]	; 0x70
 8005326:	1a8a      	subs	r2, r1, r2
 8005328:	2106      	movs	r1, #6
 800532a:	f823 1012 	strh.w	r1, [r3, r2, lsl #1]
					if (j>5 && j<12)
 800532e:	6f3b      	ldr	r3, [r7, #112]	; 0x70
 8005330:	2b05      	cmp	r3, #5
 8005332:	dd10      	ble.n	8005356 <placeDownBlock+0x3d2>
 8005334:	6f3b      	ldr	r3, [r7, #112]	; 0x70
 8005336:	2b0b      	cmp	r3, #11
 8005338:	dc0d      	bgt.n	8005356 <placeDownBlock+0x3d2>
						matrix[x0+i][y0-j]=6;
 800533a:	f9b7 200a 	ldrsh.w	r2, [r7, #10]
 800533e:	6f7b      	ldr	r3, [r7, #116]	; 0x74
 8005340:	4413      	add	r3, r2
 8005342:	021b      	lsls	r3, r3, #8
 8005344:	68fa      	ldr	r2, [r7, #12]
 8005346:	4413      	add	r3, r2
 8005348:	f9b7 1008 	ldrsh.w	r1, [r7, #8]
 800534c:	6f3a      	ldr	r2, [r7, #112]	; 0x70
 800534e:	1a8a      	subs	r2, r1, r2
 8005350:	2106      	movs	r1, #6
 8005352:	f823 1012 	strh.w	r1, [r3, r2, lsl #1]
					if (j<12 && i>5)
 8005356:	6f3b      	ldr	r3, [r7, #112]	; 0x70
 8005358:	2b0b      	cmp	r3, #11
 800535a:	dc10      	bgt.n	800537e <placeDownBlock+0x3fa>
 800535c:	6f7b      	ldr	r3, [r7, #116]	; 0x74
 800535e:	2b05      	cmp	r3, #5
 8005360:	dd0d      	ble.n	800537e <placeDownBlock+0x3fa>
						matrix[x0+i][y0-j]=6;
 8005362:	f9b7 200a 	ldrsh.w	r2, [r7, #10]
 8005366:	6f7b      	ldr	r3, [r7, #116]	; 0x74
 8005368:	4413      	add	r3, r2
 800536a:	021b      	lsls	r3, r3, #8
 800536c:	68fa      	ldr	r2, [r7, #12]
 800536e:	4413      	add	r3, r2
 8005370:	f9b7 1008 	ldrsh.w	r1, [r7, #8]
 8005374:	6f3a      	ldr	r2, [r7, #112]	; 0x70
 8005376:	1a8a      	subs	r2, r1, r2
 8005378:	2106      	movs	r1, #6
 800537a:	f823 1012 	strh.w	r1, [r3, r2, lsl #1]
			}
	}
	// ak objekt je opacny N
	else if (cisloTvaru == 6){
		for(int i=0;i<12;i++)
			for(int j=0;j<18;j++){
 800537e:	6f3b      	ldr	r3, [r7, #112]	; 0x70
 8005380:	3301      	adds	r3, #1
 8005382:	673b      	str	r3, [r7, #112]	; 0x70
 8005384:	6f3b      	ldr	r3, [r7, #112]	; 0x70
 8005386:	2b11      	cmp	r3, #17
 8005388:	ddb7      	ble.n	80052fa <placeDownBlock+0x376>
				}
			}
	}
	// ak objekt je opacny N
	else if (cisloTvaru == 6){
		for(int i=0;i<12;i++)
 800538a:	6f7b      	ldr	r3, [r7, #116]	; 0x74
 800538c:	3301      	adds	r3, #1
 800538e:	677b      	str	r3, [r7, #116]	; 0x74
 8005390:	6f7b      	ldr	r3, [r7, #116]	; 0x74
 8005392:	2b0b      	cmp	r3, #11
 8005394:	ddae      	ble.n	80052f4 <placeDownBlock+0x370>
					if (j>5 && i<6)
						matrix[x0+i][y0-j]=9;
				}
			}
	}
}
 8005396:	e316      	b.n	80059c6 <placeDownBlock+0xa42>
						matrix[x0+i][y0-j]=6;
				}
			}
	}
	// ak objekt je L
	else if (cisloTvaru == 7){
 8005398:	687b      	ldr	r3, [r7, #4]
 800539a:	2b07      	cmp	r3, #7
 800539c:	d13d      	bne.n	800541a <placeDownBlock+0x496>
		for(int i=0;i<12;i++)
 800539e:	2300      	movs	r3, #0
 80053a0:	66fb      	str	r3, [r7, #108]	; 0x6c
 80053a2:	e036      	b.n	8005412 <placeDownBlock+0x48e>
			for(int j=0;j<18;j++){
 80053a4:	2300      	movs	r3, #0
 80053a6:	66bb      	str	r3, [r7, #104]	; 0x68
 80053a8:	e02d      	b.n	8005406 <placeDownBlock+0x482>
				if (y0-j>1){
 80053aa:	f9b7 2008 	ldrsh.w	r2, [r7, #8]
 80053ae:	6ebb      	ldr	r3, [r7, #104]	; 0x68
 80053b0:	1ad3      	subs	r3, r2, r3
 80053b2:	2b01      	cmp	r3, #1
 80053b4:	dd24      	ble.n	8005400 <placeDownBlock+0x47c>
					if (j>5 && i<6)
 80053b6:	6ebb      	ldr	r3, [r7, #104]	; 0x68
 80053b8:	2b05      	cmp	r3, #5
 80053ba:	dd10      	ble.n	80053de <placeDownBlock+0x45a>
 80053bc:	6efb      	ldr	r3, [r7, #108]	; 0x6c
 80053be:	2b05      	cmp	r3, #5
 80053c0:	dc0d      	bgt.n	80053de <placeDownBlock+0x45a>
						matrix[x0+i][y0-j]=7;
 80053c2:	f9b7 200a 	ldrsh.w	r2, [r7, #10]
 80053c6:	6efb      	ldr	r3, [r7, #108]	; 0x6c
 80053c8:	4413      	add	r3, r2
 80053ca:	021b      	lsls	r3, r3, #8
 80053cc:	68fa      	ldr	r2, [r7, #12]
 80053ce:	4413      	add	r3, r2
 80053d0:	f9b7 1008 	ldrsh.w	r1, [r7, #8]
 80053d4:	6eba      	ldr	r2, [r7, #104]	; 0x68
 80053d6:	1a8a      	subs	r2, r1, r2
 80053d8:	2107      	movs	r1, #7
 80053da:	f823 1012 	strh.w	r1, [r3, r2, lsl #1]
					if (j<6)
 80053de:	6ebb      	ldr	r3, [r7, #104]	; 0x68
 80053e0:	2b05      	cmp	r3, #5
 80053e2:	dc0d      	bgt.n	8005400 <placeDownBlock+0x47c>
						matrix[x0+i][y0-j]=7;
 80053e4:	f9b7 200a 	ldrsh.w	r2, [r7, #10]
 80053e8:	6efb      	ldr	r3, [r7, #108]	; 0x6c
 80053ea:	4413      	add	r3, r2
 80053ec:	021b      	lsls	r3, r3, #8
 80053ee:	68fa      	ldr	r2, [r7, #12]
 80053f0:	4413      	add	r3, r2
 80053f2:	f9b7 1008 	ldrsh.w	r1, [r7, #8]
 80053f6:	6eba      	ldr	r2, [r7, #104]	; 0x68
 80053f8:	1a8a      	subs	r2, r1, r2
 80053fa:	2107      	movs	r1, #7
 80053fc:	f823 1012 	strh.w	r1, [r3, r2, lsl #1]
			}
	}
	// ak objekt je L
	else if (cisloTvaru == 7){
		for(int i=0;i<12;i++)
			for(int j=0;j<18;j++){
 8005400:	6ebb      	ldr	r3, [r7, #104]	; 0x68
 8005402:	3301      	adds	r3, #1
 8005404:	66bb      	str	r3, [r7, #104]	; 0x68
 8005406:	6ebb      	ldr	r3, [r7, #104]	; 0x68
 8005408:	2b11      	cmp	r3, #17
 800540a:	ddce      	ble.n	80053aa <placeDownBlock+0x426>
				}
			}
	}
	// ak objekt je L
	else if (cisloTvaru == 7){
		for(int i=0;i<12;i++)
 800540c:	6efb      	ldr	r3, [r7, #108]	; 0x6c
 800540e:	3301      	adds	r3, #1
 8005410:	66fb      	str	r3, [r7, #108]	; 0x6c
 8005412:	6efb      	ldr	r3, [r7, #108]	; 0x6c
 8005414:	2b0b      	cmp	r3, #11
 8005416:	ddc5      	ble.n	80053a4 <placeDownBlock+0x420>
					if (j>5 && i<6)
						matrix[x0+i][y0-j]=9;
				}
			}
	}
}
 8005418:	e2d5      	b.n	80059c6 <placeDownBlock+0xa42>
						matrix[x0+i][y0-j]=7;
				}
			}
	}
	// ak objekt je _.
	else if (cisloTvaru == 8){
 800541a:	687b      	ldr	r3, [r7, #4]
 800541c:	2b08      	cmp	r3, #8
 800541e:	d13d      	bne.n	800549c <placeDownBlock+0x518>
		for(int i=0;i<18;i++)
 8005420:	2300      	movs	r3, #0
 8005422:	667b      	str	r3, [r7, #100]	; 0x64
 8005424:	e036      	b.n	8005494 <placeDownBlock+0x510>
			for(int j=0;j<12;j++){
 8005426:	2300      	movs	r3, #0
 8005428:	663b      	str	r3, [r7, #96]	; 0x60
 800542a:	e02d      	b.n	8005488 <placeDownBlock+0x504>
				if (y0-j>1){
 800542c:	f9b7 2008 	ldrsh.w	r2, [r7, #8]
 8005430:	6e3b      	ldr	r3, [r7, #96]	; 0x60
 8005432:	1ad3      	subs	r3, r2, r3
 8005434:	2b01      	cmp	r3, #1
 8005436:	dd24      	ble.n	8005482 <placeDownBlock+0x4fe>
					if (j<6)
 8005438:	6e3b      	ldr	r3, [r7, #96]	; 0x60
 800543a:	2b05      	cmp	r3, #5
 800543c:	dc0d      	bgt.n	800545a <placeDownBlock+0x4d6>
						matrix[x0+i][y0-j]=7;
 800543e:	f9b7 200a 	ldrsh.w	r2, [r7, #10]
 8005442:	6e7b      	ldr	r3, [r7, #100]	; 0x64
 8005444:	4413      	add	r3, r2
 8005446:	021b      	lsls	r3, r3, #8
 8005448:	68fa      	ldr	r2, [r7, #12]
 800544a:	4413      	add	r3, r2
 800544c:	f9b7 1008 	ldrsh.w	r1, [r7, #8]
 8005450:	6e3a      	ldr	r2, [r7, #96]	; 0x60
 8005452:	1a8a      	subs	r2, r1, r2
 8005454:	2107      	movs	r1, #7
 8005456:	f823 1012 	strh.w	r1, [r3, r2, lsl #1]
					if (j>5 && i>11)
 800545a:	6e3b      	ldr	r3, [r7, #96]	; 0x60
 800545c:	2b05      	cmp	r3, #5
 800545e:	dd10      	ble.n	8005482 <placeDownBlock+0x4fe>
 8005460:	6e7b      	ldr	r3, [r7, #100]	; 0x64
 8005462:	2b0b      	cmp	r3, #11
 8005464:	dd0d      	ble.n	8005482 <placeDownBlock+0x4fe>
						matrix[x0+i][y0-j]=7;
 8005466:	f9b7 200a 	ldrsh.w	r2, [r7, #10]
 800546a:	6e7b      	ldr	r3, [r7, #100]	; 0x64
 800546c:	4413      	add	r3, r2
 800546e:	021b      	lsls	r3, r3, #8
 8005470:	68fa      	ldr	r2, [r7, #12]
 8005472:	4413      	add	r3, r2
 8005474:	f9b7 1008 	ldrsh.w	r1, [r7, #8]
 8005478:	6e3a      	ldr	r2, [r7, #96]	; 0x60
 800547a:	1a8a      	subs	r2, r1, r2
 800547c:	2107      	movs	r1, #7
 800547e:	f823 1012 	strh.w	r1, [r3, r2, lsl #1]
			}
	}
	// ak objekt je _.
	else if (cisloTvaru == 8){
		for(int i=0;i<18;i++)
			for(int j=0;j<12;j++){
 8005482:	6e3b      	ldr	r3, [r7, #96]	; 0x60
 8005484:	3301      	adds	r3, #1
 8005486:	663b      	str	r3, [r7, #96]	; 0x60
 8005488:	6e3b      	ldr	r3, [r7, #96]	; 0x60
 800548a:	2b0b      	cmp	r3, #11
 800548c:	ddce      	ble.n	800542c <placeDownBlock+0x4a8>
				}
			}
	}
	// ak objekt je _.
	else if (cisloTvaru == 8){
		for(int i=0;i<18;i++)
 800548e:	6e7b      	ldr	r3, [r7, #100]	; 0x64
 8005490:	3301      	adds	r3, #1
 8005492:	667b      	str	r3, [r7, #100]	; 0x64
 8005494:	6e7b      	ldr	r3, [r7, #100]	; 0x64
 8005496:	2b11      	cmp	r3, #17
 8005498:	ddc5      	ble.n	8005426 <placeDownBlock+0x4a2>
					if (j>5 && i<6)
						matrix[x0+i][y0-j]=9;
				}
			}
	}
}
 800549a:	e294      	b.n	80059c6 <placeDownBlock+0xa42>
						matrix[x0+i][y0-j]=7;
				}
			}
	}
	// ak objekt je '|
	else if (cisloTvaru == 9){
 800549c:	687b      	ldr	r3, [r7, #4]
 800549e:	2b09      	cmp	r3, #9
 80054a0:	d13d      	bne.n	800551e <placeDownBlock+0x59a>
		for(int i=0;i<12;i++)
 80054a2:	2300      	movs	r3, #0
 80054a4:	65fb      	str	r3, [r7, #92]	; 0x5c
 80054a6:	e036      	b.n	8005516 <placeDownBlock+0x592>
			for(int j=0;j<18;j++){
 80054a8:	2300      	movs	r3, #0
 80054aa:	65bb      	str	r3, [r7, #88]	; 0x58
 80054ac:	e02d      	b.n	800550a <placeDownBlock+0x586>
				if (y0-j>1){
 80054ae:	f9b7 2008 	ldrsh.w	r2, [r7, #8]
 80054b2:	6dbb      	ldr	r3, [r7, #88]	; 0x58
 80054b4:	1ad3      	subs	r3, r2, r3
 80054b6:	2b01      	cmp	r3, #1
 80054b8:	dd24      	ble.n	8005504 <placeDownBlock+0x580>
					if (j<12 && i>5)
 80054ba:	6dbb      	ldr	r3, [r7, #88]	; 0x58
 80054bc:	2b0b      	cmp	r3, #11
 80054be:	dc10      	bgt.n	80054e2 <placeDownBlock+0x55e>
 80054c0:	6dfb      	ldr	r3, [r7, #92]	; 0x5c
 80054c2:	2b05      	cmp	r3, #5
 80054c4:	dd0d      	ble.n	80054e2 <placeDownBlock+0x55e>
						matrix[x0+i][y0-j]=7;
 80054c6:	f9b7 200a 	ldrsh.w	r2, [r7, #10]
 80054ca:	6dfb      	ldr	r3, [r7, #92]	; 0x5c
 80054cc:	4413      	add	r3, r2
 80054ce:	021b      	lsls	r3, r3, #8
 80054d0:	68fa      	ldr	r2, [r7, #12]
 80054d2:	4413      	add	r3, r2
 80054d4:	f9b7 1008 	ldrsh.w	r1, [r7, #8]
 80054d8:	6dba      	ldr	r2, [r7, #88]	; 0x58
 80054da:	1a8a      	subs	r2, r1, r2
 80054dc:	2107      	movs	r1, #7
 80054de:	f823 1012 	strh.w	r1, [r3, r2, lsl #1]
					if (j>11)
 80054e2:	6dbb      	ldr	r3, [r7, #88]	; 0x58
 80054e4:	2b0b      	cmp	r3, #11
 80054e6:	dd0d      	ble.n	8005504 <placeDownBlock+0x580>
						matrix[x0+i][y0-j]=7;
 80054e8:	f9b7 200a 	ldrsh.w	r2, [r7, #10]
 80054ec:	6dfb      	ldr	r3, [r7, #92]	; 0x5c
 80054ee:	4413      	add	r3, r2
 80054f0:	021b      	lsls	r3, r3, #8
 80054f2:	68fa      	ldr	r2, [r7, #12]
 80054f4:	4413      	add	r3, r2
 80054f6:	f9b7 1008 	ldrsh.w	r1, [r7, #8]
 80054fa:	6dba      	ldr	r2, [r7, #88]	; 0x58
 80054fc:	1a8a      	subs	r2, r1, r2
 80054fe:	2107      	movs	r1, #7
 8005500:	f823 1012 	strh.w	r1, [r3, r2, lsl #1]
			}
	}
	// ak objekt je '|
	else if (cisloTvaru == 9){
		for(int i=0;i<12;i++)
			for(int j=0;j<18;j++){
 8005504:	6dbb      	ldr	r3, [r7, #88]	; 0x58
 8005506:	3301      	adds	r3, #1
 8005508:	65bb      	str	r3, [r7, #88]	; 0x58
 800550a:	6dbb      	ldr	r3, [r7, #88]	; 0x58
 800550c:	2b11      	cmp	r3, #17
 800550e:	ddce      	ble.n	80054ae <placeDownBlock+0x52a>
				}
			}
	}
	// ak objekt je '|
	else if (cisloTvaru == 9){
		for(int i=0;i<12;i++)
 8005510:	6dfb      	ldr	r3, [r7, #92]	; 0x5c
 8005512:	3301      	adds	r3, #1
 8005514:	65fb      	str	r3, [r7, #92]	; 0x5c
 8005516:	6dfb      	ldr	r3, [r7, #92]	; 0x5c
 8005518:	2b0b      	cmp	r3, #11
 800551a:	ddc5      	ble.n	80054a8 <placeDownBlock+0x524>
					if (j>5 && i<6)
						matrix[x0+i][y0-j]=9;
				}
			}
	}
}
 800551c:	e253      	b.n	80059c6 <placeDownBlock+0xa42>
						matrix[x0+i][y0-j]=7;
				}
			}
	}
	// ak objekt je ,..
	else if (cisloTvaru == 10){
 800551e:	687b      	ldr	r3, [r7, #4]
 8005520:	2b0a      	cmp	r3, #10
 8005522:	d13d      	bne.n	80055a0 <placeDownBlock+0x61c>
		for(int i=0;i<18;i++)
 8005524:	2300      	movs	r3, #0
 8005526:	657b      	str	r3, [r7, #84]	; 0x54
 8005528:	e036      	b.n	8005598 <placeDownBlock+0x614>
			for(int j=0;j<12;j++){
 800552a:	2300      	movs	r3, #0
 800552c:	653b      	str	r3, [r7, #80]	; 0x50
 800552e:	e02d      	b.n	800558c <placeDownBlock+0x608>
				if (y0-j>1){
 8005530:	f9b7 2008 	ldrsh.w	r2, [r7, #8]
 8005534:	6d3b      	ldr	r3, [r7, #80]	; 0x50
 8005536:	1ad3      	subs	r3, r2, r3
 8005538:	2b01      	cmp	r3, #1
 800553a:	dd24      	ble.n	8005586 <placeDownBlock+0x602>
					if (j<6 && i<6)
 800553c:	6d3b      	ldr	r3, [r7, #80]	; 0x50
 800553e:	2b05      	cmp	r3, #5
 8005540:	dc10      	bgt.n	8005564 <placeDownBlock+0x5e0>
 8005542:	6d7b      	ldr	r3, [r7, #84]	; 0x54
 8005544:	2b05      	cmp	r3, #5
 8005546:	dc0d      	bgt.n	8005564 <placeDownBlock+0x5e0>
						matrix[x0+i][y0-j]=7;
 8005548:	f9b7 200a 	ldrsh.w	r2, [r7, #10]
 800554c:	6d7b      	ldr	r3, [r7, #84]	; 0x54
 800554e:	4413      	add	r3, r2
 8005550:	021b      	lsls	r3, r3, #8
 8005552:	68fa      	ldr	r2, [r7, #12]
 8005554:	4413      	add	r3, r2
 8005556:	f9b7 1008 	ldrsh.w	r1, [r7, #8]
 800555a:	6d3a      	ldr	r2, [r7, #80]	; 0x50
 800555c:	1a8a      	subs	r2, r1, r2
 800555e:	2107      	movs	r1, #7
 8005560:	f823 1012 	strh.w	r1, [r3, r2, lsl #1]
					if (j>5)
 8005564:	6d3b      	ldr	r3, [r7, #80]	; 0x50
 8005566:	2b05      	cmp	r3, #5
 8005568:	dd0d      	ble.n	8005586 <placeDownBlock+0x602>
						matrix[x0+i][y0-j]=7;
 800556a:	f9b7 200a 	ldrsh.w	r2, [r7, #10]
 800556e:	6d7b      	ldr	r3, [r7, #84]	; 0x54
 8005570:	4413      	add	r3, r2
 8005572:	021b      	lsls	r3, r3, #8
 8005574:	68fa      	ldr	r2, [r7, #12]
 8005576:	4413      	add	r3, r2
 8005578:	f9b7 1008 	ldrsh.w	r1, [r7, #8]
 800557c:	6d3a      	ldr	r2, [r7, #80]	; 0x50
 800557e:	1a8a      	subs	r2, r1, r2
 8005580:	2107      	movs	r1, #7
 8005582:	f823 1012 	strh.w	r1, [r3, r2, lsl #1]
			}
	}
	// ak objekt je ,..
	else if (cisloTvaru == 10){
		for(int i=0;i<18;i++)
			for(int j=0;j<12;j++){
 8005586:	6d3b      	ldr	r3, [r7, #80]	; 0x50
 8005588:	3301      	adds	r3, #1
 800558a:	653b      	str	r3, [r7, #80]	; 0x50
 800558c:	6d3b      	ldr	r3, [r7, #80]	; 0x50
 800558e:	2b0b      	cmp	r3, #11
 8005590:	ddce      	ble.n	8005530 <placeDownBlock+0x5ac>
				}
			}
	}
	// ak objekt je ,..
	else if (cisloTvaru == 10){
		for(int i=0;i<18;i++)
 8005592:	6d7b      	ldr	r3, [r7, #84]	; 0x54
 8005594:	3301      	adds	r3, #1
 8005596:	657b      	str	r3, [r7, #84]	; 0x54
 8005598:	6d7b      	ldr	r3, [r7, #84]	; 0x54
 800559a:	2b11      	cmp	r3, #17
 800559c:	ddc5      	ble.n	800552a <placeDownBlock+0x5a6>
					if (j>5 && i<6)
						matrix[x0+i][y0-j]=9;
				}
			}
	}
}
 800559e:	e212      	b.n	80059c6 <placeDownBlock+0xa42>
						matrix[x0+i][y0-j]=7;
				}
			}
	}
	// ak objekt je _._
	else if (cisloTvaru == 11){
 80055a0:	687b      	ldr	r3, [r7, #4]
 80055a2:	2b0b      	cmp	r3, #11
 80055a4:	d140      	bne.n	8005628 <placeDownBlock+0x6a4>
		for(int i=0;i<18;i++)
 80055a6:	2300      	movs	r3, #0
 80055a8:	64fb      	str	r3, [r7, #76]	; 0x4c
 80055aa:	e039      	b.n	8005620 <placeDownBlock+0x69c>
			for(int j=0;j<12;j++){
 80055ac:	2300      	movs	r3, #0
 80055ae:	64bb      	str	r3, [r7, #72]	; 0x48
 80055b0:	e030      	b.n	8005614 <placeDownBlock+0x690>
				if (y0-j>1){
 80055b2:	f9b7 2008 	ldrsh.w	r2, [r7, #8]
 80055b6:	6cbb      	ldr	r3, [r7, #72]	; 0x48
 80055b8:	1ad3      	subs	r3, r2, r3
 80055ba:	2b01      	cmp	r3, #1
 80055bc:	dd27      	ble.n	800560e <placeDownBlock+0x68a>
					if (j<6)
 80055be:	6cbb      	ldr	r3, [r7, #72]	; 0x48
 80055c0:	2b05      	cmp	r3, #5
 80055c2:	dc0d      	bgt.n	80055e0 <placeDownBlock+0x65c>
						matrix[x0+i][y0-j]=8;
 80055c4:	f9b7 200a 	ldrsh.w	r2, [r7, #10]
 80055c8:	6cfb      	ldr	r3, [r7, #76]	; 0x4c
 80055ca:	4413      	add	r3, r2
 80055cc:	021b      	lsls	r3, r3, #8
 80055ce:	68fa      	ldr	r2, [r7, #12]
 80055d0:	4413      	add	r3, r2
 80055d2:	f9b7 1008 	ldrsh.w	r1, [r7, #8]
 80055d6:	6cba      	ldr	r2, [r7, #72]	; 0x48
 80055d8:	1a8a      	subs	r2, r1, r2
 80055da:	2108      	movs	r1, #8
 80055dc:	f823 1012 	strh.w	r1, [r3, r2, lsl #1]
					if (j>5 && (i>5 && i<12))
 80055e0:	6cbb      	ldr	r3, [r7, #72]	; 0x48
 80055e2:	2b05      	cmp	r3, #5
 80055e4:	dd13      	ble.n	800560e <placeDownBlock+0x68a>
 80055e6:	6cfb      	ldr	r3, [r7, #76]	; 0x4c
 80055e8:	2b05      	cmp	r3, #5
 80055ea:	dd10      	ble.n	800560e <placeDownBlock+0x68a>
 80055ec:	6cfb      	ldr	r3, [r7, #76]	; 0x4c
 80055ee:	2b0b      	cmp	r3, #11
 80055f0:	dc0d      	bgt.n	800560e <placeDownBlock+0x68a>
						matrix[x0+i][y0-j]=8;
 80055f2:	f9b7 200a 	ldrsh.w	r2, [r7, #10]
 80055f6:	6cfb      	ldr	r3, [r7, #76]	; 0x4c
 80055f8:	4413      	add	r3, r2
 80055fa:	021b      	lsls	r3, r3, #8
 80055fc:	68fa      	ldr	r2, [r7, #12]
 80055fe:	4413      	add	r3, r2
 8005600:	f9b7 1008 	ldrsh.w	r1, [r7, #8]
 8005604:	6cba      	ldr	r2, [r7, #72]	; 0x48
 8005606:	1a8a      	subs	r2, r1, r2
 8005608:	2108      	movs	r1, #8
 800560a:	f823 1012 	strh.w	r1, [r3, r2, lsl #1]
			}
	}
	// ak objekt je _._
	else if (cisloTvaru == 11){
		for(int i=0;i<18;i++)
			for(int j=0;j<12;j++){
 800560e:	6cbb      	ldr	r3, [r7, #72]	; 0x48
 8005610:	3301      	adds	r3, #1
 8005612:	64bb      	str	r3, [r7, #72]	; 0x48
 8005614:	6cbb      	ldr	r3, [r7, #72]	; 0x48
 8005616:	2b0b      	cmp	r3, #11
 8005618:	ddcb      	ble.n	80055b2 <placeDownBlock+0x62e>
				}
			}
	}
	// ak objekt je _._
	else if (cisloTvaru == 11){
		for(int i=0;i<18;i++)
 800561a:	6cfb      	ldr	r3, [r7, #76]	; 0x4c
 800561c:	3301      	adds	r3, #1
 800561e:	64fb      	str	r3, [r7, #76]	; 0x4c
 8005620:	6cfb      	ldr	r3, [r7, #76]	; 0x4c
 8005622:	2b11      	cmp	r3, #17
 8005624:	ddc2      	ble.n	80055ac <placeDownBlock+0x628>
					if (j>5 && i<6)
						matrix[x0+i][y0-j]=9;
				}
			}
	}
}
 8005626:	e1ce      	b.n	80059c6 <placeDownBlock+0xa42>
						matrix[x0+i][y0-j]=8;
				}
			}
	}
	// ak objekt je -|
	else if (cisloTvaru == 12){
 8005628:	687b      	ldr	r3, [r7, #4]
 800562a:	2b0c      	cmp	r3, #12
 800562c:	d140      	bne.n	80056b0 <placeDownBlock+0x72c>
		for(int i=0;i<12;i++)
 800562e:	2300      	movs	r3, #0
 8005630:	647b      	str	r3, [r7, #68]	; 0x44
 8005632:	e039      	b.n	80056a8 <placeDownBlock+0x724>
			for(int j=0;j<18;j++){
 8005634:	2300      	movs	r3, #0
 8005636:	643b      	str	r3, [r7, #64]	; 0x40
 8005638:	e030      	b.n	800569c <placeDownBlock+0x718>
				if (y0-j>1){
 800563a:	f9b7 2008 	ldrsh.w	r2, [r7, #8]
 800563e:	6c3b      	ldr	r3, [r7, #64]	; 0x40
 8005640:	1ad3      	subs	r3, r2, r3
 8005642:	2b01      	cmp	r3, #1
 8005644:	dd27      	ble.n	8005696 <placeDownBlock+0x712>
					if ((j>5 && j<12) && (i<6))
 8005646:	6c3b      	ldr	r3, [r7, #64]	; 0x40
 8005648:	2b05      	cmp	r3, #5
 800564a:	dd13      	ble.n	8005674 <placeDownBlock+0x6f0>
 800564c:	6c3b      	ldr	r3, [r7, #64]	; 0x40
 800564e:	2b0b      	cmp	r3, #11
 8005650:	dc10      	bgt.n	8005674 <placeDownBlock+0x6f0>
 8005652:	6c7b      	ldr	r3, [r7, #68]	; 0x44
 8005654:	2b05      	cmp	r3, #5
 8005656:	dc0d      	bgt.n	8005674 <placeDownBlock+0x6f0>
						matrix[x0+i][y0-j]=8;
 8005658:	f9b7 200a 	ldrsh.w	r2, [r7, #10]
 800565c:	6c7b      	ldr	r3, [r7, #68]	; 0x44
 800565e:	4413      	add	r3, r2
 8005660:	021b      	lsls	r3, r3, #8
 8005662:	68fa      	ldr	r2, [r7, #12]
 8005664:	4413      	add	r3, r2
 8005666:	f9b7 1008 	ldrsh.w	r1, [r7, #8]
 800566a:	6c3a      	ldr	r2, [r7, #64]	; 0x40
 800566c:	1a8a      	subs	r2, r1, r2
 800566e:	2108      	movs	r1, #8
 8005670:	f823 1012 	strh.w	r1, [r3, r2, lsl #1]
					if (i>5)
 8005674:	6c7b      	ldr	r3, [r7, #68]	; 0x44
 8005676:	2b05      	cmp	r3, #5
 8005678:	dd0d      	ble.n	8005696 <placeDownBlock+0x712>
						matrix[x0+i][y0-j]=8;
 800567a:	f9b7 200a 	ldrsh.w	r2, [r7, #10]
 800567e:	6c7b      	ldr	r3, [r7, #68]	; 0x44
 8005680:	4413      	add	r3, r2
 8005682:	021b      	lsls	r3, r3, #8
 8005684:	68fa      	ldr	r2, [r7, #12]
 8005686:	4413      	add	r3, r2
 8005688:	f9b7 1008 	ldrsh.w	r1, [r7, #8]
 800568c:	6c3a      	ldr	r2, [r7, #64]	; 0x40
 800568e:	1a8a      	subs	r2, r1, r2
 8005690:	2108      	movs	r1, #8
 8005692:	f823 1012 	strh.w	r1, [r3, r2, lsl #1]
			}
	}
	// ak objekt je -|
	else if (cisloTvaru == 12){
		for(int i=0;i<12;i++)
			for(int j=0;j<18;j++){
 8005696:	6c3b      	ldr	r3, [r7, #64]	; 0x40
 8005698:	3301      	adds	r3, #1
 800569a:	643b      	str	r3, [r7, #64]	; 0x40
 800569c:	6c3b      	ldr	r3, [r7, #64]	; 0x40
 800569e:	2b11      	cmp	r3, #17
 80056a0:	ddcb      	ble.n	800563a <placeDownBlock+0x6b6>
				}
			}
	}
	// ak objekt je -|
	else if (cisloTvaru == 12){
		for(int i=0;i<12;i++)
 80056a2:	6c7b      	ldr	r3, [r7, #68]	; 0x44
 80056a4:	3301      	adds	r3, #1
 80056a6:	647b      	str	r3, [r7, #68]	; 0x44
 80056a8:	6c7b      	ldr	r3, [r7, #68]	; 0x44
 80056aa:	2b0b      	cmp	r3, #11
 80056ac:	ddc2      	ble.n	8005634 <placeDownBlock+0x6b0>
					if (j>5 && i<6)
						matrix[x0+i][y0-j]=9;
				}
			}
	}
}
 80056ae:	e18a      	b.n	80059c6 <placeDownBlock+0xa42>
						matrix[x0+i][y0-j]=8;
				}
			}
	}
	// ak objekt je ..,..
	else if (cisloTvaru == 13){
 80056b0:	687b      	ldr	r3, [r7, #4]
 80056b2:	2b0d      	cmp	r3, #13
 80056b4:	d140      	bne.n	8005738 <placeDownBlock+0x7b4>
		for(int i=0;i<18;i++)
 80056b6:	2300      	movs	r3, #0
 80056b8:	63fb      	str	r3, [r7, #60]	; 0x3c
 80056ba:	e039      	b.n	8005730 <placeDownBlock+0x7ac>
			for(int j=0;j<12;j++){
 80056bc:	2300      	movs	r3, #0
 80056be:	63bb      	str	r3, [r7, #56]	; 0x38
 80056c0:	e030      	b.n	8005724 <placeDownBlock+0x7a0>
				if (y0-j>1){
 80056c2:	f9b7 2008 	ldrsh.w	r2, [r7, #8]
 80056c6:	6bbb      	ldr	r3, [r7, #56]	; 0x38
 80056c8:	1ad3      	subs	r3, r2, r3
 80056ca:	2b01      	cmp	r3, #1
 80056cc:	dd27      	ble.n	800571e <placeDownBlock+0x79a>
					if (j<6 && (i>5 && i<12))
 80056ce:	6bbb      	ldr	r3, [r7, #56]	; 0x38
 80056d0:	2b05      	cmp	r3, #5
 80056d2:	dc13      	bgt.n	80056fc <placeDownBlock+0x778>
 80056d4:	6bfb      	ldr	r3, [r7, #60]	; 0x3c
 80056d6:	2b05      	cmp	r3, #5
 80056d8:	dd10      	ble.n	80056fc <placeDownBlock+0x778>
 80056da:	6bfb      	ldr	r3, [r7, #60]	; 0x3c
 80056dc:	2b0b      	cmp	r3, #11
 80056de:	dc0d      	bgt.n	80056fc <placeDownBlock+0x778>
						matrix[x0+i][y0-j]=8;
 80056e0:	f9b7 200a 	ldrsh.w	r2, [r7, #10]
 80056e4:	6bfb      	ldr	r3, [r7, #60]	; 0x3c
 80056e6:	4413      	add	r3, r2
 80056e8:	021b      	lsls	r3, r3, #8
 80056ea:	68fa      	ldr	r2, [r7, #12]
 80056ec:	4413      	add	r3, r2
 80056ee:	f9b7 1008 	ldrsh.w	r1, [r7, #8]
 80056f2:	6bba      	ldr	r2, [r7, #56]	; 0x38
 80056f4:	1a8a      	subs	r2, r1, r2
 80056f6:	2108      	movs	r1, #8
 80056f8:	f823 1012 	strh.w	r1, [r3, r2, lsl #1]
					if (j>5)
 80056fc:	6bbb      	ldr	r3, [r7, #56]	; 0x38
 80056fe:	2b05      	cmp	r3, #5
 8005700:	dd0d      	ble.n	800571e <placeDownBlock+0x79a>
						matrix[x0+i][y0-j]=8;
 8005702:	f9b7 200a 	ldrsh.w	r2, [r7, #10]
 8005706:	6bfb      	ldr	r3, [r7, #60]	; 0x3c
 8005708:	4413      	add	r3, r2
 800570a:	021b      	lsls	r3, r3, #8
 800570c:	68fa      	ldr	r2, [r7, #12]
 800570e:	4413      	add	r3, r2
 8005710:	f9b7 1008 	ldrsh.w	r1, [r7, #8]
 8005714:	6bba      	ldr	r2, [r7, #56]	; 0x38
 8005716:	1a8a      	subs	r2, r1, r2
 8005718:	2108      	movs	r1, #8
 800571a:	f823 1012 	strh.w	r1, [r3, r2, lsl #1]
			}
	}
	// ak objekt je ..,..
	else if (cisloTvaru == 13){
		for(int i=0;i<18;i++)
			for(int j=0;j<12;j++){
 800571e:	6bbb      	ldr	r3, [r7, #56]	; 0x38
 8005720:	3301      	adds	r3, #1
 8005722:	63bb      	str	r3, [r7, #56]	; 0x38
 8005724:	6bbb      	ldr	r3, [r7, #56]	; 0x38
 8005726:	2b0b      	cmp	r3, #11
 8005728:	ddcb      	ble.n	80056c2 <placeDownBlock+0x73e>
				}
			}
	}
	// ak objekt je ..,..
	else if (cisloTvaru == 13){
		for(int i=0;i<18;i++)
 800572a:	6bfb      	ldr	r3, [r7, #60]	; 0x3c
 800572c:	3301      	adds	r3, #1
 800572e:	63fb      	str	r3, [r7, #60]	; 0x3c
 8005730:	6bfb      	ldr	r3, [r7, #60]	; 0x3c
 8005732:	2b11      	cmp	r3, #17
 8005734:	ddc2      	ble.n	80056bc <placeDownBlock+0x738>
					if (j>5 && i<6)
						matrix[x0+i][y0-j]=9;
				}
			}
	}
}
 8005736:	e146      	b.n	80059c6 <placeDownBlock+0xa42>
						matrix[x0+i][y0-j]=8;
				}
			}
	}
	// ak objekt je |-
	else if (cisloTvaru == 14){
 8005738:	687b      	ldr	r3, [r7, #4]
 800573a:	2b0e      	cmp	r3, #14
 800573c:	d140      	bne.n	80057c0 <placeDownBlock+0x83c>
		for(int i=0;i<12;i++)
 800573e:	2300      	movs	r3, #0
 8005740:	637b      	str	r3, [r7, #52]	; 0x34
 8005742:	e039      	b.n	80057b8 <placeDownBlock+0x834>
			for(int j=0;j<18;j++){
 8005744:	2300      	movs	r3, #0
 8005746:	633b      	str	r3, [r7, #48]	; 0x30
 8005748:	e030      	b.n	80057ac <placeDownBlock+0x828>
				if (y0-j>1){
 800574a:	f9b7 2008 	ldrsh.w	r2, [r7, #8]
 800574e:	6b3b      	ldr	r3, [r7, #48]	; 0x30
 8005750:	1ad3      	subs	r3, r2, r3
 8005752:	2b01      	cmp	r3, #1
 8005754:	dd27      	ble.n	80057a6 <placeDownBlock+0x822>
					if (i<6)
 8005756:	6b7b      	ldr	r3, [r7, #52]	; 0x34
 8005758:	2b05      	cmp	r3, #5
 800575a:	dc0d      	bgt.n	8005778 <placeDownBlock+0x7f4>
						matrix[x0+i][y0-j]=8;
 800575c:	f9b7 200a 	ldrsh.w	r2, [r7, #10]
 8005760:	6b7b      	ldr	r3, [r7, #52]	; 0x34
 8005762:	4413      	add	r3, r2
 8005764:	021b      	lsls	r3, r3, #8
 8005766:	68fa      	ldr	r2, [r7, #12]
 8005768:	4413      	add	r3, r2
 800576a:	f9b7 1008 	ldrsh.w	r1, [r7, #8]
 800576e:	6b3a      	ldr	r2, [r7, #48]	; 0x30
 8005770:	1a8a      	subs	r2, r1, r2
 8005772:	2108      	movs	r1, #8
 8005774:	f823 1012 	strh.w	r1, [r3, r2, lsl #1]
					if ((j>5 && j<12) && (i>5))
 8005778:	6b3b      	ldr	r3, [r7, #48]	; 0x30
 800577a:	2b05      	cmp	r3, #5
 800577c:	dd13      	ble.n	80057a6 <placeDownBlock+0x822>
 800577e:	6b3b      	ldr	r3, [r7, #48]	; 0x30
 8005780:	2b0b      	cmp	r3, #11
 8005782:	dc10      	bgt.n	80057a6 <placeDownBlock+0x822>
 8005784:	6b7b      	ldr	r3, [r7, #52]	; 0x34
 8005786:	2b05      	cmp	r3, #5
 8005788:	dd0d      	ble.n	80057a6 <placeDownBlock+0x822>
						matrix[x0+i][y0-j]=8;
 800578a:	f9b7 200a 	ldrsh.w	r2, [r7, #10]
 800578e:	6b7b      	ldr	r3, [r7, #52]	; 0x34
 8005790:	4413      	add	r3, r2
 8005792:	021b      	lsls	r3, r3, #8
 8005794:	68fa      	ldr	r2, [r7, #12]
 8005796:	4413      	add	r3, r2
 8005798:	f9b7 1008 	ldrsh.w	r1, [r7, #8]
 800579c:	6b3a      	ldr	r2, [r7, #48]	; 0x30
 800579e:	1a8a      	subs	r2, r1, r2
 80057a0:	2108      	movs	r1, #8
 80057a2:	f823 1012 	strh.w	r1, [r3, r2, lsl #1]
			}
	}
	// ak objekt je |-
	else if (cisloTvaru == 14){
		for(int i=0;i<12;i++)
			for(int j=0;j<18;j++){
 80057a6:	6b3b      	ldr	r3, [r7, #48]	; 0x30
 80057a8:	3301      	adds	r3, #1
 80057aa:	633b      	str	r3, [r7, #48]	; 0x30
 80057ac:	6b3b      	ldr	r3, [r7, #48]	; 0x30
 80057ae:	2b11      	cmp	r3, #17
 80057b0:	ddcb      	ble.n	800574a <placeDownBlock+0x7c6>
				}
			}
	}
	// ak objekt je |-
	else if (cisloTvaru == 14){
		for(int i=0;i<12;i++)
 80057b2:	6b7b      	ldr	r3, [r7, #52]	; 0x34
 80057b4:	3301      	adds	r3, #1
 80057b6:	637b      	str	r3, [r7, #52]	; 0x34
 80057b8:	6b7b      	ldr	r3, [r7, #52]	; 0x34
 80057ba:	2b0b      	cmp	r3, #11
 80057bc:	ddc2      	ble.n	8005744 <placeDownBlock+0x7c0>
					if (j>5 && i<6)
						matrix[x0+i][y0-j]=9;
				}
			}
	}
}
 80057be:	e102      	b.n	80059c6 <placeDownBlock+0xa42>
						matrix[x0+i][y0-j]=8;
				}
			}
	}
	// ak objekt je opacny L
	else if (cisloTvaru == 15){
 80057c0:	687b      	ldr	r3, [r7, #4]
 80057c2:	2b0f      	cmp	r3, #15
 80057c4:	d13d      	bne.n	8005842 <placeDownBlock+0x8be>
		for(int i=0;i<12;i++)
 80057c6:	2300      	movs	r3, #0
 80057c8:	62fb      	str	r3, [r7, #44]	; 0x2c
 80057ca:	e036      	b.n	800583a <placeDownBlock+0x8b6>
			for(int j=0;j<18;j++){
 80057cc:	2300      	movs	r3, #0
 80057ce:	62bb      	str	r3, [r7, #40]	; 0x28
 80057d0:	e02d      	b.n	800582e <placeDownBlock+0x8aa>
				if (y0-j>1){
 80057d2:	f9b7 2008 	ldrsh.w	r2, [r7, #8]
 80057d6:	6abb      	ldr	r3, [r7, #40]	; 0x28
 80057d8:	1ad3      	subs	r3, r2, r3
 80057da:	2b01      	cmp	r3, #1
 80057dc:	dd24      	ble.n	8005828 <placeDownBlock+0x8a4>
					if (j<6)
 80057de:	6abb      	ldr	r3, [r7, #40]	; 0x28
 80057e0:	2b05      	cmp	r3, #5
 80057e2:	dc0d      	bgt.n	8005800 <placeDownBlock+0x87c>
						matrix[x0+i][y0-j]=9;
 80057e4:	f9b7 200a 	ldrsh.w	r2, [r7, #10]
 80057e8:	6afb      	ldr	r3, [r7, #44]	; 0x2c
 80057ea:	4413      	add	r3, r2
 80057ec:	021b      	lsls	r3, r3, #8
 80057ee:	68fa      	ldr	r2, [r7, #12]
 80057f0:	4413      	add	r3, r2
 80057f2:	f9b7 1008 	ldrsh.w	r1, [r7, #8]
 80057f6:	6aba      	ldr	r2, [r7, #40]	; 0x28
 80057f8:	1a8a      	subs	r2, r1, r2
 80057fa:	2109      	movs	r1, #9
 80057fc:	f823 1012 	strh.w	r1, [r3, r2, lsl #1]
					if (j>5 && i>5)
 8005800:	6abb      	ldr	r3, [r7, #40]	; 0x28
 8005802:	2b05      	cmp	r3, #5
 8005804:	dd10      	ble.n	8005828 <placeDownBlock+0x8a4>
 8005806:	6afb      	ldr	r3, [r7, #44]	; 0x2c
 8005808:	2b05      	cmp	r3, #5
 800580a:	dd0d      	ble.n	8005828 <placeDownBlock+0x8a4>
						matrix[x0+i][y0-j]=9;
 800580c:	f9b7 200a 	ldrsh.w	r2, [r7, #10]
 8005810:	6afb      	ldr	r3, [r7, #44]	; 0x2c
 8005812:	4413      	add	r3, r2
 8005814:	021b      	lsls	r3, r3, #8
 8005816:	68fa      	ldr	r2, [r7, #12]
 8005818:	4413      	add	r3, r2
 800581a:	f9b7 1008 	ldrsh.w	r1, [r7, #8]
 800581e:	6aba      	ldr	r2, [r7, #40]	; 0x28
 8005820:	1a8a      	subs	r2, r1, r2
 8005822:	2109      	movs	r1, #9
 8005824:	f823 1012 	strh.w	r1, [r3, r2, lsl #1]
			}
	}
	// ak objekt je opacny L
	else if (cisloTvaru == 15){
		for(int i=0;i<12;i++)
			for(int j=0;j<18;j++){
 8005828:	6abb      	ldr	r3, [r7, #40]	; 0x28
 800582a:	3301      	adds	r3, #1
 800582c:	62bb      	str	r3, [r7, #40]	; 0x28
 800582e:	6abb      	ldr	r3, [r7, #40]	; 0x28
 8005830:	2b11      	cmp	r3, #17
 8005832:	ddce      	ble.n	80057d2 <placeDownBlock+0x84e>
				}
			}
	}
	// ak objekt je opacny L
	else if (cisloTvaru == 15){
		for(int i=0;i<12;i++)
 8005834:	6afb      	ldr	r3, [r7, #44]	; 0x2c
 8005836:	3301      	adds	r3, #1
 8005838:	62fb      	str	r3, [r7, #44]	; 0x2c
 800583a:	6afb      	ldr	r3, [r7, #44]	; 0x2c
 800583c:	2b0b      	cmp	r3, #11
 800583e:	ddc5      	ble.n	80057cc <placeDownBlock+0x848>
					if (j>5 && i<6)
						matrix[x0+i][y0-j]=9;
				}
			}
	}
}
 8005840:	e0c1      	b.n	80059c6 <placeDownBlock+0xa42>
						matrix[x0+i][y0-j]=9;
				}
			}
	}
	// ak objekt je ..,
	else if (cisloTvaru == 16){
 8005842:	687b      	ldr	r3, [r7, #4]
 8005844:	2b10      	cmp	r3, #16
 8005846:	d13d      	bne.n	80058c4 <placeDownBlock+0x940>
		for(int i=0;i<18;i++)
 8005848:	2300      	movs	r3, #0
 800584a:	627b      	str	r3, [r7, #36]	; 0x24
 800584c:	e036      	b.n	80058bc <placeDownBlock+0x938>
			for(int j=0;j<12;j++){
 800584e:	2300      	movs	r3, #0
 8005850:	623b      	str	r3, [r7, #32]
 8005852:	e02d      	b.n	80058b0 <placeDownBlock+0x92c>
				if (y0-j>1){
 8005854:	f9b7 2008 	ldrsh.w	r2, [r7, #8]
 8005858:	6a3b      	ldr	r3, [r7, #32]
 800585a:	1ad3      	subs	r3, r2, r3
 800585c:	2b01      	cmp	r3, #1
 800585e:	dd24      	ble.n	80058aa <placeDownBlock+0x926>
					if (j<6 && i>11)
 8005860:	6a3b      	ldr	r3, [r7, #32]
 8005862:	2b05      	cmp	r3, #5
 8005864:	dc10      	bgt.n	8005888 <placeDownBlock+0x904>
 8005866:	6a7b      	ldr	r3, [r7, #36]	; 0x24
 8005868:	2b0b      	cmp	r3, #11
 800586a:	dd0d      	ble.n	8005888 <placeDownBlock+0x904>
						matrix[x0+i][y0-j]=9;
 800586c:	f9b7 200a 	ldrsh.w	r2, [r7, #10]
 8005870:	6a7b      	ldr	r3, [r7, #36]	; 0x24
 8005872:	4413      	add	r3, r2
 8005874:	021b      	lsls	r3, r3, #8
 8005876:	68fa      	ldr	r2, [r7, #12]
 8005878:	4413      	add	r3, r2
 800587a:	f9b7 1008 	ldrsh.w	r1, [r7, #8]
 800587e:	6a3a      	ldr	r2, [r7, #32]
 8005880:	1a8a      	subs	r2, r1, r2
 8005882:	2109      	movs	r1, #9
 8005884:	f823 1012 	strh.w	r1, [r3, r2, lsl #1]
					if (j>5)
 8005888:	6a3b      	ldr	r3, [r7, #32]
 800588a:	2b05      	cmp	r3, #5
 800588c:	dd0d      	ble.n	80058aa <placeDownBlock+0x926>
						matrix[x0+i][y0-j]=9;
 800588e:	f9b7 200a 	ldrsh.w	r2, [r7, #10]
 8005892:	6a7b      	ldr	r3, [r7, #36]	; 0x24
 8005894:	4413      	add	r3, r2
 8005896:	021b      	lsls	r3, r3, #8
 8005898:	68fa      	ldr	r2, [r7, #12]
 800589a:	4413      	add	r3, r2
 800589c:	f9b7 1008 	ldrsh.w	r1, [r7, #8]
 80058a0:	6a3a      	ldr	r2, [r7, #32]
 80058a2:	1a8a      	subs	r2, r1, r2
 80058a4:	2109      	movs	r1, #9
 80058a6:	f823 1012 	strh.w	r1, [r3, r2, lsl #1]
			}
	}
	// ak objekt je ..,
	else if (cisloTvaru == 16){
		for(int i=0;i<18;i++)
			for(int j=0;j<12;j++){
 80058aa:	6a3b      	ldr	r3, [r7, #32]
 80058ac:	3301      	adds	r3, #1
 80058ae:	623b      	str	r3, [r7, #32]
 80058b0:	6a3b      	ldr	r3, [r7, #32]
 80058b2:	2b0b      	cmp	r3, #11
 80058b4:	ddce      	ble.n	8005854 <placeDownBlock+0x8d0>
				}
			}
	}
	// ak objekt je ..,
	else if (cisloTvaru == 16){
		for(int i=0;i<18;i++)
 80058b6:	6a7b      	ldr	r3, [r7, #36]	; 0x24
 80058b8:	3301      	adds	r3, #1
 80058ba:	627b      	str	r3, [r7, #36]	; 0x24
 80058bc:	6a7b      	ldr	r3, [r7, #36]	; 0x24
 80058be:	2b11      	cmp	r3, #17
 80058c0:	ddc5      	ble.n	800584e <placeDownBlock+0x8ca>
					if (j>5 && i<6)
						matrix[x0+i][y0-j]=9;
				}
			}
	}
}
 80058c2:	e080      	b.n	80059c6 <placeDownBlock+0xa42>
						matrix[x0+i][y0-j]=9;
				}
			}
	}
	// ak objekt je |'
	else if (cisloTvaru == 17){
 80058c4:	687b      	ldr	r3, [r7, #4]
 80058c6:	2b11      	cmp	r3, #17
 80058c8:	d13d      	bne.n	8005946 <placeDownBlock+0x9c2>
		for(int i=0;i<12;i++)
 80058ca:	2300      	movs	r3, #0
 80058cc:	61fb      	str	r3, [r7, #28]
 80058ce:	e036      	b.n	800593e <placeDownBlock+0x9ba>
			for(int j=0;j<18;j++){
 80058d0:	2300      	movs	r3, #0
 80058d2:	61bb      	str	r3, [r7, #24]
 80058d4:	e02d      	b.n	8005932 <placeDownBlock+0x9ae>
				if (y0-j>1){
 80058d6:	f9b7 2008 	ldrsh.w	r2, [r7, #8]
 80058da:	69bb      	ldr	r3, [r7, #24]
 80058dc:	1ad3      	subs	r3, r2, r3
 80058de:	2b01      	cmp	r3, #1
 80058e0:	dd24      	ble.n	800592c <placeDownBlock+0x9a8>
					if (j<12 && i<6)
 80058e2:	69bb      	ldr	r3, [r7, #24]
 80058e4:	2b0b      	cmp	r3, #11
 80058e6:	dc10      	bgt.n	800590a <placeDownBlock+0x986>
 80058e8:	69fb      	ldr	r3, [r7, #28]
 80058ea:	2b05      	cmp	r3, #5
 80058ec:	dc0d      	bgt.n	800590a <placeDownBlock+0x986>
						matrix[x0+i][y0-j]=9;
 80058ee:	f9b7 200a 	ldrsh.w	r2, [r7, #10]
 80058f2:	69fb      	ldr	r3, [r7, #28]
 80058f4:	4413      	add	r3, r2
 80058f6:	021b      	lsls	r3, r3, #8
 80058f8:	68fa      	ldr	r2, [r7, #12]
 80058fa:	4413      	add	r3, r2
 80058fc:	f9b7 1008 	ldrsh.w	r1, [r7, #8]
 8005900:	69ba      	ldr	r2, [r7, #24]
 8005902:	1a8a      	subs	r2, r1, r2
 8005904:	2109      	movs	r1, #9
 8005906:	f823 1012 	strh.w	r1, [r3, r2, lsl #1]
					if (j>11)
 800590a:	69bb      	ldr	r3, [r7, #24]
 800590c:	2b0b      	cmp	r3, #11
 800590e:	dd0d      	ble.n	800592c <placeDownBlock+0x9a8>
						matrix[x0+i][y0-j]=9;
 8005910:	f9b7 200a 	ldrsh.w	r2, [r7, #10]
 8005914:	69fb      	ldr	r3, [r7, #28]
 8005916:	4413      	add	r3, r2
 8005918:	021b      	lsls	r3, r3, #8
 800591a:	68fa      	ldr	r2, [r7, #12]
 800591c:	4413      	add	r3, r2
 800591e:	f9b7 1008 	ldrsh.w	r1, [r7, #8]
 8005922:	69ba      	ldr	r2, [r7, #24]
 8005924:	1a8a      	subs	r2, r1, r2
 8005926:	2109      	movs	r1, #9
 8005928:	f823 1012 	strh.w	r1, [r3, r2, lsl #1]
			}
	}
	// ak objekt je |'
	else if (cisloTvaru == 17){
		for(int i=0;i<12;i++)
			for(int j=0;j<18;j++){
 800592c:	69bb      	ldr	r3, [r7, #24]
 800592e:	3301      	adds	r3, #1
 8005930:	61bb      	str	r3, [r7, #24]
 8005932:	69bb      	ldr	r3, [r7, #24]
 8005934:	2b11      	cmp	r3, #17
 8005936:	ddce      	ble.n	80058d6 <placeDownBlock+0x952>
				}
			}
	}
	// ak objekt je |'
	else if (cisloTvaru == 17){
		for(int i=0;i<12;i++)
 8005938:	69fb      	ldr	r3, [r7, #28]
 800593a:	3301      	adds	r3, #1
 800593c:	61fb      	str	r3, [r7, #28]
 800593e:	69fb      	ldr	r3, [r7, #28]
 8005940:	2b0b      	cmp	r3, #11
 8005942:	ddc5      	ble.n	80058d0 <placeDownBlock+0x94c>
					if (j>5 && i<6)
						matrix[x0+i][y0-j]=9;
				}
			}
	}
}
 8005944:	e03f      	b.n	80059c6 <placeDownBlock+0xa42>
						matrix[x0+i][y0-j]=9;
				}
			}
	}
	// ak objekt je _.
	else if (cisloTvaru == 18){
 8005946:	687b      	ldr	r3, [r7, #4]
 8005948:	2b12      	cmp	r3, #18
 800594a:	d13c      	bne.n	80059c6 <placeDownBlock+0xa42>
		for(int i=0;i<18;i++)
 800594c:	2300      	movs	r3, #0
 800594e:	617b      	str	r3, [r7, #20]
 8005950:	e036      	b.n	80059c0 <placeDownBlock+0xa3c>
			for(int j=0;j<12;j++){
 8005952:	2300      	movs	r3, #0
 8005954:	613b      	str	r3, [r7, #16]
 8005956:	e02d      	b.n	80059b4 <placeDownBlock+0xa30>
				if (y0-j>1){
 8005958:	f9b7 2008 	ldrsh.w	r2, [r7, #8]
 800595c:	693b      	ldr	r3, [r7, #16]
 800595e:	1ad3      	subs	r3, r2, r3
 8005960:	2b01      	cmp	r3, #1
 8005962:	dd24      	ble.n	80059ae <placeDownBlock+0xa2a>
					if (j<6)
 8005964:	693b      	ldr	r3, [r7, #16]
 8005966:	2b05      	cmp	r3, #5
 8005968:	dc0d      	bgt.n	8005986 <placeDownBlock+0xa02>
						matrix[x0+i][y0-j]=9;
 800596a:	f9b7 200a 	ldrsh.w	r2, [r7, #10]
 800596e:	697b      	ldr	r3, [r7, #20]
 8005970:	4413      	add	r3, r2
 8005972:	021b      	lsls	r3, r3, #8
 8005974:	68fa      	ldr	r2, [r7, #12]
 8005976:	4413      	add	r3, r2
 8005978:	f9b7 1008 	ldrsh.w	r1, [r7, #8]
 800597c:	693a      	ldr	r2, [r7, #16]
 800597e:	1a8a      	subs	r2, r1, r2
 8005980:	2109      	movs	r1, #9
 8005982:	f823 1012 	strh.w	r1, [r3, r2, lsl #1]
					if (j>5 && i<6)
 8005986:	693b      	ldr	r3, [r7, #16]
 8005988:	2b05      	cmp	r3, #5
 800598a:	dd10      	ble.n	80059ae <placeDownBlock+0xa2a>
 800598c:	697b      	ldr	r3, [r7, #20]
 800598e:	2b05      	cmp	r3, #5
 8005990:	dc0d      	bgt.n	80059ae <placeDownBlock+0xa2a>
						matrix[x0+i][y0-j]=9;
 8005992:	f9b7 200a 	ldrsh.w	r2, [r7, #10]
 8005996:	697b      	ldr	r3, [r7, #20]
 8005998:	4413      	add	r3, r2
 800599a:	021b      	lsls	r3, r3, #8
 800599c:	68fa      	ldr	r2, [r7, #12]
 800599e:	4413      	add	r3, r2
 80059a0:	f9b7 1008 	ldrsh.w	r1, [r7, #8]
 80059a4:	693a      	ldr	r2, [r7, #16]
 80059a6:	1a8a      	subs	r2, r1, r2
 80059a8:	2109      	movs	r1, #9
 80059aa:	f823 1012 	strh.w	r1, [r3, r2, lsl #1]
			}
	}
	// ak objekt je _.
	else if (cisloTvaru == 18){
		for(int i=0;i<18;i++)
			for(int j=0;j<12;j++){
 80059ae:	693b      	ldr	r3, [r7, #16]
 80059b0:	3301      	adds	r3, #1
 80059b2:	613b      	str	r3, [r7, #16]
 80059b4:	693b      	ldr	r3, [r7, #16]
 80059b6:	2b0b      	cmp	r3, #11
 80059b8:	ddce      	ble.n	8005958 <placeDownBlock+0x9d4>
				}
			}
	}
	// ak objekt je _.
	else if (cisloTvaru == 18){
		for(int i=0;i<18;i++)
 80059ba:	697b      	ldr	r3, [r7, #20]
 80059bc:	3301      	adds	r3, #1
 80059be:	617b      	str	r3, [r7, #20]
 80059c0:	697b      	ldr	r3, [r7, #20]
 80059c2:	2b11      	cmp	r3, #17
 80059c4:	ddc5      	ble.n	8005952 <placeDownBlock+0x9ce>
					if (j>5 && i<6)
						matrix[x0+i][y0-j]=9;
				}
			}
	}
}
 80059c6:	bf00      	nop
 80059c8:	37ac      	adds	r7, #172	; 0xac
 80059ca:	46bd      	mov	sp, r7
 80059cc:	bc80      	pop	{r7}
 80059ce:	4770      	bx	lr

080059d0 <generateNumber>:

int generateNumber(volatile int AD_value){
 80059d0:	b490      	push	{r4, r7}
 80059d2:	b086      	sub	sp, #24
 80059d4:	af00      	add	r7, sp, #0
 80059d6:	6078      	str	r0, [r7, #4]
	int cislo = AD_value%7;
 80059d8:	687a      	ldr	r2, [r7, #4]
 80059da:	4b71      	ldr	r3, [pc, #452]	; (8005ba0 <generateNumber+0x1d0>)
 80059dc:	fb82 3403 	smull	r3, r4, r2, r3
 80059e0:	1913      	adds	r3, r2, r4
 80059e2:	1099      	asrs	r1, r3, #2
 80059e4:	17d3      	asrs	r3, r2, #31
 80059e6:	1ac9      	subs	r1, r1, r3
 80059e8:	460b      	mov	r3, r1
 80059ea:	00db      	lsls	r3, r3, #3
 80059ec:	1a5b      	subs	r3, r3, r1
 80059ee:	1ad3      	subs	r3, r2, r3
 80059f0:	613b      	str	r3, [r7, #16]
	int cisloTvaru = 0;
 80059f2:	2300      	movs	r3, #0
 80059f4:	617b      	str	r3, [r7, #20]
	int temp = 0;
 80059f6:	2300      	movs	r3, #0
 80059f8:	60fb      	str	r3, [r7, #12]

	switch(cislo){
 80059fa:	693b      	ldr	r3, [r7, #16]
 80059fc:	2b06      	cmp	r3, #6
 80059fe:	f200 80c9 	bhi.w	8005b94 <generateNumber+0x1c4>
 8005a02:	a201      	add	r2, pc, #4	; (adr r2, 8005a08 <generateNumber+0x38>)
 8005a04:	f852 f023 	ldr.w	pc, [r2, r3, lsl #2]
 8005a08:	08005a25 	.word	0x08005a25
 8005a0c:	08005a2b 	.word	0x08005a2b
 8005a10:	08005a59 	.word	0x08005a59
 8005a14:	08005a87 	.word	0x08005a87
 8005a18:	08005ab3 	.word	0x08005ab3
 8005a1c:	08005af7 	.word	0x08005af7
 8005a20:	08005b3b 	.word	0x08005b3b
		case 0:
			cisloTvaru = 0;
 8005a24:	2300      	movs	r3, #0
 8005a26:	617b      	str	r3, [r7, #20]
			break;
 8005a28:	e0b4      	b.n	8005b94 <generateNumber+0x1c4>
		case 1:
			temp = AD_value%2;
 8005a2a:	687a      	ldr	r2, [r7, #4]
 8005a2c:	4b5d      	ldr	r3, [pc, #372]	; (8005ba4 <generateNumber+0x1d4>)
 8005a2e:	4013      	ands	r3, r2
 8005a30:	2b00      	cmp	r3, #0
 8005a32:	da03      	bge.n	8005a3c <generateNumber+0x6c>
 8005a34:	3b01      	subs	r3, #1
 8005a36:	f063 0301 	orn	r3, r3, #1
 8005a3a:	3301      	adds	r3, #1
 8005a3c:	60fb      	str	r3, [r7, #12]
			if (temp == 0)
 8005a3e:	68fb      	ldr	r3, [r7, #12]
 8005a40:	2b00      	cmp	r3, #0
 8005a42:	d102      	bne.n	8005a4a <generateNumber+0x7a>
				cisloTvaru = 1;
 8005a44:	2301      	movs	r3, #1
 8005a46:	617b      	str	r3, [r7, #20]
			else if (temp == 1)
				cisloTvaru = 2;
			break;
 8005a48:	e099      	b.n	8005b7e <generateNumber+0x1ae>
			break;
		case 1:
			temp = AD_value%2;
			if (temp == 0)
				cisloTvaru = 1;
			else if (temp == 1)
 8005a4a:	68fb      	ldr	r3, [r7, #12]
 8005a4c:	2b01      	cmp	r3, #1
 8005a4e:	f040 8096 	bne.w	8005b7e <generateNumber+0x1ae>
				cisloTvaru = 2;
 8005a52:	2302      	movs	r3, #2
 8005a54:	617b      	str	r3, [r7, #20]
			break;
 8005a56:	e092      	b.n	8005b7e <generateNumber+0x1ae>
		case 2:
			temp = AD_value%2;
 8005a58:	687a      	ldr	r2, [r7, #4]
 8005a5a:	4b52      	ldr	r3, [pc, #328]	; (8005ba4 <generateNumber+0x1d4>)
 8005a5c:	4013      	ands	r3, r2
 8005a5e:	2b00      	cmp	r3, #0
 8005a60:	da03      	bge.n	8005a6a <generateNumber+0x9a>
 8005a62:	3b01      	subs	r3, #1
 8005a64:	f063 0301 	orn	r3, r3, #1
 8005a68:	3301      	adds	r3, #1
 8005a6a:	60fb      	str	r3, [r7, #12]
			if (temp == 0)
 8005a6c:	68fb      	ldr	r3, [r7, #12]
 8005a6e:	2b00      	cmp	r3, #0
 8005a70:	d102      	bne.n	8005a78 <generateNumber+0xa8>
				cisloTvaru = 3;
 8005a72:	2303      	movs	r3, #3
 8005a74:	617b      	str	r3, [r7, #20]
			else if (temp == 1)
				cisloTvaru = 4;
			break;
 8005a76:	e084      	b.n	8005b82 <generateNumber+0x1b2>
			break;
		case 2:
			temp = AD_value%2;
			if (temp == 0)
				cisloTvaru = 3;
			else if (temp == 1)
 8005a78:	68fb      	ldr	r3, [r7, #12]
 8005a7a:	2b01      	cmp	r3, #1
 8005a7c:	f040 8081 	bne.w	8005b82 <generateNumber+0x1b2>
				cisloTvaru = 4;
 8005a80:	2304      	movs	r3, #4
 8005a82:	617b      	str	r3, [r7, #20]
			break;
 8005a84:	e07d      	b.n	8005b82 <generateNumber+0x1b2>
		case 3:
			temp = AD_value%2;
 8005a86:	687a      	ldr	r2, [r7, #4]
 8005a88:	4b46      	ldr	r3, [pc, #280]	; (8005ba4 <generateNumber+0x1d4>)
 8005a8a:	4013      	ands	r3, r2
 8005a8c:	2b00      	cmp	r3, #0
 8005a8e:	da03      	bge.n	8005a98 <generateNumber+0xc8>
 8005a90:	3b01      	subs	r3, #1
 8005a92:	f063 0301 	orn	r3, r3, #1
 8005a96:	3301      	adds	r3, #1
 8005a98:	60fb      	str	r3, [r7, #12]
			if (temp == 0)
 8005a9a:	68fb      	ldr	r3, [r7, #12]
 8005a9c:	2b00      	cmp	r3, #0
 8005a9e:	d102      	bne.n	8005aa6 <generateNumber+0xd6>
				cisloTvaru = 5;
 8005aa0:	2305      	movs	r3, #5
 8005aa2:	617b      	str	r3, [r7, #20]
			else if (temp == 1)
				cisloTvaru = 6;
			break;
 8005aa4:	e06f      	b.n	8005b86 <generateNumber+0x1b6>
			break;
		case 3:
			temp = AD_value%2;
			if (temp == 0)
				cisloTvaru = 5;
			else if (temp == 1)
 8005aa6:	68fb      	ldr	r3, [r7, #12]
 8005aa8:	2b01      	cmp	r3, #1
 8005aaa:	d16c      	bne.n	8005b86 <generateNumber+0x1b6>
				cisloTvaru = 6;
 8005aac:	2306      	movs	r3, #6
 8005aae:	617b      	str	r3, [r7, #20]
			break;
 8005ab0:	e069      	b.n	8005b86 <generateNumber+0x1b6>
		case 4:
			temp = AD_value%4;
 8005ab2:	687a      	ldr	r2, [r7, #4]
 8005ab4:	4b3c      	ldr	r3, [pc, #240]	; (8005ba8 <generateNumber+0x1d8>)
 8005ab6:	4013      	ands	r3, r2
 8005ab8:	2b00      	cmp	r3, #0
 8005aba:	da03      	bge.n	8005ac4 <generateNumber+0xf4>
 8005abc:	3b01      	subs	r3, #1
 8005abe:	f063 0303 	orn	r3, r3, #3
 8005ac2:	3301      	adds	r3, #1
 8005ac4:	60fb      	str	r3, [r7, #12]
			if (temp == 0)
 8005ac6:	68fb      	ldr	r3, [r7, #12]
 8005ac8:	2b00      	cmp	r3, #0
 8005aca:	d102      	bne.n	8005ad2 <generateNumber+0x102>
				cisloTvaru = 7;
 8005acc:	2307      	movs	r3, #7
 8005ace:	617b      	str	r3, [r7, #20]
				cisloTvaru = 8;
			else if (temp == 2)
				cisloTvaru = 9;
			else if (temp == 3)
				cisloTvaru = 10;
			break;
 8005ad0:	e05b      	b.n	8005b8a <generateNumber+0x1ba>
			break;
		case 4:
			temp = AD_value%4;
			if (temp == 0)
				cisloTvaru = 7;
			else if (temp == 1)
 8005ad2:	68fb      	ldr	r3, [r7, #12]
 8005ad4:	2b01      	cmp	r3, #1
 8005ad6:	d102      	bne.n	8005ade <generateNumber+0x10e>
				cisloTvaru = 8;
 8005ad8:	2308      	movs	r3, #8
 8005ada:	617b      	str	r3, [r7, #20]
			else if (temp == 2)
				cisloTvaru = 9;
			else if (temp == 3)
				cisloTvaru = 10;
			break;
 8005adc:	e055      	b.n	8005b8a <generateNumber+0x1ba>
			temp = AD_value%4;
			if (temp == 0)
				cisloTvaru = 7;
			else if (temp == 1)
				cisloTvaru = 8;
			else if (temp == 2)
 8005ade:	68fb      	ldr	r3, [r7, #12]
 8005ae0:	2b02      	cmp	r3, #2
 8005ae2:	d102      	bne.n	8005aea <generateNumber+0x11a>
				cisloTvaru = 9;
 8005ae4:	2309      	movs	r3, #9
 8005ae6:	617b      	str	r3, [r7, #20]
			else if (temp == 3)
				cisloTvaru = 10;
			break;
 8005ae8:	e04f      	b.n	8005b8a <generateNumber+0x1ba>
				cisloTvaru = 7;
			else if (temp == 1)
				cisloTvaru = 8;
			else if (temp == 2)
				cisloTvaru = 9;
			else if (temp == 3)
 8005aea:	68fb      	ldr	r3, [r7, #12]
 8005aec:	2b03      	cmp	r3, #3
 8005aee:	d14c      	bne.n	8005b8a <generateNumber+0x1ba>
				cisloTvaru = 10;
 8005af0:	230a      	movs	r3, #10
 8005af2:	617b      	str	r3, [r7, #20]
			break;
 8005af4:	e049      	b.n	8005b8a <generateNumber+0x1ba>
		case 5:
			temp = AD_value%4;
 8005af6:	687a      	ldr	r2, [r7, #4]
 8005af8:	4b2b      	ldr	r3, [pc, #172]	; (8005ba8 <generateNumber+0x1d8>)
 8005afa:	4013      	ands	r3, r2
 8005afc:	2b00      	cmp	r3, #0
 8005afe:	da03      	bge.n	8005b08 <generateNumber+0x138>
 8005b00:	3b01      	subs	r3, #1
 8005b02:	f063 0303 	orn	r3, r3, #3
 8005b06:	3301      	adds	r3, #1
 8005b08:	60fb      	str	r3, [r7, #12]
			if (temp == 0)
 8005b0a:	68fb      	ldr	r3, [r7, #12]
 8005b0c:	2b00      	cmp	r3, #0
 8005b0e:	d102      	bne.n	8005b16 <generateNumber+0x146>
				cisloTvaru = 11;
 8005b10:	230b      	movs	r3, #11
 8005b12:	617b      	str	r3, [r7, #20]
				cisloTvaru = 12;
			else if (temp == 2)
				cisloTvaru = 13;
			else if (temp == 3)
				cisloTvaru = 14;
			break;
 8005b14:	e03b      	b.n	8005b8e <generateNumber+0x1be>
			break;
		case 5:
			temp = AD_value%4;
			if (temp == 0)
				cisloTvaru = 11;
			else if (temp == 1)
 8005b16:	68fb      	ldr	r3, [r7, #12]
 8005b18:	2b01      	cmp	r3, #1
 8005b1a:	d102      	bne.n	8005b22 <generateNumber+0x152>
				cisloTvaru = 12;
 8005b1c:	230c      	movs	r3, #12
 8005b1e:	617b      	str	r3, [r7, #20]
			else if (temp == 2)
				cisloTvaru = 13;
			else if (temp == 3)
				cisloTvaru = 14;
			break;
 8005b20:	e035      	b.n	8005b8e <generateNumber+0x1be>
			temp = AD_value%4;
			if (temp == 0)
				cisloTvaru = 11;
			else if (temp == 1)
				cisloTvaru = 12;
			else if (temp == 2)
 8005b22:	68fb      	ldr	r3, [r7, #12]
 8005b24:	2b02      	cmp	r3, #2
 8005b26:	d102      	bne.n	8005b2e <generateNumber+0x15e>
				cisloTvaru = 13;
 8005b28:	230d      	movs	r3, #13
 8005b2a:	617b      	str	r3, [r7, #20]
			else if (temp == 3)
				cisloTvaru = 14;
			break;
 8005b2c:	e02f      	b.n	8005b8e <generateNumber+0x1be>
				cisloTvaru = 11;
			else if (temp == 1)
				cisloTvaru = 12;
			else if (temp == 2)
				cisloTvaru = 13;
			else if (temp == 3)
 8005b2e:	68fb      	ldr	r3, [r7, #12]
 8005b30:	2b03      	cmp	r3, #3
 8005b32:	d12c      	bne.n	8005b8e <generateNumber+0x1be>
				cisloTvaru = 14;
 8005b34:	230e      	movs	r3, #14
 8005b36:	617b      	str	r3, [r7, #20]
			break;
 8005b38:	e029      	b.n	8005b8e <generateNumber+0x1be>
		case 6:
			temp = AD_value%4;
 8005b3a:	687a      	ldr	r2, [r7, #4]
 8005b3c:	4b1a      	ldr	r3, [pc, #104]	; (8005ba8 <generateNumber+0x1d8>)
 8005b3e:	4013      	ands	r3, r2
 8005b40:	2b00      	cmp	r3, #0
 8005b42:	da03      	bge.n	8005b4c <generateNumber+0x17c>
 8005b44:	3b01      	subs	r3, #1
 8005b46:	f063 0303 	orn	r3, r3, #3
 8005b4a:	3301      	adds	r3, #1
 8005b4c:	60fb      	str	r3, [r7, #12]
			if (temp == 0)
 8005b4e:	68fb      	ldr	r3, [r7, #12]
 8005b50:	2b00      	cmp	r3, #0
 8005b52:	d102      	bne.n	8005b5a <generateNumber+0x18a>
				cisloTvaru = 15;
 8005b54:	230f      	movs	r3, #15
 8005b56:	617b      	str	r3, [r7, #20]
				cisloTvaru = 16;
			else if (temp == 2)
				cisloTvaru = 17;
			else if (temp == 3)
				cisloTvaru = 18;
			break;
 8005b58:	e01b      	b.n	8005b92 <generateNumber+0x1c2>
			break;
		case 6:
			temp = AD_value%4;
			if (temp == 0)
				cisloTvaru = 15;
			else if (temp == 1)
 8005b5a:	68fb      	ldr	r3, [r7, #12]
 8005b5c:	2b01      	cmp	r3, #1
 8005b5e:	d102      	bne.n	8005b66 <generateNumber+0x196>
				cisloTvaru = 16;
 8005b60:	2310      	movs	r3, #16
 8005b62:	617b      	str	r3, [r7, #20]
			else if (temp == 2)
				cisloTvaru = 17;
			else if (temp == 3)
				cisloTvaru = 18;
			break;
 8005b64:	e015      	b.n	8005b92 <generateNumber+0x1c2>
			temp = AD_value%4;
			if (temp == 0)
				cisloTvaru = 15;
			else if (temp == 1)
				cisloTvaru = 16;
			else if (temp == 2)
 8005b66:	68fb      	ldr	r3, [r7, #12]
 8005b68:	2b02      	cmp	r3, #2
 8005b6a:	d102      	bne.n	8005b72 <generateNumber+0x1a2>
				cisloTvaru = 17;
 8005b6c:	2311      	movs	r3, #17
 8005b6e:	617b      	str	r3, [r7, #20]
			else if (temp == 3)
				cisloTvaru = 18;
			break;
 8005b70:	e00f      	b.n	8005b92 <generateNumber+0x1c2>
				cisloTvaru = 15;
			else if (temp == 1)
				cisloTvaru = 16;
			else if (temp == 2)
				cisloTvaru = 17;
			else if (temp == 3)
 8005b72:	68fb      	ldr	r3, [r7, #12]
 8005b74:	2b03      	cmp	r3, #3
 8005b76:	d10c      	bne.n	8005b92 <generateNumber+0x1c2>
				cisloTvaru = 18;
 8005b78:	2312      	movs	r3, #18
 8005b7a:	617b      	str	r3, [r7, #20]
			break;
 8005b7c:	e009      	b.n	8005b92 <generateNumber+0x1c2>
			temp = AD_value%2;
			if (temp == 0)
				cisloTvaru = 1;
			else if (temp == 1)
				cisloTvaru = 2;
			break;
 8005b7e:	bf00      	nop
 8005b80:	e008      	b.n	8005b94 <generateNumber+0x1c4>
			temp = AD_value%2;
			if (temp == 0)
				cisloTvaru = 3;
			else if (temp == 1)
				cisloTvaru = 4;
			break;
 8005b82:	bf00      	nop
 8005b84:	e006      	b.n	8005b94 <generateNumber+0x1c4>
			temp = AD_value%2;
			if (temp == 0)
				cisloTvaru = 5;
			else if (temp == 1)
				cisloTvaru = 6;
			break;
 8005b86:	bf00      	nop
 8005b88:	e004      	b.n	8005b94 <generateNumber+0x1c4>
				cisloTvaru = 8;
			else if (temp == 2)
				cisloTvaru = 9;
			else if (temp == 3)
				cisloTvaru = 10;
			break;
 8005b8a:	bf00      	nop
 8005b8c:	e002      	b.n	8005b94 <generateNumber+0x1c4>
				cisloTvaru = 12;
			else if (temp == 2)
				cisloTvaru = 13;
			else if (temp == 3)
				cisloTvaru = 14;
			break;
 8005b8e:	bf00      	nop
 8005b90:	e000      	b.n	8005b94 <generateNumber+0x1c4>
				cisloTvaru = 16;
			else if (temp == 2)
				cisloTvaru = 17;
			else if (temp == 3)
				cisloTvaru = 18;
			break;
 8005b92:	bf00      	nop
	}

	return cisloTvaru;
 8005b94:	697b      	ldr	r3, [r7, #20]
}
 8005b96:	4618      	mov	r0, r3
 8005b98:	3718      	adds	r7, #24
 8005b9a:	46bd      	mov	sp, r7
 8005b9c:	bc90      	pop	{r4, r7}
 8005b9e:	4770      	bx	lr
 8005ba0:	92492493 	.word	0x92492493
 8005ba4:	80000001 	.word	0x80000001
 8005ba8:	80000003 	.word	0x80000003

08005bac <returnLines>:

int returnLines(int tempScore, int score){
 8005bac:	b480      	push	{r7}
 8005bae:	b085      	sub	sp, #20
 8005bb0:	af00      	add	r7, sp, #0
 8005bb2:	6078      	str	r0, [r7, #4]
 8005bb4:	6039      	str	r1, [r7, #0]
	int lines = 0;
 8005bb6:	2300      	movs	r3, #0
 8005bb8:	60fb      	str	r3, [r7, #12]
	int temp = score - tempScore;
 8005bba:	683a      	ldr	r2, [r7, #0]
 8005bbc:	687b      	ldr	r3, [r7, #4]
 8005bbe:	1ad3      	subs	r3, r2, r3
 8005bc0:	60bb      	str	r3, [r7, #8]

	switch(temp){
 8005bc2:	68bb      	ldr	r3, [r7, #8]
 8005bc4:	2bc8      	cmp	r3, #200	; 0xc8
 8005bc6:	d013      	beq.n	8005bf0 <returnLines+0x44>
 8005bc8:	2bc8      	cmp	r3, #200	; 0xc8
 8005bca:	dc04      	bgt.n	8005bd6 <returnLines+0x2a>
 8005bcc:	2b00      	cmp	r3, #0
 8005bce:	d009      	beq.n	8005be4 <returnLines+0x38>
 8005bd0:	2b64      	cmp	r3, #100	; 0x64
 8005bd2:	d00a      	beq.n	8005bea <returnLines+0x3e>
 8005bd4:	e015      	b.n	8005c02 <returnLines+0x56>
 8005bd6:	f5b3 7f96 	cmp.w	r3, #300	; 0x12c
 8005bda:	d00c      	beq.n	8005bf6 <returnLines+0x4a>
 8005bdc:	f5b3 7f48 	cmp.w	r3, #800	; 0x320
 8005be0:	d00c      	beq.n	8005bfc <returnLines+0x50>
 8005be2:	e00e      	b.n	8005c02 <returnLines+0x56>
		case 0:
			lines = 0;
 8005be4:	2300      	movs	r3, #0
 8005be6:	60fb      	str	r3, [r7, #12]
			break;
 8005be8:	e00b      	b.n	8005c02 <returnLines+0x56>
		case 100:
			lines = 1;
 8005bea:	2301      	movs	r3, #1
 8005bec:	60fb      	str	r3, [r7, #12]
			break;
 8005bee:	e008      	b.n	8005c02 <returnLines+0x56>
		case 200:
			lines = 2;
 8005bf0:	2302      	movs	r3, #2
 8005bf2:	60fb      	str	r3, [r7, #12]
			break;
 8005bf4:	e005      	b.n	8005c02 <returnLines+0x56>
		case 300:
			lines = 3;
 8005bf6:	2303      	movs	r3, #3
 8005bf8:	60fb      	str	r3, [r7, #12]
			break;
 8005bfa:	e002      	b.n	8005c02 <returnLines+0x56>
		case 800:
			lines = 4;
 8005bfc:	2304      	movs	r3, #4
 8005bfe:	60fb      	str	r3, [r7, #12]
			break;
 8005c00:	bf00      	nop
	}
	return lines;
 8005c02:	68fb      	ldr	r3, [r7, #12]
}
 8005c04:	4618      	mov	r0, r3
 8005c06:	3714      	adds	r7, #20
 8005c08:	46bd      	mov	sp, r7
 8005c0a:	bc80      	pop	{r7}
 8005c0c:	4770      	bx	lr
 8005c0e:	bf00      	nop

08005c10 <menu>:

void menu(volatile int AD_value, int volba, char* menuVolba[]){
 8005c10:	e92d 41f0 	stmdb	sp!, {r4, r5, r6, r7, r8, lr}
 8005c14:	b088      	sub	sp, #32
 8005c16:	af02      	add	r7, sp, #8
 8005c18:	60f8      	str	r0, [r7, #12]
 8005c1a:	60b9      	str	r1, [r7, #8]
 8005c1c:	607a      	str	r2, [r7, #4]
	lcdPutS("TETRIS", lcdTextX(8), lcdTextY(2), decodeRgbValue(10, 31, 10), decodeRgbValue(0, 0, 0));
 8005c1e:	2008      	movs	r0, #8
 8005c20:	f7fb fc40 	bl	80014a4 <lcdTextX>
 8005c24:	4603      	mov	r3, r0
 8005c26:	461c      	mov	r4, r3
 8005c28:	2002      	movs	r0, #2
 8005c2a:	f7fb fc4b 	bl	80014c4 <lcdTextY>
 8005c2e:	4603      	mov	r3, r0
 8005c30:	461d      	mov	r5, r3
 8005c32:	220a      	movs	r2, #10
 8005c34:	211f      	movs	r1, #31
 8005c36:	200a      	movs	r0, #10
 8005c38:	f7fb fc18 	bl	800146c <decodeRgbValue>
 8005c3c:	4603      	mov	r3, r0
 8005c3e:	461e      	mov	r6, r3
 8005c40:	2200      	movs	r2, #0
 8005c42:	2100      	movs	r1, #0
 8005c44:	2000      	movs	r0, #0
 8005c46:	f7fb fc11 	bl	800146c <decodeRgbValue>
 8005c4a:	4603      	mov	r3, r0
 8005c4c:	9300      	str	r3, [sp, #0]
 8005c4e:	4633      	mov	r3, r6
 8005c50:	462a      	mov	r2, r5
 8005c52:	4621      	mov	r1, r4
 8005c54:	4847      	ldr	r0, [pc, #284]	; (8005d74 <menu+0x164>)
 8005c56:	f7fb fc43 	bl	80014e0 <lcdPutS>
	lcdPutS("THE RETRO GAME", lcdTextX(2), lcdTextY(4), decodeRgbValue(15, 31, 0), decodeRgbValue(0, 0, 0));
 8005c5a:	2002      	movs	r0, #2
 8005c5c:	f7fb fc22 	bl	80014a4 <lcdTextX>
 8005c60:	4603      	mov	r3, r0
 8005c62:	461c      	mov	r4, r3
 8005c64:	2004      	movs	r0, #4
 8005c66:	f7fb fc2d 	bl	80014c4 <lcdTextY>
 8005c6a:	4603      	mov	r3, r0
 8005c6c:	461d      	mov	r5, r3
 8005c6e:	2200      	movs	r2, #0
 8005c70:	211f      	movs	r1, #31
 8005c72:	200f      	movs	r0, #15
 8005c74:	f7fb fbfa 	bl	800146c <decodeRgbValue>
 8005c78:	4603      	mov	r3, r0
 8005c7a:	461e      	mov	r6, r3
 8005c7c:	2200      	movs	r2, #0
 8005c7e:	2100      	movs	r1, #0
 8005c80:	2000      	movs	r0, #0
 8005c82:	f7fb fbf3 	bl	800146c <decodeRgbValue>
 8005c86:	4603      	mov	r3, r0
 8005c88:	9300      	str	r3, [sp, #0]
 8005c8a:	4633      	mov	r3, r6
 8005c8c:	462a      	mov	r2, r5
 8005c8e:	4621      	mov	r1, r4
 8005c90:	4839      	ldr	r0, [pc, #228]	; (8005d78 <menu+0x168>)
 8005c92:	f7fb fc25 	bl	80014e0 <lcdPutS>
	int j=1;
 8005c96:	2301      	movs	r3, #1
 8005c98:	617b      	str	r3, [r7, #20]
	for (int i=0; i<3; i++){
 8005c9a:	2300      	movs	r3, #0
 8005c9c:	613b      	str	r3, [r7, #16]
 8005c9e:	e060      	b.n	8005d62 <menu+0x152>
		if(i==volba)
 8005ca0:	693a      	ldr	r2, [r7, #16]
 8005ca2:	68bb      	ldr	r3, [r7, #8]
 8005ca4:	429a      	cmp	r2, r3
 8005ca6:	d12b      	bne.n	8005d00 <menu+0xf0>
			lcdPutS(menuVolba[i], lcdTextX(1), lcdTextY(i+7+j), decodeRgbValue(0, 0, 0), decodeRgbValue(255, 255, 255));
 8005ca8:	693b      	ldr	r3, [r7, #16]
 8005caa:	009b      	lsls	r3, r3, #2
 8005cac:	687a      	ldr	r2, [r7, #4]
 8005cae:	4413      	add	r3, r2
 8005cb0:	681c      	ldr	r4, [r3, #0]
 8005cb2:	2001      	movs	r0, #1
 8005cb4:	f7fb fbf6 	bl	80014a4 <lcdTextX>
 8005cb8:	4603      	mov	r3, r0
 8005cba:	461d      	mov	r5, r3
 8005cbc:	693b      	ldr	r3, [r7, #16]
 8005cbe:	b2da      	uxtb	r2, r3
 8005cc0:	697b      	ldr	r3, [r7, #20]
 8005cc2:	b2db      	uxtb	r3, r3
 8005cc4:	4413      	add	r3, r2
 8005cc6:	b2db      	uxtb	r3, r3
 8005cc8:	3307      	adds	r3, #7
 8005cca:	b2db      	uxtb	r3, r3
 8005ccc:	4618      	mov	r0, r3
 8005cce:	f7fb fbf9 	bl	80014c4 <lcdTextY>
 8005cd2:	4603      	mov	r3, r0
 8005cd4:	461e      	mov	r6, r3
 8005cd6:	2200      	movs	r2, #0
 8005cd8:	2100      	movs	r1, #0
 8005cda:	2000      	movs	r0, #0
 8005cdc:	f7fb fbc6 	bl	800146c <decodeRgbValue>
 8005ce0:	4603      	mov	r3, r0
 8005ce2:	4698      	mov	r8, r3
 8005ce4:	22ff      	movs	r2, #255	; 0xff
 8005ce6:	21ff      	movs	r1, #255	; 0xff
 8005ce8:	20ff      	movs	r0, #255	; 0xff
 8005cea:	f7fb fbbf 	bl	800146c <decodeRgbValue>
 8005cee:	4603      	mov	r3, r0
 8005cf0:	9300      	str	r3, [sp, #0]
 8005cf2:	4643      	mov	r3, r8
 8005cf4:	4632      	mov	r2, r6
 8005cf6:	4629      	mov	r1, r5
 8005cf8:	4620      	mov	r0, r4
 8005cfa:	f7fb fbf1 	bl	80014e0 <lcdPutS>
 8005cfe:	e02a      	b.n	8005d56 <menu+0x146>
		else
			lcdPutS(menuVolba[i], lcdTextX(1), lcdTextY(i+7+j), decodeRgbValue(255, 255, 255), decodeRgbValue(0, 0, 0));
 8005d00:	693b      	ldr	r3, [r7, #16]
 8005d02:	009b      	lsls	r3, r3, #2
 8005d04:	687a      	ldr	r2, [r7, #4]
 8005d06:	4413      	add	r3, r2
 8005d08:	681c      	ldr	r4, [r3, #0]
 8005d0a:	2001      	movs	r0, #1
 8005d0c:	f7fb fbca 	bl	80014a4 <lcdTextX>
 8005d10:	4603      	mov	r3, r0
 8005d12:	461d      	mov	r5, r3
 8005d14:	693b      	ldr	r3, [r7, #16]
 8005d16:	b2da      	uxtb	r2, r3
 8005d18:	697b      	ldr	r3, [r7, #20]
 8005d1a:	b2db      	uxtb	r3, r3
 8005d1c:	4413      	add	r3, r2
 8005d1e:	b2db      	uxtb	r3, r3
 8005d20:	3307      	adds	r3, #7
 8005d22:	b2db      	uxtb	r3, r3
 8005d24:	4618      	mov	r0, r3
 8005d26:	f7fb fbcd 	bl	80014c4 <lcdTextY>
 8005d2a:	4603      	mov	r3, r0
 8005d2c:	461e      	mov	r6, r3
 8005d2e:	22ff      	movs	r2, #255	; 0xff
 8005d30:	21ff      	movs	r1, #255	; 0xff
 8005d32:	20ff      	movs	r0, #255	; 0xff
 8005d34:	f7fb fb9a 	bl	800146c <decodeRgbValue>
 8005d38:	4603      	mov	r3, r0
 8005d3a:	4698      	mov	r8, r3
 8005d3c:	2200      	movs	r2, #0
 8005d3e:	2100      	movs	r1, #0
 8005d40:	2000      	movs	r0, #0
 8005d42:	f7fb fb93 	bl	800146c <decodeRgbValue>
 8005d46:	4603      	mov	r3, r0
 8005d48:	9300      	str	r3, [sp, #0]
 8005d4a:	4643      	mov	r3, r8
 8005d4c:	4632      	mov	r2, r6
 8005d4e:	4629      	mov	r1, r5
 8005d50:	4620      	mov	r0, r4
 8005d52:	f7fb fbc5 	bl	80014e0 <lcdPutS>
		j++;
 8005d56:	697b      	ldr	r3, [r7, #20]
 8005d58:	3301      	adds	r3, #1
 8005d5a:	617b      	str	r3, [r7, #20]

void menu(volatile int AD_value, int volba, char* menuVolba[]){
	lcdPutS("TETRIS", lcdTextX(8), lcdTextY(2), decodeRgbValue(10, 31, 10), decodeRgbValue(0, 0, 0));
	lcdPutS("THE RETRO GAME", lcdTextX(2), lcdTextY(4), decodeRgbValue(15, 31, 0), decodeRgbValue(0, 0, 0));
	int j=1;
	for (int i=0; i<3; i++){
 8005d5c:	693b      	ldr	r3, [r7, #16]
 8005d5e:	3301      	adds	r3, #1
 8005d60:	613b      	str	r3, [r7, #16]
 8005d62:	693b      	ldr	r3, [r7, #16]
 8005d64:	2b02      	cmp	r3, #2
 8005d66:	dd9b      	ble.n	8005ca0 <menu+0x90>
			lcdPutS(menuVolba[i], lcdTextX(1), lcdTextY(i+7+j), decodeRgbValue(255, 255, 255), decodeRgbValue(0, 0, 0));
		j++;
	}


}
 8005d68:	bf00      	nop
 8005d6a:	3718      	adds	r7, #24
 8005d6c:	46bd      	mov	sp, r7
 8005d6e:	e8bd 81f0 	ldmia.w	sp!, {r4, r5, r6, r7, r8, pc}
 8005d72:	bf00      	nop
 8005d74:	08007db0 	.word	0x08007db0
 8005d78:	08007db8 	.word	0x08007db8

08005d7c <showHighscore>:

void showHighscore(int highscore[], char* names[]){
 8005d7c:	e92d 41f0 	stmdb	sp!, {r4, r5, r6, r7, r8, lr}
 8005d80:	b090      	sub	sp, #64	; 0x40
 8005d82:	af02      	add	r7, sp, #8
 8005d84:	6078      	str	r0, [r7, #4]
 8005d86:	6039      	str	r1, [r7, #0]
	char hScore2[6];
	char hScore3[6];
	char hScore4[6];
	char hScore5[6];

	for (int i=0; i<7;i++){
 8005d88:	2300      	movs	r3, #0
 8005d8a:	637b      	str	r3, [r7, #52]	; 0x34
 8005d8c:	e0c9      	b.n	8005f22 <showHighscore+0x1a6>
		lcdPutCh(names[0][i], lcdTextX(i+4), lcdTextY(4), decodeRgbValue(255, 255, 255), decodeRgbValue(0, 0, 0));
 8005d8e:	683b      	ldr	r3, [r7, #0]
 8005d90:	681a      	ldr	r2, [r3, #0]
 8005d92:	6b7b      	ldr	r3, [r7, #52]	; 0x34
 8005d94:	4413      	add	r3, r2
 8005d96:	781c      	ldrb	r4, [r3, #0]
 8005d98:	6b7b      	ldr	r3, [r7, #52]	; 0x34
 8005d9a:	b2db      	uxtb	r3, r3
 8005d9c:	3304      	adds	r3, #4
 8005d9e:	b2db      	uxtb	r3, r3
 8005da0:	4618      	mov	r0, r3
 8005da2:	f7fb fb7f 	bl	80014a4 <lcdTextX>
 8005da6:	4603      	mov	r3, r0
 8005da8:	461d      	mov	r5, r3
 8005daa:	2004      	movs	r0, #4
 8005dac:	f7fb fb8a 	bl	80014c4 <lcdTextY>
 8005db0:	4603      	mov	r3, r0
 8005db2:	461e      	mov	r6, r3
 8005db4:	22ff      	movs	r2, #255	; 0xff
 8005db6:	21ff      	movs	r1, #255	; 0xff
 8005db8:	20ff      	movs	r0, #255	; 0xff
 8005dba:	f7fb fb57 	bl	800146c <decodeRgbValue>
 8005dbe:	4603      	mov	r3, r0
 8005dc0:	4698      	mov	r8, r3
 8005dc2:	2200      	movs	r2, #0
 8005dc4:	2100      	movs	r1, #0
 8005dc6:	2000      	movs	r0, #0
 8005dc8:	f7fb fb50 	bl	800146c <decodeRgbValue>
 8005dcc:	4603      	mov	r3, r0
 8005dce:	9300      	str	r3, [sp, #0]
 8005dd0:	4643      	mov	r3, r8
 8005dd2:	4632      	mov	r2, r6
 8005dd4:	4629      	mov	r1, r5
 8005dd6:	4620      	mov	r0, r4
 8005dd8:	f7fb fad2 	bl	8001380 <lcdPutCh>
		lcdPutCh(names[1][i], lcdTextX(i+4), lcdTextY(6), decodeRgbValue(255, 255, 255), decodeRgbValue(0, 0, 0));
 8005ddc:	683b      	ldr	r3, [r7, #0]
 8005dde:	3304      	adds	r3, #4
 8005de0:	681a      	ldr	r2, [r3, #0]
 8005de2:	6b7b      	ldr	r3, [r7, #52]	; 0x34
 8005de4:	4413      	add	r3, r2
 8005de6:	781c      	ldrb	r4, [r3, #0]
 8005de8:	6b7b      	ldr	r3, [r7, #52]	; 0x34
 8005dea:	b2db      	uxtb	r3, r3
 8005dec:	3304      	adds	r3, #4
 8005dee:	b2db      	uxtb	r3, r3
 8005df0:	4618      	mov	r0, r3
 8005df2:	f7fb fb57 	bl	80014a4 <lcdTextX>
 8005df6:	4603      	mov	r3, r0
 8005df8:	461d      	mov	r5, r3
 8005dfa:	2006      	movs	r0, #6
 8005dfc:	f7fb fb62 	bl	80014c4 <lcdTextY>
 8005e00:	4603      	mov	r3, r0
 8005e02:	461e      	mov	r6, r3
 8005e04:	22ff      	movs	r2, #255	; 0xff
 8005e06:	21ff      	movs	r1, #255	; 0xff
 8005e08:	20ff      	movs	r0, #255	; 0xff
 8005e0a:	f7fb fb2f 	bl	800146c <decodeRgbValue>
 8005e0e:	4603      	mov	r3, r0
 8005e10:	4698      	mov	r8, r3
 8005e12:	2200      	movs	r2, #0
 8005e14:	2100      	movs	r1, #0
 8005e16:	2000      	movs	r0, #0
 8005e18:	f7fb fb28 	bl	800146c <decodeRgbValue>
 8005e1c:	4603      	mov	r3, r0
 8005e1e:	9300      	str	r3, [sp, #0]
 8005e20:	4643      	mov	r3, r8
 8005e22:	4632      	mov	r2, r6
 8005e24:	4629      	mov	r1, r5
 8005e26:	4620      	mov	r0, r4
 8005e28:	f7fb faaa 	bl	8001380 <lcdPutCh>
		lcdPutCh(names[2][i], lcdTextX(i+4), lcdTextY(8), decodeRgbValue(255, 255, 255), decodeRgbValue(0, 0, 0));
 8005e2c:	683b      	ldr	r3, [r7, #0]
 8005e2e:	3308      	adds	r3, #8
 8005e30:	681a      	ldr	r2, [r3, #0]
 8005e32:	6b7b      	ldr	r3, [r7, #52]	; 0x34
 8005e34:	4413      	add	r3, r2
 8005e36:	781c      	ldrb	r4, [r3, #0]
 8005e38:	6b7b      	ldr	r3, [r7, #52]	; 0x34
 8005e3a:	b2db      	uxtb	r3, r3
 8005e3c:	3304      	adds	r3, #4
 8005e3e:	b2db      	uxtb	r3, r3
 8005e40:	4618      	mov	r0, r3
 8005e42:	f7fb fb2f 	bl	80014a4 <lcdTextX>
 8005e46:	4603      	mov	r3, r0
 8005e48:	461d      	mov	r5, r3
 8005e4a:	2008      	movs	r0, #8
 8005e4c:	f7fb fb3a 	bl	80014c4 <lcdTextY>
 8005e50:	4603      	mov	r3, r0
 8005e52:	461e      	mov	r6, r3
 8005e54:	22ff      	movs	r2, #255	; 0xff
 8005e56:	21ff      	movs	r1, #255	; 0xff
 8005e58:	20ff      	movs	r0, #255	; 0xff
 8005e5a:	f7fb fb07 	bl	800146c <decodeRgbValue>
 8005e5e:	4603      	mov	r3, r0
 8005e60:	4698      	mov	r8, r3
 8005e62:	2200      	movs	r2, #0
 8005e64:	2100      	movs	r1, #0
 8005e66:	2000      	movs	r0, #0
 8005e68:	f7fb fb00 	bl	800146c <decodeRgbValue>
 8005e6c:	4603      	mov	r3, r0
 8005e6e:	9300      	str	r3, [sp, #0]
 8005e70:	4643      	mov	r3, r8
 8005e72:	4632      	mov	r2, r6
 8005e74:	4629      	mov	r1, r5
 8005e76:	4620      	mov	r0, r4
 8005e78:	f7fb fa82 	bl	8001380 <lcdPutCh>
		lcdPutCh(names[3][i], lcdTextX(i+4), lcdTextY(10), decodeRgbValue(255, 255, 255), decodeRgbValue(0, 0, 0));
 8005e7c:	683b      	ldr	r3, [r7, #0]
 8005e7e:	330c      	adds	r3, #12
 8005e80:	681a      	ldr	r2, [r3, #0]
 8005e82:	6b7b      	ldr	r3, [r7, #52]	; 0x34
 8005e84:	4413      	add	r3, r2
 8005e86:	781c      	ldrb	r4, [r3, #0]
 8005e88:	6b7b      	ldr	r3, [r7, #52]	; 0x34
 8005e8a:	b2db      	uxtb	r3, r3
 8005e8c:	3304      	adds	r3, #4
 8005e8e:	b2db      	uxtb	r3, r3
 8005e90:	4618      	mov	r0, r3
 8005e92:	f7fb fb07 	bl	80014a4 <lcdTextX>
 8005e96:	4603      	mov	r3, r0
 8005e98:	461d      	mov	r5, r3
 8005e9a:	200a      	movs	r0, #10
 8005e9c:	f7fb fb12 	bl	80014c4 <lcdTextY>
 8005ea0:	4603      	mov	r3, r0
 8005ea2:	461e      	mov	r6, r3
 8005ea4:	22ff      	movs	r2, #255	; 0xff
 8005ea6:	21ff      	movs	r1, #255	; 0xff
 8005ea8:	20ff      	movs	r0, #255	; 0xff
 8005eaa:	f7fb fadf 	bl	800146c <decodeRgbValue>
 8005eae:	4603      	mov	r3, r0
 8005eb0:	4698      	mov	r8, r3
 8005eb2:	2200      	movs	r2, #0
 8005eb4:	2100      	movs	r1, #0
 8005eb6:	2000      	movs	r0, #0
 8005eb8:	f7fb fad8 	bl	800146c <decodeRgbValue>
 8005ebc:	4603      	mov	r3, r0
 8005ebe:	9300      	str	r3, [sp, #0]
 8005ec0:	4643      	mov	r3, r8
 8005ec2:	4632      	mov	r2, r6
 8005ec4:	4629      	mov	r1, r5
 8005ec6:	4620      	mov	r0, r4
 8005ec8:	f7fb fa5a 	bl	8001380 <lcdPutCh>
		lcdPutCh(names[4][i], lcdTextX(i+4), lcdTextY(12), decodeRgbValue(255, 255, 255), decodeRgbValue(0, 0, 0));
 8005ecc:	683b      	ldr	r3, [r7, #0]
 8005ece:	3310      	adds	r3, #16
 8005ed0:	681a      	ldr	r2, [r3, #0]
 8005ed2:	6b7b      	ldr	r3, [r7, #52]	; 0x34
 8005ed4:	4413      	add	r3, r2
 8005ed6:	781c      	ldrb	r4, [r3, #0]
 8005ed8:	6b7b      	ldr	r3, [r7, #52]	; 0x34
 8005eda:	b2db      	uxtb	r3, r3
 8005edc:	3304      	adds	r3, #4
 8005ede:	b2db      	uxtb	r3, r3
 8005ee0:	4618      	mov	r0, r3
 8005ee2:	f7fb fadf 	bl	80014a4 <lcdTextX>
 8005ee6:	4603      	mov	r3, r0
 8005ee8:	461d      	mov	r5, r3
 8005eea:	200c      	movs	r0, #12
 8005eec:	f7fb faea 	bl	80014c4 <lcdTextY>
 8005ef0:	4603      	mov	r3, r0
 8005ef2:	461e      	mov	r6, r3
 8005ef4:	22ff      	movs	r2, #255	; 0xff
 8005ef6:	21ff      	movs	r1, #255	; 0xff
 8005ef8:	20ff      	movs	r0, #255	; 0xff
 8005efa:	f7fb fab7 	bl	800146c <decodeRgbValue>
 8005efe:	4603      	mov	r3, r0
 8005f00:	4698      	mov	r8, r3
 8005f02:	2200      	movs	r2, #0
 8005f04:	2100      	movs	r1, #0
 8005f06:	2000      	movs	r0, #0
 8005f08:	f7fb fab0 	bl	800146c <decodeRgbValue>
 8005f0c:	4603      	mov	r3, r0
 8005f0e:	9300      	str	r3, [sp, #0]
 8005f10:	4643      	mov	r3, r8
 8005f12:	4632      	mov	r2, r6
 8005f14:	4629      	mov	r1, r5
 8005f16:	4620      	mov	r0, r4
 8005f18:	f7fb fa32 	bl	8001380 <lcdPutCh>
	char hScore2[6];
	char hScore3[6];
	char hScore4[6];
	char hScore5[6];

	for (int i=0; i<7;i++){
 8005f1c:	6b7b      	ldr	r3, [r7, #52]	; 0x34
 8005f1e:	3301      	adds	r3, #1
 8005f20:	637b      	str	r3, [r7, #52]	; 0x34
 8005f22:	6b7b      	ldr	r3, [r7, #52]	; 0x34
 8005f24:	2b06      	cmp	r3, #6
 8005f26:	f77f af32 	ble.w	8005d8e <showHighscore+0x12>
		lcdPutCh(names[1][i], lcdTextX(i+4), lcdTextY(6), decodeRgbValue(255, 255, 255), decodeRgbValue(0, 0, 0));
		lcdPutCh(names[2][i], lcdTextX(i+4), lcdTextY(8), decodeRgbValue(255, 255, 255), decodeRgbValue(0, 0, 0));
		lcdPutCh(names[3][i], lcdTextX(i+4), lcdTextY(10), decodeRgbValue(255, 255, 255), decodeRgbValue(0, 0, 0));
		lcdPutCh(names[4][i], lcdTextX(i+4), lcdTextY(12), decodeRgbValue(255, 255, 255), decodeRgbValue(0, 0, 0));
	}
	lcdPutS("HIGHSCORE", lcdTextX(1), lcdTextY(2), decodeRgbValue(255, 255, 255), decodeRgbValue(0, 0, 0));
 8005f2a:	2001      	movs	r0, #1
 8005f2c:	f7fb faba 	bl	80014a4 <lcdTextX>
 8005f30:	4603      	mov	r3, r0
 8005f32:	461c      	mov	r4, r3
 8005f34:	2002      	movs	r0, #2
 8005f36:	f7fb fac5 	bl	80014c4 <lcdTextY>
 8005f3a:	4603      	mov	r3, r0
 8005f3c:	461d      	mov	r5, r3
 8005f3e:	22ff      	movs	r2, #255	; 0xff
 8005f40:	21ff      	movs	r1, #255	; 0xff
 8005f42:	20ff      	movs	r0, #255	; 0xff
 8005f44:	f7fb fa92 	bl	800146c <decodeRgbValue>
 8005f48:	4603      	mov	r3, r0
 8005f4a:	461e      	mov	r6, r3
 8005f4c:	2200      	movs	r2, #0
 8005f4e:	2100      	movs	r1, #0
 8005f50:	2000      	movs	r0, #0
 8005f52:	f7fb fa8b 	bl	800146c <decodeRgbValue>
 8005f56:	4603      	mov	r3, r0
 8005f58:	9300      	str	r3, [sp, #0]
 8005f5a:	4633      	mov	r3, r6
 8005f5c:	462a      	mov	r2, r5
 8005f5e:	4621      	mov	r1, r4
 8005f60:	48e9      	ldr	r0, [pc, #932]	; (8006308 <showHighscore+0x58c>)
 8005f62:	f7fb fabd 	bl	80014e0 <lcdPutS>
	lcdPutS("1.", lcdTextX(1), lcdTextY(4), decodeRgbValue(255, 255, 255), decodeRgbValue(0, 0, 0));
 8005f66:	2001      	movs	r0, #1
 8005f68:	f7fb fa9c 	bl	80014a4 <lcdTextX>
 8005f6c:	4603      	mov	r3, r0
 8005f6e:	461c      	mov	r4, r3
 8005f70:	2004      	movs	r0, #4
 8005f72:	f7fb faa7 	bl	80014c4 <lcdTextY>
 8005f76:	4603      	mov	r3, r0
 8005f78:	461d      	mov	r5, r3
 8005f7a:	22ff      	movs	r2, #255	; 0xff
 8005f7c:	21ff      	movs	r1, #255	; 0xff
 8005f7e:	20ff      	movs	r0, #255	; 0xff
 8005f80:	f7fb fa74 	bl	800146c <decodeRgbValue>
 8005f84:	4603      	mov	r3, r0
 8005f86:	461e      	mov	r6, r3
 8005f88:	2200      	movs	r2, #0
 8005f8a:	2100      	movs	r1, #0
 8005f8c:	2000      	movs	r0, #0
 8005f8e:	f7fb fa6d 	bl	800146c <decodeRgbValue>
 8005f92:	4603      	mov	r3, r0
 8005f94:	9300      	str	r3, [sp, #0]
 8005f96:	4633      	mov	r3, r6
 8005f98:	462a      	mov	r2, r5
 8005f9a:	4621      	mov	r1, r4
 8005f9c:	48db      	ldr	r0, [pc, #876]	; (800630c <showHighscore+0x590>)
 8005f9e:	f7fb fa9f 	bl	80014e0 <lcdPutS>

	lcdPutS(":", lcdTextX(12), lcdTextY(4), decodeRgbValue(255, 255, 255), decodeRgbValue(0, 0, 0));
 8005fa2:	200c      	movs	r0, #12
 8005fa4:	f7fb fa7e 	bl	80014a4 <lcdTextX>
 8005fa8:	4603      	mov	r3, r0
 8005faa:	461c      	mov	r4, r3
 8005fac:	2004      	movs	r0, #4
 8005fae:	f7fb fa89 	bl	80014c4 <lcdTextY>
 8005fb2:	4603      	mov	r3, r0
 8005fb4:	461d      	mov	r5, r3
 8005fb6:	22ff      	movs	r2, #255	; 0xff
 8005fb8:	21ff      	movs	r1, #255	; 0xff
 8005fba:	20ff      	movs	r0, #255	; 0xff
 8005fbc:	f7fb fa56 	bl	800146c <decodeRgbValue>
 8005fc0:	4603      	mov	r3, r0
 8005fc2:	461e      	mov	r6, r3
 8005fc4:	2200      	movs	r2, #0
 8005fc6:	2100      	movs	r1, #0
 8005fc8:	2000      	movs	r0, #0
 8005fca:	f7fb fa4f 	bl	800146c <decodeRgbValue>
 8005fce:	4603      	mov	r3, r0
 8005fd0:	9300      	str	r3, [sp, #0]
 8005fd2:	4633      	mov	r3, r6
 8005fd4:	462a      	mov	r2, r5
 8005fd6:	4621      	mov	r1, r4
 8005fd8:	48cd      	ldr	r0, [pc, #820]	; (8006310 <showHighscore+0x594>)
 8005fda:	f7fb fa81 	bl	80014e0 <lcdPutS>
	sprintf(hScore1, "%d", highscore[0]);
 8005fde:	687b      	ldr	r3, [r7, #4]
 8005fe0:	681a      	ldr	r2, [r3, #0]
 8005fe2:	f107 032c 	add.w	r3, r7, #44	; 0x2c
 8005fe6:	49cb      	ldr	r1, [pc, #812]	; (8006314 <showHighscore+0x598>)
 8005fe8:	4618      	mov	r0, r3
 8005fea:	f001 fe7d 	bl	8007ce8 <siprintf>
	lcdPutS(hScore1, lcdTextX(14), lcdTextY(4), decodeRgbValue(255, 255, 255), decodeRgbValue(0, 0, 0));
 8005fee:	200e      	movs	r0, #14
 8005ff0:	f7fb fa58 	bl	80014a4 <lcdTextX>
 8005ff4:	4603      	mov	r3, r0
 8005ff6:	461c      	mov	r4, r3
 8005ff8:	2004      	movs	r0, #4
 8005ffa:	f7fb fa63 	bl	80014c4 <lcdTextY>
 8005ffe:	4603      	mov	r3, r0
 8006000:	461d      	mov	r5, r3
 8006002:	22ff      	movs	r2, #255	; 0xff
 8006004:	21ff      	movs	r1, #255	; 0xff
 8006006:	20ff      	movs	r0, #255	; 0xff
 8006008:	f7fb fa30 	bl	800146c <decodeRgbValue>
 800600c:	4603      	mov	r3, r0
 800600e:	461e      	mov	r6, r3
 8006010:	2200      	movs	r2, #0
 8006012:	2100      	movs	r1, #0
 8006014:	2000      	movs	r0, #0
 8006016:	f7fb fa29 	bl	800146c <decodeRgbValue>
 800601a:	4603      	mov	r3, r0
 800601c:	f107 002c 	add.w	r0, r7, #44	; 0x2c
 8006020:	9300      	str	r3, [sp, #0]
 8006022:	4633      	mov	r3, r6
 8006024:	462a      	mov	r2, r5
 8006026:	4621      	mov	r1, r4
 8006028:	f7fb fa5a 	bl	80014e0 <lcdPutS>
	lcdPutS("2.", lcdTextX(1), lcdTextY(6), decodeRgbValue(255, 255, 255), decodeRgbValue(0, 0, 0));
 800602c:	2001      	movs	r0, #1
 800602e:	f7fb fa39 	bl	80014a4 <lcdTextX>
 8006032:	4603      	mov	r3, r0
 8006034:	461c      	mov	r4, r3
 8006036:	2006      	movs	r0, #6
 8006038:	f7fb fa44 	bl	80014c4 <lcdTextY>
 800603c:	4603      	mov	r3, r0
 800603e:	461d      	mov	r5, r3
 8006040:	22ff      	movs	r2, #255	; 0xff
 8006042:	21ff      	movs	r1, #255	; 0xff
 8006044:	20ff      	movs	r0, #255	; 0xff
 8006046:	f7fb fa11 	bl	800146c <decodeRgbValue>
 800604a:	4603      	mov	r3, r0
 800604c:	461e      	mov	r6, r3
 800604e:	2200      	movs	r2, #0
 8006050:	2100      	movs	r1, #0
 8006052:	2000      	movs	r0, #0
 8006054:	f7fb fa0a 	bl	800146c <decodeRgbValue>
 8006058:	4603      	mov	r3, r0
 800605a:	9300      	str	r3, [sp, #0]
 800605c:	4633      	mov	r3, r6
 800605e:	462a      	mov	r2, r5
 8006060:	4621      	mov	r1, r4
 8006062:	48ad      	ldr	r0, [pc, #692]	; (8006318 <showHighscore+0x59c>)
 8006064:	f7fb fa3c 	bl	80014e0 <lcdPutS>

	lcdPutS(":", lcdTextX(12), lcdTextY(6), decodeRgbValue(255, 255, 255), decodeRgbValue(0, 0, 0));
 8006068:	200c      	movs	r0, #12
 800606a:	f7fb fa1b 	bl	80014a4 <lcdTextX>
 800606e:	4603      	mov	r3, r0
 8006070:	461c      	mov	r4, r3
 8006072:	2006      	movs	r0, #6
 8006074:	f7fb fa26 	bl	80014c4 <lcdTextY>
 8006078:	4603      	mov	r3, r0
 800607a:	461d      	mov	r5, r3
 800607c:	22ff      	movs	r2, #255	; 0xff
 800607e:	21ff      	movs	r1, #255	; 0xff
 8006080:	20ff      	movs	r0, #255	; 0xff
 8006082:	f7fb f9f3 	bl	800146c <decodeRgbValue>
 8006086:	4603      	mov	r3, r0
 8006088:	461e      	mov	r6, r3
 800608a:	2200      	movs	r2, #0
 800608c:	2100      	movs	r1, #0
 800608e:	2000      	movs	r0, #0
 8006090:	f7fb f9ec 	bl	800146c <decodeRgbValue>
 8006094:	4603      	mov	r3, r0
 8006096:	9300      	str	r3, [sp, #0]
 8006098:	4633      	mov	r3, r6
 800609a:	462a      	mov	r2, r5
 800609c:	4621      	mov	r1, r4
 800609e:	489c      	ldr	r0, [pc, #624]	; (8006310 <showHighscore+0x594>)
 80060a0:	f7fb fa1e 	bl	80014e0 <lcdPutS>
	sprintf(hScore2, "%d", highscore[1]);
 80060a4:	687b      	ldr	r3, [r7, #4]
 80060a6:	3304      	adds	r3, #4
 80060a8:	681a      	ldr	r2, [r3, #0]
 80060aa:	f107 0324 	add.w	r3, r7, #36	; 0x24
 80060ae:	4999      	ldr	r1, [pc, #612]	; (8006314 <showHighscore+0x598>)
 80060b0:	4618      	mov	r0, r3
 80060b2:	f001 fe19 	bl	8007ce8 <siprintf>
	lcdPutS(hScore2, lcdTextX(14), lcdTextY(6), decodeRgbValue(255, 255, 255), decodeRgbValue(0, 0, 0));
 80060b6:	200e      	movs	r0, #14
 80060b8:	f7fb f9f4 	bl	80014a4 <lcdTextX>
 80060bc:	4603      	mov	r3, r0
 80060be:	461c      	mov	r4, r3
 80060c0:	2006      	movs	r0, #6
 80060c2:	f7fb f9ff 	bl	80014c4 <lcdTextY>
 80060c6:	4603      	mov	r3, r0
 80060c8:	461d      	mov	r5, r3
 80060ca:	22ff      	movs	r2, #255	; 0xff
 80060cc:	21ff      	movs	r1, #255	; 0xff
 80060ce:	20ff      	movs	r0, #255	; 0xff
 80060d0:	f7fb f9cc 	bl	800146c <decodeRgbValue>
 80060d4:	4603      	mov	r3, r0
 80060d6:	461e      	mov	r6, r3
 80060d8:	2200      	movs	r2, #0
 80060da:	2100      	movs	r1, #0
 80060dc:	2000      	movs	r0, #0
 80060de:	f7fb f9c5 	bl	800146c <decodeRgbValue>
 80060e2:	4603      	mov	r3, r0
 80060e4:	f107 0024 	add.w	r0, r7, #36	; 0x24
 80060e8:	9300      	str	r3, [sp, #0]
 80060ea:	4633      	mov	r3, r6
 80060ec:	462a      	mov	r2, r5
 80060ee:	4621      	mov	r1, r4
 80060f0:	f7fb f9f6 	bl	80014e0 <lcdPutS>
	lcdPutS("3.", lcdTextX(1), lcdTextY(8), decodeRgbValue(255, 255, 255), decodeRgbValue(0, 0, 0));
 80060f4:	2001      	movs	r0, #1
 80060f6:	f7fb f9d5 	bl	80014a4 <lcdTextX>
 80060fa:	4603      	mov	r3, r0
 80060fc:	461c      	mov	r4, r3
 80060fe:	2008      	movs	r0, #8
 8006100:	f7fb f9e0 	bl	80014c4 <lcdTextY>
 8006104:	4603      	mov	r3, r0
 8006106:	461d      	mov	r5, r3
 8006108:	22ff      	movs	r2, #255	; 0xff
 800610a:	21ff      	movs	r1, #255	; 0xff
 800610c:	20ff      	movs	r0, #255	; 0xff
 800610e:	f7fb f9ad 	bl	800146c <decodeRgbValue>
 8006112:	4603      	mov	r3, r0
 8006114:	461e      	mov	r6, r3
 8006116:	2200      	movs	r2, #0
 8006118:	2100      	movs	r1, #0
 800611a:	2000      	movs	r0, #0
 800611c:	f7fb f9a6 	bl	800146c <decodeRgbValue>
 8006120:	4603      	mov	r3, r0
 8006122:	9300      	str	r3, [sp, #0]
 8006124:	4633      	mov	r3, r6
 8006126:	462a      	mov	r2, r5
 8006128:	4621      	mov	r1, r4
 800612a:	487c      	ldr	r0, [pc, #496]	; (800631c <showHighscore+0x5a0>)
 800612c:	f7fb f9d8 	bl	80014e0 <lcdPutS>

	lcdPutS(":", lcdTextX(12), lcdTextY(8), decodeRgbValue(255, 255, 255), decodeRgbValue(0, 0, 0));
 8006130:	200c      	movs	r0, #12
 8006132:	f7fb f9b7 	bl	80014a4 <lcdTextX>
 8006136:	4603      	mov	r3, r0
 8006138:	461c      	mov	r4, r3
 800613a:	2008      	movs	r0, #8
 800613c:	f7fb f9c2 	bl	80014c4 <lcdTextY>
 8006140:	4603      	mov	r3, r0
 8006142:	461d      	mov	r5, r3
 8006144:	22ff      	movs	r2, #255	; 0xff
 8006146:	21ff      	movs	r1, #255	; 0xff
 8006148:	20ff      	movs	r0, #255	; 0xff
 800614a:	f7fb f98f 	bl	800146c <decodeRgbValue>
 800614e:	4603      	mov	r3, r0
 8006150:	461e      	mov	r6, r3
 8006152:	2200      	movs	r2, #0
 8006154:	2100      	movs	r1, #0
 8006156:	2000      	movs	r0, #0
 8006158:	f7fb f988 	bl	800146c <decodeRgbValue>
 800615c:	4603      	mov	r3, r0
 800615e:	9300      	str	r3, [sp, #0]
 8006160:	4633      	mov	r3, r6
 8006162:	462a      	mov	r2, r5
 8006164:	4621      	mov	r1, r4
 8006166:	486a      	ldr	r0, [pc, #424]	; (8006310 <showHighscore+0x594>)
 8006168:	f7fb f9ba 	bl	80014e0 <lcdPutS>
	sprintf(hScore3, "%d", highscore[2]);
 800616c:	687b      	ldr	r3, [r7, #4]
 800616e:	3308      	adds	r3, #8
 8006170:	681a      	ldr	r2, [r3, #0]
 8006172:	f107 031c 	add.w	r3, r7, #28
 8006176:	4967      	ldr	r1, [pc, #412]	; (8006314 <showHighscore+0x598>)
 8006178:	4618      	mov	r0, r3
 800617a:	f001 fdb5 	bl	8007ce8 <siprintf>
	lcdPutS(hScore3, lcdTextX(14), lcdTextY(8), decodeRgbValue(255, 255, 255), decodeRgbValue(0, 0, 0));
 800617e:	200e      	movs	r0, #14
 8006180:	f7fb f990 	bl	80014a4 <lcdTextX>
 8006184:	4603      	mov	r3, r0
 8006186:	461c      	mov	r4, r3
 8006188:	2008      	movs	r0, #8
 800618a:	f7fb f99b 	bl	80014c4 <lcdTextY>
 800618e:	4603      	mov	r3, r0
 8006190:	461d      	mov	r5, r3
 8006192:	22ff      	movs	r2, #255	; 0xff
 8006194:	21ff      	movs	r1, #255	; 0xff
 8006196:	20ff      	movs	r0, #255	; 0xff
 8006198:	f7fb f968 	bl	800146c <decodeRgbValue>
 800619c:	4603      	mov	r3, r0
 800619e:	461e      	mov	r6, r3
 80061a0:	2200      	movs	r2, #0
 80061a2:	2100      	movs	r1, #0
 80061a4:	2000      	movs	r0, #0
 80061a6:	f7fb f961 	bl	800146c <decodeRgbValue>
 80061aa:	4603      	mov	r3, r0
 80061ac:	f107 001c 	add.w	r0, r7, #28
 80061b0:	9300      	str	r3, [sp, #0]
 80061b2:	4633      	mov	r3, r6
 80061b4:	462a      	mov	r2, r5
 80061b6:	4621      	mov	r1, r4
 80061b8:	f7fb f992 	bl	80014e0 <lcdPutS>
	lcdPutS("4.", lcdTextX(1), lcdTextY(10), decodeRgbValue(255, 255, 255), decodeRgbValue(0, 0, 0));
 80061bc:	2001      	movs	r0, #1
 80061be:	f7fb f971 	bl	80014a4 <lcdTextX>
 80061c2:	4603      	mov	r3, r0
 80061c4:	461c      	mov	r4, r3
 80061c6:	200a      	movs	r0, #10
 80061c8:	f7fb f97c 	bl	80014c4 <lcdTextY>
 80061cc:	4603      	mov	r3, r0
 80061ce:	461d      	mov	r5, r3
 80061d0:	22ff      	movs	r2, #255	; 0xff
 80061d2:	21ff      	movs	r1, #255	; 0xff
 80061d4:	20ff      	movs	r0, #255	; 0xff
 80061d6:	f7fb f949 	bl	800146c <decodeRgbValue>
 80061da:	4603      	mov	r3, r0
 80061dc:	461e      	mov	r6, r3
 80061de:	2200      	movs	r2, #0
 80061e0:	2100      	movs	r1, #0
 80061e2:	2000      	movs	r0, #0
 80061e4:	f7fb f942 	bl	800146c <decodeRgbValue>
 80061e8:	4603      	mov	r3, r0
 80061ea:	9300      	str	r3, [sp, #0]
 80061ec:	4633      	mov	r3, r6
 80061ee:	462a      	mov	r2, r5
 80061f0:	4621      	mov	r1, r4
 80061f2:	484b      	ldr	r0, [pc, #300]	; (8006320 <showHighscore+0x5a4>)
 80061f4:	f7fb f974 	bl	80014e0 <lcdPutS>

	lcdPutS(":", lcdTextX(12), lcdTextY(10), decodeRgbValue(255, 255, 255), decodeRgbValue(0, 0, 0));
 80061f8:	200c      	movs	r0, #12
 80061fa:	f7fb f953 	bl	80014a4 <lcdTextX>
 80061fe:	4603      	mov	r3, r0
 8006200:	461c      	mov	r4, r3
 8006202:	200a      	movs	r0, #10
 8006204:	f7fb f95e 	bl	80014c4 <lcdTextY>
 8006208:	4603      	mov	r3, r0
 800620a:	461d      	mov	r5, r3
 800620c:	22ff      	movs	r2, #255	; 0xff
 800620e:	21ff      	movs	r1, #255	; 0xff
 8006210:	20ff      	movs	r0, #255	; 0xff
 8006212:	f7fb f92b 	bl	800146c <decodeRgbValue>
 8006216:	4603      	mov	r3, r0
 8006218:	461e      	mov	r6, r3
 800621a:	2200      	movs	r2, #0
 800621c:	2100      	movs	r1, #0
 800621e:	2000      	movs	r0, #0
 8006220:	f7fb f924 	bl	800146c <decodeRgbValue>
 8006224:	4603      	mov	r3, r0
 8006226:	9300      	str	r3, [sp, #0]
 8006228:	4633      	mov	r3, r6
 800622a:	462a      	mov	r2, r5
 800622c:	4621      	mov	r1, r4
 800622e:	4838      	ldr	r0, [pc, #224]	; (8006310 <showHighscore+0x594>)
 8006230:	f7fb f956 	bl	80014e0 <lcdPutS>
	sprintf(hScore4, "%d", highscore[3]);
 8006234:	687b      	ldr	r3, [r7, #4]
 8006236:	330c      	adds	r3, #12
 8006238:	681a      	ldr	r2, [r3, #0]
 800623a:	f107 0314 	add.w	r3, r7, #20
 800623e:	4935      	ldr	r1, [pc, #212]	; (8006314 <showHighscore+0x598>)
 8006240:	4618      	mov	r0, r3
 8006242:	f001 fd51 	bl	8007ce8 <siprintf>
	lcdPutS(hScore4, lcdTextX(14), lcdTextY(10), decodeRgbValue(255, 255, 255), decodeRgbValue(0, 0, 0));
 8006246:	200e      	movs	r0, #14
 8006248:	f7fb f92c 	bl	80014a4 <lcdTextX>
 800624c:	4603      	mov	r3, r0
 800624e:	461c      	mov	r4, r3
 8006250:	200a      	movs	r0, #10
 8006252:	f7fb f937 	bl	80014c4 <lcdTextY>
 8006256:	4603      	mov	r3, r0
 8006258:	461d      	mov	r5, r3
 800625a:	22ff      	movs	r2, #255	; 0xff
 800625c:	21ff      	movs	r1, #255	; 0xff
 800625e:	20ff      	movs	r0, #255	; 0xff
 8006260:	f7fb f904 	bl	800146c <decodeRgbValue>
 8006264:	4603      	mov	r3, r0
 8006266:	461e      	mov	r6, r3
 8006268:	2200      	movs	r2, #0
 800626a:	2100      	movs	r1, #0
 800626c:	2000      	movs	r0, #0
 800626e:	f7fb f8fd 	bl	800146c <decodeRgbValue>
 8006272:	4603      	mov	r3, r0
 8006274:	f107 0014 	add.w	r0, r7, #20
 8006278:	9300      	str	r3, [sp, #0]
 800627a:	4633      	mov	r3, r6
 800627c:	462a      	mov	r2, r5
 800627e:	4621      	mov	r1, r4
 8006280:	f7fb f92e 	bl	80014e0 <lcdPutS>
	lcdPutS("5.", lcdTextX(1), lcdTextY(12), decodeRgbValue(255, 255, 255), decodeRgbValue(0, 0, 0));
 8006284:	2001      	movs	r0, #1
 8006286:	f7fb f90d 	bl	80014a4 <lcdTextX>
 800628a:	4603      	mov	r3, r0
 800628c:	461c      	mov	r4, r3
 800628e:	200c      	movs	r0, #12
 8006290:	f7fb f918 	bl	80014c4 <lcdTextY>
 8006294:	4603      	mov	r3, r0
 8006296:	461d      	mov	r5, r3
 8006298:	22ff      	movs	r2, #255	; 0xff
 800629a:	21ff      	movs	r1, #255	; 0xff
 800629c:	20ff      	movs	r0, #255	; 0xff
 800629e:	f7fb f8e5 	bl	800146c <decodeRgbValue>
 80062a2:	4603      	mov	r3, r0
 80062a4:	461e      	mov	r6, r3
 80062a6:	2200      	movs	r2, #0
 80062a8:	2100      	movs	r1, #0
 80062aa:	2000      	movs	r0, #0
 80062ac:	f7fb f8de 	bl	800146c <decodeRgbValue>
 80062b0:	4603      	mov	r3, r0
 80062b2:	9300      	str	r3, [sp, #0]
 80062b4:	4633      	mov	r3, r6
 80062b6:	462a      	mov	r2, r5
 80062b8:	4621      	mov	r1, r4
 80062ba:	481a      	ldr	r0, [pc, #104]	; (8006324 <showHighscore+0x5a8>)
 80062bc:	f7fb f910 	bl	80014e0 <lcdPutS>

	lcdPutS(":", lcdTextX(12), lcdTextY(12), decodeRgbValue(255, 255, 255), decodeRgbValue(0, 0, 0));
 80062c0:	200c      	movs	r0, #12
 80062c2:	f7fb f8ef 	bl	80014a4 <lcdTextX>
 80062c6:	4603      	mov	r3, r0
 80062c8:	461c      	mov	r4, r3
 80062ca:	200c      	movs	r0, #12
 80062cc:	f7fb f8fa 	bl	80014c4 <lcdTextY>
 80062d0:	4603      	mov	r3, r0
 80062d2:	461d      	mov	r5, r3
 80062d4:	22ff      	movs	r2, #255	; 0xff
 80062d6:	21ff      	movs	r1, #255	; 0xff
 80062d8:	20ff      	movs	r0, #255	; 0xff
 80062da:	f7fb f8c7 	bl	800146c <decodeRgbValue>
 80062de:	4603      	mov	r3, r0
 80062e0:	461e      	mov	r6, r3
 80062e2:	2200      	movs	r2, #0
 80062e4:	2100      	movs	r1, #0
 80062e6:	2000      	movs	r0, #0
 80062e8:	f7fb f8c0 	bl	800146c <decodeRgbValue>
 80062ec:	4603      	mov	r3, r0
 80062ee:	9300      	str	r3, [sp, #0]
 80062f0:	4633      	mov	r3, r6
 80062f2:	462a      	mov	r2, r5
 80062f4:	4621      	mov	r1, r4
 80062f6:	4806      	ldr	r0, [pc, #24]	; (8006310 <showHighscore+0x594>)
 80062f8:	f7fb f8f2 	bl	80014e0 <lcdPutS>
	sprintf(hScore5, "%d", highscore[4]);
 80062fc:	687b      	ldr	r3, [r7, #4]
 80062fe:	3310      	adds	r3, #16
 8006300:	681a      	ldr	r2, [r3, #0]
 8006302:	f107 030c 	add.w	r3, r7, #12
 8006306:	e00f      	b.n	8006328 <showHighscore+0x5ac>
 8006308:	08007dc8 	.word	0x08007dc8
 800630c:	08007dd4 	.word	0x08007dd4
 8006310:	08007dd8 	.word	0x08007dd8
 8006314:	08007ddc 	.word	0x08007ddc
 8006318:	08007de0 	.word	0x08007de0
 800631c:	08007de4 	.word	0x08007de4
 8006320:	08007de8 	.word	0x08007de8
 8006324:	08007dec 	.word	0x08007dec
 8006328:	4913      	ldr	r1, [pc, #76]	; (8006378 <showHighscore+0x5fc>)
 800632a:	4618      	mov	r0, r3
 800632c:	f001 fcdc 	bl	8007ce8 <siprintf>
	lcdPutS(hScore5, lcdTextX(14), lcdTextY(12), decodeRgbValue(255, 255, 255), decodeRgbValue(0, 0, 0));
 8006330:	200e      	movs	r0, #14
 8006332:	f7fb f8b7 	bl	80014a4 <lcdTextX>
 8006336:	4603      	mov	r3, r0
 8006338:	461c      	mov	r4, r3
 800633a:	200c      	movs	r0, #12
 800633c:	f7fb f8c2 	bl	80014c4 <lcdTextY>
 8006340:	4603      	mov	r3, r0
 8006342:	461d      	mov	r5, r3
 8006344:	22ff      	movs	r2, #255	; 0xff
 8006346:	21ff      	movs	r1, #255	; 0xff
 8006348:	20ff      	movs	r0, #255	; 0xff
 800634a:	f7fb f88f 	bl	800146c <decodeRgbValue>
 800634e:	4603      	mov	r3, r0
 8006350:	461e      	mov	r6, r3
 8006352:	2200      	movs	r2, #0
 8006354:	2100      	movs	r1, #0
 8006356:	2000      	movs	r0, #0
 8006358:	f7fb f888 	bl	800146c <decodeRgbValue>
 800635c:	4603      	mov	r3, r0
 800635e:	f107 000c 	add.w	r0, r7, #12
 8006362:	9300      	str	r3, [sp, #0]
 8006364:	4633      	mov	r3, r6
 8006366:	462a      	mov	r2, r5
 8006368:	4621      	mov	r1, r4
 800636a:	f7fb f8b9 	bl	80014e0 <lcdPutS>
}
 800636e:	bf00      	nop
 8006370:	3738      	adds	r7, #56	; 0x38
 8006372:	46bd      	mov	sp, r7
 8006374:	e8bd 81f0 	ldmia.w	sp!, {r4, r5, r6, r7, r8, pc}
 8006378:	08007ddc 	.word	0x08007ddc

0800637c <setName>:

void setName(int abcVolba, char* abc[]){
 800637c:	e92d 41f0 	stmdb	sp!, {r4, r5, r6, r7, r8, lr}
 8006380:	b088      	sub	sp, #32
 8006382:	af02      	add	r7, sp, #8
 8006384:	6078      	str	r0, [r7, #4]
 8006386:	6039      	str	r1, [r7, #0]
	int k = 2;
 8006388:	2302      	movs	r3, #2
 800638a:	617b      	str	r3, [r7, #20]
	int y = 4;
 800638c:	2304      	movs	r3, #4
 800638e:	613b      	str	r3, [r7, #16]
	lcdPutS("Choose characters", lcdTextX(2), lcdTextY(1), decodeRgbValue(255, 255, 255), decodeRgbValue(0, 0, 0));
 8006390:	2002      	movs	r0, #2
 8006392:	f7fb f887 	bl	80014a4 <lcdTextX>
 8006396:	4603      	mov	r3, r0
 8006398:	461c      	mov	r4, r3
 800639a:	2001      	movs	r0, #1
 800639c:	f7fb f892 	bl	80014c4 <lcdTextY>
 80063a0:	4603      	mov	r3, r0
 80063a2:	461d      	mov	r5, r3
 80063a4:	22ff      	movs	r2, #255	; 0xff
 80063a6:	21ff      	movs	r1, #255	; 0xff
 80063a8:	20ff      	movs	r0, #255	; 0xff
 80063aa:	f7fb f85f 	bl	800146c <decodeRgbValue>
 80063ae:	4603      	mov	r3, r0
 80063b0:	461e      	mov	r6, r3
 80063b2:	2200      	movs	r2, #0
 80063b4:	2100      	movs	r1, #0
 80063b6:	2000      	movs	r0, #0
 80063b8:	f7fb f858 	bl	800146c <decodeRgbValue>
 80063bc:	4603      	mov	r3, r0
 80063be:	9300      	str	r3, [sp, #0]
 80063c0:	4633      	mov	r3, r6
 80063c2:	462a      	mov	r2, r5
 80063c4:	4621      	mov	r1, r4
 80063c6:	4841      	ldr	r0, [pc, #260]	; (80064cc <setName+0x150>)
 80063c8:	f7fb f88a 	bl	80014e0 <lcdPutS>
	for(int i=0; i<29; i++){
 80063cc:	2300      	movs	r3, #0
 80063ce:	60fb      	str	r3, [r7, #12]
 80063d0:	e074      	b.n	80064bc <setName+0x140>
		if (k<17 && y<10){
 80063d2:	697b      	ldr	r3, [r7, #20]
 80063d4:	2b10      	cmp	r3, #16
 80063d6:	dc06      	bgt.n	80063e6 <setName+0x6a>
 80063d8:	693b      	ldr	r3, [r7, #16]
 80063da:	2b09      	cmp	r3, #9
 80063dc:	dc03      	bgt.n	80063e6 <setName+0x6a>
			k=k+2;
 80063de:	697b      	ldr	r3, [r7, #20]
 80063e0:	3302      	adds	r3, #2
 80063e2:	617b      	str	r3, [r7, #20]
 80063e4:	e014      	b.n	8006410 <setName+0x94>
		}
		else if (k>16 && y<10){
 80063e6:	697b      	ldr	r3, [r7, #20]
 80063e8:	2b10      	cmp	r3, #16
 80063ea:	dd08      	ble.n	80063fe <setName+0x82>
 80063ec:	693b      	ldr	r3, [r7, #16]
 80063ee:	2b09      	cmp	r3, #9
 80063f0:	dc05      	bgt.n	80063fe <setName+0x82>
			y=y+2;
 80063f2:	693b      	ldr	r3, [r7, #16]
 80063f4:	3302      	adds	r3, #2
 80063f6:	613b      	str	r3, [r7, #16]
			k=2;
 80063f8:	2302      	movs	r3, #2
 80063fa:	617b      	str	r3, [r7, #20]
 80063fc:	e008      	b.n	8006410 <setName+0x94>
		}
		else if (k<17 && y>9){
 80063fe:	697b      	ldr	r3, [r7, #20]
 8006400:	2b10      	cmp	r3, #16
 8006402:	dc05      	bgt.n	8006410 <setName+0x94>
 8006404:	693b      	ldr	r3, [r7, #16]
 8006406:	2b09      	cmp	r3, #9
 8006408:	dd02      	ble.n	8006410 <setName+0x94>
			k=k+7;
 800640a:	697b      	ldr	r3, [r7, #20]
 800640c:	3307      	adds	r3, #7
 800640e:	617b      	str	r3, [r7, #20]
		}
		if (i==abcVolba)
 8006410:	68fa      	ldr	r2, [r7, #12]
 8006412:	687b      	ldr	r3, [r7, #4]
 8006414:	429a      	cmp	r2, r3
 8006416:	d127      	bne.n	8006468 <setName+0xec>
			lcdPutS(abc[i], lcdTextX(k), lcdTextY(y), decodeRgbValue(0, 0, 0), decodeRgbValue(255, 255, 255));
 8006418:	68fb      	ldr	r3, [r7, #12]
 800641a:	009b      	lsls	r3, r3, #2
 800641c:	683a      	ldr	r2, [r7, #0]
 800641e:	4413      	add	r3, r2
 8006420:	681c      	ldr	r4, [r3, #0]
 8006422:	697b      	ldr	r3, [r7, #20]
 8006424:	b2db      	uxtb	r3, r3
 8006426:	4618      	mov	r0, r3
 8006428:	f7fb f83c 	bl	80014a4 <lcdTextX>
 800642c:	4603      	mov	r3, r0
 800642e:	461d      	mov	r5, r3
 8006430:	693b      	ldr	r3, [r7, #16]
 8006432:	b2db      	uxtb	r3, r3
 8006434:	4618      	mov	r0, r3
 8006436:	f7fb f845 	bl	80014c4 <lcdTextY>
 800643a:	4603      	mov	r3, r0
 800643c:	461e      	mov	r6, r3
 800643e:	2200      	movs	r2, #0
 8006440:	2100      	movs	r1, #0
 8006442:	2000      	movs	r0, #0
 8006444:	f7fb f812 	bl	800146c <decodeRgbValue>
 8006448:	4603      	mov	r3, r0
 800644a:	4698      	mov	r8, r3
 800644c:	22ff      	movs	r2, #255	; 0xff
 800644e:	21ff      	movs	r1, #255	; 0xff
 8006450:	20ff      	movs	r0, #255	; 0xff
 8006452:	f7fb f80b 	bl	800146c <decodeRgbValue>
 8006456:	4603      	mov	r3, r0
 8006458:	9300      	str	r3, [sp, #0]
 800645a:	4643      	mov	r3, r8
 800645c:	4632      	mov	r2, r6
 800645e:	4629      	mov	r1, r5
 8006460:	4620      	mov	r0, r4
 8006462:	f7fb f83d 	bl	80014e0 <lcdPutS>
 8006466:	e026      	b.n	80064b6 <setName+0x13a>
		else
			lcdPutS(abc[i], lcdTextX(k), lcdTextY(y), decodeRgbValue(255, 255, 255), decodeRgbValue(0, 0, 0));
 8006468:	68fb      	ldr	r3, [r7, #12]
 800646a:	009b      	lsls	r3, r3, #2
 800646c:	683a      	ldr	r2, [r7, #0]
 800646e:	4413      	add	r3, r2
 8006470:	681c      	ldr	r4, [r3, #0]
 8006472:	697b      	ldr	r3, [r7, #20]
 8006474:	b2db      	uxtb	r3, r3
 8006476:	4618      	mov	r0, r3
 8006478:	f7fb f814 	bl	80014a4 <lcdTextX>
 800647c:	4603      	mov	r3, r0
 800647e:	461d      	mov	r5, r3
 8006480:	693b      	ldr	r3, [r7, #16]
 8006482:	b2db      	uxtb	r3, r3
 8006484:	4618      	mov	r0, r3
 8006486:	f7fb f81d 	bl	80014c4 <lcdTextY>
 800648a:	4603      	mov	r3, r0
 800648c:	461e      	mov	r6, r3
 800648e:	22ff      	movs	r2, #255	; 0xff
 8006490:	21ff      	movs	r1, #255	; 0xff
 8006492:	20ff      	movs	r0, #255	; 0xff
 8006494:	f7fa ffea 	bl	800146c <decodeRgbValue>
 8006498:	4603      	mov	r3, r0
 800649a:	4698      	mov	r8, r3
 800649c:	2200      	movs	r2, #0
 800649e:	2100      	movs	r1, #0
 80064a0:	2000      	movs	r0, #0
 80064a2:	f7fa ffe3 	bl	800146c <decodeRgbValue>
 80064a6:	4603      	mov	r3, r0
 80064a8:	9300      	str	r3, [sp, #0]
 80064aa:	4643      	mov	r3, r8
 80064ac:	4632      	mov	r2, r6
 80064ae:	4629      	mov	r1, r5
 80064b0:	4620      	mov	r0, r4
 80064b2:	f7fb f815 	bl	80014e0 <lcdPutS>

void setName(int abcVolba, char* abc[]){
	int k = 2;
	int y = 4;
	lcdPutS("Choose characters", lcdTextX(2), lcdTextY(1), decodeRgbValue(255, 255, 255), decodeRgbValue(0, 0, 0));
	for(int i=0; i<29; i++){
 80064b6:	68fb      	ldr	r3, [r7, #12]
 80064b8:	3301      	adds	r3, #1
 80064ba:	60fb      	str	r3, [r7, #12]
 80064bc:	68fb      	ldr	r3, [r7, #12]
 80064be:	2b1c      	cmp	r3, #28
 80064c0:	dd87      	ble.n	80063d2 <setName+0x56>
			lcdPutS(abc[i], lcdTextX(k), lcdTextY(y), decodeRgbValue(0, 0, 0), decodeRgbValue(255, 255, 255));
		else
			lcdPutS(abc[i], lcdTextX(k), lcdTextY(y), decodeRgbValue(255, 255, 255), decodeRgbValue(0, 0, 0));
	}

}
 80064c2:	bf00      	nop
 80064c4:	3718      	adds	r7, #24
 80064c6:	46bd      	mov	sp, r7
 80064c8:	e8bd 81f0 	ldmia.w	sp!, {r4, r5, r6, r7, r8, pc}
 80064cc:	08007df0 	.word	0x08007df0

080064d0 <ADC1_IRQHandler>:
#include <string.h>
#include <stdio.h>

volatile int AD_value = 0;

void ADC1_IRQHandler(void) {
 80064d0:	b480      	push	{r7}
 80064d2:	af00      	add	r7, sp, #0
	if (ADC1->SR & ADC_SR_EOC) {
 80064d4:	4b07      	ldr	r3, [pc, #28]	; (80064f4 <ADC1_IRQHandler+0x24>)
 80064d6:	681b      	ldr	r3, [r3, #0]
 80064d8:	f003 0302 	and.w	r3, r3, #2
 80064dc:	2b00      	cmp	r3, #0
 80064de:	d004      	beq.n	80064ea <ADC1_IRQHandler+0x1a>
		AD_value = ADC1->DR;
 80064e0:	4b04      	ldr	r3, [pc, #16]	; (80064f4 <ADC1_IRQHandler+0x24>)
 80064e2:	6d9b      	ldr	r3, [r3, #88]	; 0x58
 80064e4:	461a      	mov	r2, r3
 80064e6:	4b04      	ldr	r3, [pc, #16]	; (80064f8 <ADC1_IRQHandler+0x28>)
 80064e8:	601a      	str	r2, [r3, #0]
	}
}
 80064ea:	bf00      	nop
 80064ec:	46bd      	mov	sp, r7
 80064ee:	bc80      	pop	{r7}
 80064f0:	4770      	bx	lr
 80064f2:	bf00      	nop
 80064f4:	40012400 	.word	0x40012400
 80064f8:	20000034 	.word	0x20000034

080064fc <adc_init>:

void adc_init(void)
{
 80064fc:	b580      	push	{r7, lr}
 80064fe:	b088      	sub	sp, #32
 8006500:	af00      	add	r7, sp, #0
  GPIO_InitTypeDef GPIO_InitStructure;
  ADC_InitTypeDef ADC_InitStructure;
  /* Enable GPIO clock */
  RCC_AHBPeriphClockCmd(RCC_AHBPeriph_GPIOA, ENABLE);
 8006502:	2101      	movs	r1, #1
 8006504:	2001      	movs	r0, #1
 8006506:	f7fa fb79 	bl	8000bfc <RCC_AHBPeriphClockCmd>
  /* Configure ADCx Channel 2 as analog input */
  GPIO_InitStructure.GPIO_Pin = GPIO_Pin_0 ;
 800650a:	2301      	movs	r3, #1
 800650c:	61bb      	str	r3, [r7, #24]
  GPIO_InitStructure.GPIO_Mode = GPIO_Mode_AN;
 800650e:	2303      	movs	r3, #3
 8006510:	773b      	strb	r3, [r7, #28]
  GPIO_InitStructure.GPIO_PuPd = GPIO_PuPd_NOPULL ;
 8006512:	2300      	movs	r3, #0
 8006514:	77fb      	strb	r3, [r7, #31]
  GPIO_Init(GPIOA, &GPIO_InitStructure);
 8006516:	f107 0318 	add.w	r3, r7, #24
 800651a:	4619      	mov	r1, r3
 800651c:	481e      	ldr	r0, [pc, #120]	; (8006598 <adc_init+0x9c>)
 800651e:	f7fa fa7f 	bl	8000a20 <GPIO_Init>
  /* Enable the HSI oscillator */
  RCC_HSICmd(ENABLE);
 8006522:	2001      	movs	r0, #1
 8006524:	f7fa fb5a 	bl	8000bdc <RCC_HSICmd>
  /* Check that HSI oscillator is ready */
  while(RCC_GetFlagStatus(RCC_FLAG_HSIRDY) == RESET);
 8006528:	bf00      	nop
 800652a:	2021      	movs	r0, #33	; 0x21
 800652c:	f7fa fba2 	bl	8000c74 <RCC_GetFlagStatus>
 8006530:	4603      	mov	r3, r0
 8006532:	2b00      	cmp	r3, #0
 8006534:	d0f9      	beq.n	800652a <adc_init+0x2e>
  /* Enable ADC clock */
  RCC_APB2PeriphClockCmd(RCC_APB2Periph_ADC1, ENABLE);
 8006536:	2101      	movs	r1, #1
 8006538:	f44f 7000 	mov.w	r0, #512	; 0x200
 800653c:	f7fa fb7c 	bl	8000c38 <RCC_APB2PeriphClockCmd>
  /* Initialize ADC structure */
  ADC_StructInit(&ADC_InitStructure);
 8006540:	463b      	mov	r3, r7
 8006542:	4618      	mov	r0, r3
 8006544:	f7fa f878 	bl	8000638 <ADC_StructInit>
  /* ADC1 configuration */
  ADC_InitStructure.ADC_Resolution = ADC_Resolution_12b;
 8006548:	2300      	movs	r3, #0
 800654a:	603b      	str	r3, [r7, #0]
  ADC_InitStructure.ADC_ContinuousConvMode = ENABLE;
 800654c:	2301      	movs	r3, #1
 800654e:	717b      	strb	r3, [r7, #5]
  ADC_InitStructure.ADC_ExternalTrigConvEdge = ADC_ExternalTrigConvEdge_None;
 8006550:	2300      	movs	r3, #0
 8006552:	60bb      	str	r3, [r7, #8]
  ADC_InitStructure.ADC_DataAlign = ADC_DataAlign_Right;
 8006554:	2300      	movs	r3, #0
 8006556:	613b      	str	r3, [r7, #16]
  ADC_InitStructure.ADC_NbrOfConversion = 1;
 8006558:	2301      	movs	r3, #1
 800655a:	753b      	strb	r3, [r7, #20]
  ADC_Init(ADC1, &ADC_InitStructure);
 800655c:	463b      	mov	r3, r7
 800655e:	4619      	mov	r1, r3
 8006560:	480e      	ldr	r0, [pc, #56]	; (800659c <adc_init+0xa0>)
 8006562:	f7fa f815 	bl	8000590 <ADC_Init>
  /* ADCx regular channel8 configuration */
  ADC_RegularChannelConfig(ADC1, ADC_Channel_0, 1, ADC_SampleTime_96Cycles);
 8006566:	2305      	movs	r3, #5
 8006568:	2201      	movs	r2, #1
 800656a:	2100      	movs	r1, #0
 800656c:	480b      	ldr	r0, [pc, #44]	; (800659c <adc_init+0xa0>)
 800656e:	f7fa f89f 	bl	80006b0 <ADC_RegularChannelConfig>
  /* Enable the ADC */
  ADC_Cmd(ADC1, ENABLE);
 8006572:	2101      	movs	r1, #1
 8006574:	4809      	ldr	r0, [pc, #36]	; (800659c <adc_init+0xa0>)
 8006576:	f7fa f87f 	bl	8000678 <ADC_Cmd>

  /* Wait until the ADC1 is ready */
  while(ADC_GetFlagStatus(ADC1, ADC_FLAG_ADONS) == RESET)
 800657a:	bf00      	nop
 800657c:	2140      	movs	r1, #64	; 0x40
 800657e:	4807      	ldr	r0, [pc, #28]	; (800659c <adc_init+0xa0>)
 8006580:	f7fa fa34 	bl	80009ec <ADC_GetFlagStatus>
 8006584:	4603      	mov	r3, r0
 8006586:	2b00      	cmp	r3, #0
 8006588:	d0f8      	beq.n	800657c <adc_init+0x80>
  {
  }
  /* Start ADC Software Conversion */
  ADC_SoftwareStartConv(ADC1);
 800658a:	4804      	ldr	r0, [pc, #16]	; (800659c <adc_init+0xa0>)
 800658c:	f7fa f9f6 	bl	800097c <ADC_SoftwareStartConv>
}
 8006590:	bf00      	nop
 8006592:	3720      	adds	r7, #32
 8006594:	46bd      	mov	sp, r7
 8006596:	bd80      	pop	{r7, pc}
 8006598:	40020000 	.word	0x40020000
 800659c:	40012400 	.word	0x40012400

080065a0 <startupNVIC>:

void startupNVIC(){
 80065a0:	b580      	push	{r7, lr}
 80065a2:	b082      	sub	sp, #8
 80065a4:	af00      	add	r7, sp, #0
	NVIC_PriorityGroupConfig(NVIC_PriorityGroup_0);
 80065a6:	f44f 60e0 	mov.w	r0, #1792	; 0x700
 80065aa:	f7f9 ff7f 	bl	80004ac <NVIC_PriorityGroupConfig>

	NVIC_InitTypeDef NVIC_InitStructure;
	NVIC_InitStructure.NVIC_IRQChannel = ADC1_IRQn; // nam preruen njdete v sbore stm32l1xx.h
 80065ae:	2312      	movs	r3, #18
 80065b0:	713b      	strb	r3, [r7, #4]
	NVIC_InitStructure.NVIC_IRQChannelPreemptionPriority = 2;
 80065b2:	2302      	movs	r3, #2
 80065b4:	717b      	strb	r3, [r7, #5]
	NVIC_InitStructure.NVIC_IRQChannelSubPriority = 0;
 80065b6:	2300      	movs	r3, #0
 80065b8:	71bb      	strb	r3, [r7, #6]
	NVIC_InitStructure.NVIC_IRQChannelCmd = ENABLE;
 80065ba:	2301      	movs	r3, #1
 80065bc:	71fb      	strb	r3, [r7, #7]
	NVIC_Init(&NVIC_InitStructure);
 80065be:	1d3b      	adds	r3, r7, #4
 80065c0:	4618      	mov	r0, r3
 80065c2:	f7f9 ff85 	bl	80004d0 <NVIC_Init>
}
 80065c6:	bf00      	nop
 80065c8:	3708      	adds	r7, #8
 80065ca:	46bd      	mov	sp, r7
 80065cc:	bd80      	pop	{r7, pc}
 80065ce:	bf00      	nop

080065d0 <main>:
**  Abstract: main program
**
**===========================================================================
*/
int main(void)
{
 80065d0:	e92d 41f0 	stmdb	sp!, {r4, r5, r6, r7, r8, lr}
 80065d4:	f5ad 4d10 	sub.w	sp, sp, #36864	; 0x9000
 80065d8:	b0b4      	sub	sp, #208	; 0xd0
 80065da:	af02      	add	r7, sp, #8
	adc_init();
 80065dc:	f7ff ff8e 	bl	80064fc <adc_init>
	startupNVIC();
 80065e0:	f7ff ffde 	bl	80065a0 <startupNVIC>
	ADC_ITConfig(ADC1, ADC_IT_EOC, ENABLE);
 80065e4:	2201      	movs	r2, #1
 80065e6:	f240 2105 	movw	r1, #517	; 0x205
 80065ea:	48c3      	ldr	r0, [pc, #780]	; (80068f8 <main+0x328>)
 80065ec:	f7fa f9d6 	bl	800099c <ADC_ITConfig>
	initSPI2();
 80065f0:	f7fa fc68 	bl	8000ec4 <initSPI2>
	initCD_Pin();
 80065f4:	f7fa fcf8 	bl	8000fe8 <initCD_Pin>
	initCS_Pin();
 80065f8:	f7fa fcd8 	bl	8000fac <initCS_Pin>
	initRES_Pin();
 80065fc:	f7fa fd2a 	bl	8001054 <initRES_Pin>
	lcdInitialise(LCD_ORIENTATION0); // inicialiyuje LCD
 8006600:	2000      	movs	r0, #0
 8006602:	f7fa fda3 	bl	800114c <lcdInitialise>

	lcdClearDisplay(decodeRgbValue(0, 0, 0));   	// vycisti obrazovku
 8006606:	2200      	movs	r2, #0
 8006608:	2100      	movs	r1, #0
 800660a:	2000      	movs	r0, #0
 800660c:	f7fa ff2e 	bl	800146c <decodeRgbValue>
 8006610:	4603      	mov	r3, r0
 8006612:	4618      	mov	r0, r3
 8006614:	f7fa fe76 	bl	8001304 <lcdClearDisplay>
  	uint8_t blockX[1000]; 		// X-ova pozicia
  	uint8_t blockY[1000]; 		// Y-ova pozicia
  	uint8_t xDir[1000];  		// velkost kroku na X-ovej osi
  	uint8_t yDir[1000];			// velkost kroku na Y-ovej osi
  	int count;					// pocitadlo objektu
  	int score = 0;				// score v tvare int
 8006618:	2300      	movs	r3, #0
 800661a:	f507 4210 	add.w	r2, r7, #36864	; 0x9000
 800661e:	f102 02c0 	add.w	r2, r2, #192	; 0xc0
 8006622:	6013      	str	r3, [r2, #0]
  	char scoree[8];				// score v tvare string
  	int lines = 0;
 8006624:	2300      	movs	r3, #0
 8006626:	f507 4210 	add.w	r2, r7, #36864	; 0x9000
 800662a:	f102 02bc 	add.w	r2, r2, #188	; 0xbc
 800662e:	6013      	str	r3, [r2, #0]
  	char line[10];
  	uint16_t matrix[128][128];	// matica hry

  	//vytvorenie objektov
  	for (count = 0; count < 1000; count++){
 8006630:	2300      	movs	r3, #0
 8006632:	f507 4210 	add.w	r2, r7, #36864	; 0x9000
 8006636:	f102 02c4 	add.w	r2, r2, #196	; 0xc4
 800663a:	6013      	str	r3, [r2, #0]
 800663c:	e03a      	b.n	80066b4 <main+0xe4>
		blockX[count] = 81; 	// zaciatocna X-ova pozicia objektu
 800663e:	f507 420c 	add.w	r2, r7, #35840	; 0x8c00
 8006642:	f102 02ac 	add.w	r2, r2, #172	; 0xac
 8006646:	f507 4310 	add.w	r3, r7, #36864	; 0x9000
 800664a:	f103 03c4 	add.w	r3, r3, #196	; 0xc4
 800664e:	681b      	ldr	r3, [r3, #0]
 8006650:	4413      	add	r3, r2
 8006652:	2251      	movs	r2, #81	; 0x51
 8006654:	701a      	strb	r2, [r3, #0]
		blockY[count] = 0; 	// zaciatocna Y-ova pozicia objektu
 8006656:	f507 4208 	add.w	r2, r7, #34816	; 0x8800
 800665a:	f102 02c4 	add.w	r2, r2, #196	; 0xc4
 800665e:	f507 4310 	add.w	r3, r7, #36864	; 0x9000
 8006662:	f103 03c4 	add.w	r3, r3, #196	; 0xc4
 8006666:	681b      	ldr	r3, [r3, #0]
 8006668:	4413      	add	r3, r2
 800666a:	2200      	movs	r2, #0
 800666c:	701a      	strb	r2, [r3, #0]
		xDir[count] = 6; 	// velkost jedneho kroku na X-ovej osi
 800666e:	f507 4204 	add.w	r2, r7, #33792	; 0x8400
 8006672:	f102 02dc 	add.w	r2, r2, #220	; 0xdc
 8006676:	f507 4310 	add.w	r3, r7, #36864	; 0x9000
 800667a:	f103 03c4 	add.w	r3, r3, #196	; 0xc4
 800667e:	681b      	ldr	r3, [r3, #0]
 8006680:	4413      	add	r3, r2
 8006682:	2206      	movs	r2, #6
 8006684:	701a      	strb	r2, [r3, #0]
		yDir[count] = 6; 	// velkost jedneho kroku na Y-ovej osi
 8006686:	f507 4200 	add.w	r2, r7, #32768	; 0x8000
 800668a:	f102 02f4 	add.w	r2, r2, #244	; 0xf4
 800668e:	f507 4310 	add.w	r3, r7, #36864	; 0x9000
 8006692:	f103 03c4 	add.w	r3, r3, #196	; 0xc4
 8006696:	681b      	ldr	r3, [r3, #0]
 8006698:	4413      	add	r3, r2
 800669a:	2206      	movs	r2, #6
 800669c:	701a      	strb	r2, [r3, #0]
  	int lines = 0;
  	char line[10];
  	uint16_t matrix[128][128];	// matica hry

  	//vytvorenie objektov
  	for (count = 0; count < 1000; count++){
 800669e:	f507 4310 	add.w	r3, r7, #36864	; 0x9000
 80066a2:	f103 03c4 	add.w	r3, r3, #196	; 0xc4
 80066a6:	681b      	ldr	r3, [r3, #0]
 80066a8:	3301      	adds	r3, #1
 80066aa:	f507 4210 	add.w	r2, r7, #36864	; 0x9000
 80066ae:	f102 02c4 	add.w	r2, r2, #196	; 0xc4
 80066b2:	6013      	str	r3, [r2, #0]
 80066b4:	f507 4310 	add.w	r3, r7, #36864	; 0x9000
 80066b8:	f103 03c4 	add.w	r3, r3, #196	; 0xc4
 80066bc:	681b      	ldr	r3, [r3, #0]
 80066be:	f5b3 7f7a 	cmp.w	r3, #1000	; 0x3e8
 80066c2:	dbbc      	blt.n	800663e <main+0x6e>
		blockX[count] = 81; 	// zaciatocna X-ova pozicia objektu
		blockY[count] = 0; 	// zaciatocna Y-ova pozicia objektu
		xDir[count] = 6; 	// velkost jedneho kroku na X-ovej osi
		yDir[count] = 6; 	// velkost jedneho kroku na Y-ovej osi
  	}
  	count = 0; 				// pocitadlo
 80066c4:	2300      	movs	r3, #0
 80066c6:	f507 4210 	add.w	r2, r7, #36864	; 0x9000
 80066ca:	f102 02c4 	add.w	r2, r2, #196	; 0xc4
 80066ce:	6013      	str	r3, [r2, #0]
  	int cc=0;
 80066d0:	2300      	movs	r3, #0
 80066d2:	f507 4210 	add.w	r2, r7, #36864	; 0x9000
 80066d6:	f102 02b8 	add.w	r2, r2, #184	; 0xb8
 80066da:	6013      	str	r3, [r2, #0]
  	int cas = 0;
 80066dc:	2300      	movs	r3, #0
 80066de:	f507 4210 	add.w	r2, r7, #36864	; 0x9000
 80066e2:	f102 02b4 	add.w	r2, r2, #180	; 0xb4
 80066e6:	6013      	str	r3, [r2, #0]
  	int t = 0;
 80066e8:	2300      	movs	r3, #0
 80066ea:	f507 4210 	add.w	r2, r7, #36864	; 0x9000
 80066ee:	f102 02b0 	add.w	r2, r2, #176	; 0xb0
 80066f2:	6013      	str	r3, [r2, #0]
  	char time[10];
  	int cisloTvaru;
  	int tempScore=0;
 80066f4:	2300      	movs	r3, #0
 80066f6:	f507 4210 	add.w	r2, r7, #36864	; 0x9000
 80066fa:	f102 0294 	add.w	r2, r2, #148	; 0x94
 80066fe:	6013      	str	r3, [r2, #0]
  	int run = 0;
 8006700:	2300      	movs	r3, #0
 8006702:	f507 4210 	add.w	r2, r7, #36864	; 0x9000
 8006706:	f102 02a8 	add.w	r2, r2, #168	; 0xa8
 800670a:	6013      	str	r3, [r2, #0]
  	int highscore[] = {500, 400, 300, 200, 100};
 800670c:	f107 03c8 	add.w	r3, r7, #200	; 0xc8
 8006710:	3b08      	subs	r3, #8
 8006712:	4a7a      	ldr	r2, [pc, #488]	; (80068fc <main+0x32c>)
 8006714:	461c      	mov	r4, r3
 8006716:	4615      	mov	r5, r2
 8006718:	cd0f      	ldmia	r5!, {r0, r1, r2, r3}
 800671a:	c40f      	stmia	r4!, {r0, r1, r2, r3}
 800671c:	682b      	ldr	r3, [r5, #0]
 800671e:	6023      	str	r3, [r4, #0]
  	char* names[] = { "Player1", "Player2" , "Player3", "Player4", "Player5"};
 8006720:	f107 03c8 	add.w	r3, r7, #200	; 0xc8
 8006724:	3b1c      	subs	r3, #28
 8006726:	4a76      	ldr	r2, [pc, #472]	; (8006900 <main+0x330>)
 8006728:	461c      	mov	r4, r3
 800672a:	4615      	mov	r5, r2
 800672c:	cd0f      	ldmia	r5!, {r0, r1, r2, r3}
 800672e:	c40f      	stmia	r4!, {r0, r1, r2, r3}
 8006730:	682b      	ldr	r3, [r5, #0]
 8006732:	6023      	str	r3, [r4, #0]
  	char alias[7] = "Noname";
 8006734:	f107 03c8 	add.w	r3, r7, #200	; 0xc8
 8006738:	3b24      	subs	r3, #36	; 0x24
 800673a:	4a72      	ldr	r2, [pc, #456]	; (8006904 <main+0x334>)
 800673c:	e892 0003 	ldmia.w	r2, {r0, r1}
 8006740:	6018      	str	r0, [r3, #0]
 8006742:	3304      	adds	r3, #4
 8006744:	8019      	strh	r1, [r3, #0]
 8006746:	3302      	adds	r3, #2
 8006748:	0c0a      	lsrs	r2, r1, #16
 800674a:	701a      	strb	r2, [r3, #0]
  	int abcVolba = 0 ;
 800674c:	2300      	movs	r3, #0
 800674e:	f507 4210 	add.w	r2, r7, #36864	; 0x9000
 8006752:	f102 02a4 	add.w	r2, r2, #164	; 0xa4
 8006756:	6013      	str	r3, [r2, #0]
  	char* menuVolba[] = {"PLAY GAME", "CHANGE MY NAME", "HIGH SCORE"};
 8006758:	f107 03c8 	add.w	r3, r7, #200	; 0xc8
 800675c:	3b30      	subs	r3, #48	; 0x30
 800675e:	4a6a      	ldr	r2, [pc, #424]	; (8006908 <main+0x338>)
 8006760:	ca07      	ldmia	r2, {r0, r1, r2}
 8006762:	e883 0007 	stmia.w	r3, {r0, r1, r2}
  	char* abc[] = {"A","B","C","D","E","F","G","H","I","J","K","L","M","N","O","P","Q","R","S","T","U","V","W","X","Y","Z","Esc","Del","Ent"};
 8006766:	f107 03c8 	add.w	r3, r7, #200	; 0xc8
 800676a:	3ba4      	subs	r3, #164	; 0xa4
 800676c:	4a67      	ldr	r2, [pc, #412]	; (800690c <main+0x33c>)
 800676e:	4618      	mov	r0, r3
 8006770:	4611      	mov	r1, r2
 8006772:	2374      	movs	r3, #116	; 0x74
 8006774:	461a      	mov	r2, r3
 8006776:	f001 faf3 	bl	8007d60 <memcpy>
  	char abc2[] = {'A','B','C','D','E','F','G','H','I','J','K','L','M','N','O','P','Q','R','S','T','U','V','W','X','Y','Z'};
 800677a:	f107 03c8 	add.w	r3, r7, #200	; 0xc8
 800677e:	3bc0      	subs	r3, #192	; 0xc0
 8006780:	4a63      	ldr	r2, [pc, #396]	; (8006910 <main+0x340>)
 8006782:	461c      	mov	r4, r3
 8006784:	4615      	mov	r5, r2
 8006786:	6828      	ldr	r0, [r5, #0]
 8006788:	6869      	ldr	r1, [r5, #4]
 800678a:	68aa      	ldr	r2, [r5, #8]
 800678c:	68eb      	ldr	r3, [r5, #12]
 800678e:	c40f      	stmia	r4!, {r0, r1, r2, r3}
 8006790:	6928      	ldr	r0, [r5, #16]
 8006792:	6969      	ldr	r1, [r5, #20]
 8006794:	c403      	stmia	r4!, {r0, r1}
 8006796:	8b2b      	ldrh	r3, [r5, #24]
 8006798:	8023      	strh	r3, [r4, #0]
  	char newAlias[7] =  "";
 800679a:	f107 03c8 	add.w	r3, r7, #200	; 0xc8
 800679e:	3bc8      	subs	r3, #200	; 0xc8
 80067a0:	2200      	movs	r2, #0
 80067a2:	601a      	str	r2, [r3, #0]
 80067a4:	3304      	adds	r3, #4
 80067a6:	2100      	movs	r1, #0
 80067a8:	460a      	mov	r2, r1
 80067aa:	801a      	strh	r2, [r3, #0]
 80067ac:	460a      	mov	r2, r1
 80067ae:	709a      	strb	r2, [r3, #2]
  	// vytvorenie ramy a vyplnit vsetko ine na ciernu farbu
  	createFrame(matrix);
 80067b0:	f507 73e4 	add.w	r3, r7, #456	; 0x1c8
 80067b4:	3be8      	subs	r3, #232	; 0xe8
 80067b6:	4618      	mov	r0, r3
 80067b8:	f7fd fbcc 	bl	8003f54 <createFrame>
  	int index = 0;
 80067bc:	2300      	movs	r3, #0
 80067be:	f507 4210 	add.w	r2, r7, #36864	; 0x9000
 80067c2:	f102 02a0 	add.w	r2, r2, #160	; 0xa0
 80067c6:	6013      	str	r3, [r2, #0]

	//cisloTvaru = generateNumber(AD_value);
  	cisloTvaru = generateNumber(AD_value);
 80067c8:	4b52      	ldr	r3, [pc, #328]	; (8006914 <main+0x344>)
 80067ca:	681b      	ldr	r3, [r3, #0]
 80067cc:	4618      	mov	r0, r3
 80067ce:	f7ff f8ff 	bl	80059d0 <generateNumber>
 80067d2:	f507 4310 	add.w	r3, r7, #36864	; 0x9000
 80067d6:	f103 03ac 	add.w	r3, r3, #172	; 0xac
 80067da:	6018      	str	r0, [r3, #0]
	int volba =0;
 80067dc:	2300      	movs	r3, #0
 80067de:	f507 4210 	add.w	r2, r7, #36864	; 0x9000
 80067e2:	f102 029c 	add.w	r2, r2, #156	; 0x9c
 80067e6:	6013      	str	r3, [r2, #0]
  /* Infinite loop */
  while (1)
  {
	  if (run == 0){ // menu
 80067e8:	f507 4310 	add.w	r3, r7, #36864	; 0x9000
 80067ec:	f103 03a8 	add.w	r3, r3, #168	; 0xa8
 80067f0:	681b      	ldr	r3, [r3, #0]
 80067f2:	2b00      	cmp	r3, #0
 80067f4:	f040 80da 	bne.w	80069ac <main+0x3dc>
		  menu(AD_value, volba, menuVolba);
 80067f8:	4b46      	ldr	r3, [pc, #280]	; (8006914 <main+0x344>)
 80067fa:	6818      	ldr	r0, [r3, #0]
 80067fc:	f107 03c8 	add.w	r3, r7, #200	; 0xc8
 8006800:	3b30      	subs	r3, #48	; 0x30
 8006802:	461a      	mov	r2, r3
 8006804:	f507 4310 	add.w	r3, r7, #36864	; 0x9000
 8006808:	f103 039c 	add.w	r3, r3, #156	; 0x9c
 800680c:	6819      	ldr	r1, [r3, #0]
 800680e:	f7ff f9ff 	bl	8005c10 <menu>
		  if ((AD_value>1700) && (AD_value<2300)){
 8006812:	4b40      	ldr	r3, [pc, #256]	; (8006914 <main+0x344>)
 8006814:	681b      	ldr	r3, [r3, #0]
 8006816:	f240 62a4 	movw	r2, #1700	; 0x6a4
 800681a:	4293      	cmp	r3, r2
 800681c:	dd20      	ble.n	8006860 <main+0x290>
 800681e:	4b3d      	ldr	r3, [pc, #244]	; (8006914 <main+0x344>)
 8006820:	681b      	ldr	r3, [r3, #0]
 8006822:	f640 02fb 	movw	r2, #2299	; 0x8fb
 8006826:	4293      	cmp	r3, r2
 8006828:	dc1a      	bgt.n	8006860 <main+0x290>
			  volba+=1;
 800682a:	f507 4310 	add.w	r3, r7, #36864	; 0x9000
 800682e:	f103 039c 	add.w	r3, r3, #156	; 0x9c
 8006832:	681b      	ldr	r3, [r3, #0]
 8006834:	3301      	adds	r3, #1
 8006836:	f507 4210 	add.w	r2, r7, #36864	; 0x9000
 800683a:	f102 029c 	add.w	r2, r2, #156	; 0x9c
 800683e:	6013      	str	r3, [r2, #0]
			  if (volba > 2)
 8006840:	f507 4310 	add.w	r3, r7, #36864	; 0x9000
 8006844:	f103 039c 	add.w	r3, r3, #156	; 0x9c
 8006848:	681b      	ldr	r3, [r3, #0]
 800684a:	2b02      	cmp	r3, #2
 800684c:	f341 8039 	ble.w	80078c2 <main+0x12f2>
				  volba = 0;
 8006850:	2300      	movs	r3, #0
 8006852:	f507 4210 	add.w	r2, r7, #36864	; 0x9000
 8006856:	f102 029c 	add.w	r2, r2, #156	; 0x9c
 800685a:	6013      	str	r3, [r2, #0]
  {
	  if (run == 0){ // menu
		  menu(AD_value, volba, menuVolba);
		  if ((AD_value>1700) && (AD_value<2300)){
			  volba+=1;
			  if (volba > 2)
 800685c:	f001 b831 	b.w	80078c2 <main+0x12f2>
				  volba = 0;
		  }
		  else if ((AD_value>2500) && (AD_value<3100)){
 8006860:	4b2c      	ldr	r3, [pc, #176]	; (8006914 <main+0x344>)
 8006862:	681b      	ldr	r3, [r3, #0]
 8006864:	f640 12c4 	movw	r2, #2500	; 0x9c4
 8006868:	4293      	cmp	r3, r2
 800686a:	dd20      	ble.n	80068ae <main+0x2de>
 800686c:	4b29      	ldr	r3, [pc, #164]	; (8006914 <main+0x344>)
 800686e:	681b      	ldr	r3, [r3, #0]
 8006870:	f640 421b 	movw	r2, #3099	; 0xc1b
 8006874:	4293      	cmp	r3, r2
 8006876:	dc1a      	bgt.n	80068ae <main+0x2de>
			  volba-=1;
 8006878:	f507 4310 	add.w	r3, r7, #36864	; 0x9000
 800687c:	f103 039c 	add.w	r3, r3, #156	; 0x9c
 8006880:	681b      	ldr	r3, [r3, #0]
 8006882:	3b01      	subs	r3, #1
 8006884:	f507 4210 	add.w	r2, r7, #36864	; 0x9000
 8006888:	f102 029c 	add.w	r2, r2, #156	; 0x9c
 800688c:	6013      	str	r3, [r2, #0]
			  if (volba < 0)
 800688e:	f507 4310 	add.w	r3, r7, #36864	; 0x9000
 8006892:	f103 039c 	add.w	r3, r3, #156	; 0x9c
 8006896:	681b      	ldr	r3, [r3, #0]
 8006898:	2b00      	cmp	r3, #0
 800689a:	f281 8012 	bge.w	80078c2 <main+0x12f2>
				  volba = 2;
 800689e:	2302      	movs	r3, #2
 80068a0:	f507 4210 	add.w	r2, r7, #36864	; 0x9000
 80068a4:	f102 029c 	add.w	r2, r2, #156	; 0x9c
 80068a8:	6013      	str	r3, [r2, #0]
			  if (volba > 2)
				  volba = 0;
		  }
		  else if ((AD_value>2500) && (AD_value<3100)){
			  volba-=1;
			  if (volba < 0)
 80068aa:	f001 b80a 	b.w	80078c2 <main+0x12f2>
				  volba = 2;
		  }
		  else if (((AD_value>3300) && (AD_value<3650)) && volba == 0){
 80068ae:	4b19      	ldr	r3, [pc, #100]	; (8006914 <main+0x344>)
 80068b0:	681b      	ldr	r3, [r3, #0]
 80068b2:	f640 42e4 	movw	r2, #3300	; 0xce4
 80068b6:	4293      	cmp	r3, r2
 80068b8:	dd2e      	ble.n	8006918 <main+0x348>
 80068ba:	4b16      	ldr	r3, [pc, #88]	; (8006914 <main+0x344>)
 80068bc:	681b      	ldr	r3, [r3, #0]
 80068be:	f640 6241 	movw	r2, #3649	; 0xe41
 80068c2:	4293      	cmp	r3, r2
 80068c4:	dc28      	bgt.n	8006918 <main+0x348>
 80068c6:	f507 4310 	add.w	r3, r7, #36864	; 0x9000
 80068ca:	f103 039c 	add.w	r3, r3, #156	; 0x9c
 80068ce:	681b      	ldr	r3, [r3, #0]
 80068d0:	2b00      	cmp	r3, #0
 80068d2:	d121      	bne.n	8006918 <main+0x348>
			  lcdClearDisplay(decodeRgbValue(0, 0, 0));
 80068d4:	2200      	movs	r2, #0
 80068d6:	2100      	movs	r1, #0
 80068d8:	2000      	movs	r0, #0
 80068da:	f7fa fdc7 	bl	800146c <decodeRgbValue>
 80068de:	4603      	mov	r3, r0
 80068e0:	4618      	mov	r0, r3
 80068e2:	f7fa fd0f 	bl	8001304 <lcdClearDisplay>
			  run = 1;
 80068e6:	2301      	movs	r3, #1
 80068e8:	f507 4210 	add.w	r2, r7, #36864	; 0x9000
 80068ec:	f102 02a8 	add.w	r2, r2, #168	; 0xa8
 80068f0:	6013      	str	r3, [r2, #0]
 80068f2:	f000 bfe6 	b.w	80078c2 <main+0x12f2>
 80068f6:	bf00      	nop
 80068f8:	40012400 	.word	0x40012400
 80068fc:	08007e5c 	.word	0x08007e5c
 8006900:	08007e98 	.word	0x08007e98
 8006904:	08007eac 	.word	0x08007eac
 8006908:	08007edc 	.word	0x08007edc
 800690c:	08007f5c 	.word	0x08007f5c
 8006910:	08007fd0 	.word	0x08007fd0
 8006914:	20000034 	.word	0x20000034
		  }
		  else if (((AD_value>3300) && (AD_value<3650)) && volba == 1){
 8006918:	4bb4      	ldr	r3, [pc, #720]	; (8006bec <main+0x61c>)
 800691a:	681b      	ldr	r3, [r3, #0]
 800691c:	f640 42e4 	movw	r2, #3300	; 0xce4
 8006920:	4293      	cmp	r3, r2
 8006922:	dd1d      	ble.n	8006960 <main+0x390>
 8006924:	4bb1      	ldr	r3, [pc, #708]	; (8006bec <main+0x61c>)
 8006926:	681b      	ldr	r3, [r3, #0]
 8006928:	f640 6241 	movw	r2, #3649	; 0xe41
 800692c:	4293      	cmp	r3, r2
 800692e:	dc17      	bgt.n	8006960 <main+0x390>
 8006930:	f507 4310 	add.w	r3, r7, #36864	; 0x9000
 8006934:	f103 039c 	add.w	r3, r3, #156	; 0x9c
 8006938:	681b      	ldr	r3, [r3, #0]
 800693a:	2b01      	cmp	r3, #1
 800693c:	d110      	bne.n	8006960 <main+0x390>
			  lcdClearDisplay(decodeRgbValue(0, 0, 0));
 800693e:	2200      	movs	r2, #0
 8006940:	2100      	movs	r1, #0
 8006942:	2000      	movs	r0, #0
 8006944:	f7fa fd92 	bl	800146c <decodeRgbValue>
 8006948:	4603      	mov	r3, r0
 800694a:	4618      	mov	r0, r3
 800694c:	f7fa fcda 	bl	8001304 <lcdClearDisplay>
			  run = 2;
 8006950:	2302      	movs	r3, #2
 8006952:	f507 4210 	add.w	r2, r7, #36864	; 0x9000
 8006956:	f102 02a8 	add.w	r2, r2, #168	; 0xa8
 800695a:	6013      	str	r3, [r2, #0]
 800695c:	f000 bfb1 	b.w	80078c2 <main+0x12f2>
		  }
		  else if (((AD_value>3300) && (AD_value<3650)) && volba == 2){
 8006960:	4ba2      	ldr	r3, [pc, #648]	; (8006bec <main+0x61c>)
 8006962:	681b      	ldr	r3, [r3, #0]
 8006964:	f640 42e4 	movw	r2, #3300	; 0xce4
 8006968:	4293      	cmp	r3, r2
 800696a:	f77f af3d 	ble.w	80067e8 <main+0x218>
 800696e:	4b9f      	ldr	r3, [pc, #636]	; (8006bec <main+0x61c>)
 8006970:	681b      	ldr	r3, [r3, #0]
 8006972:	f640 6241 	movw	r2, #3649	; 0xe41
 8006976:	4293      	cmp	r3, r2
 8006978:	f73f af36 	bgt.w	80067e8 <main+0x218>
 800697c:	f507 4310 	add.w	r3, r7, #36864	; 0x9000
 8006980:	f103 039c 	add.w	r3, r3, #156	; 0x9c
 8006984:	681b      	ldr	r3, [r3, #0]
 8006986:	2b02      	cmp	r3, #2
 8006988:	f47f af2e 	bne.w	80067e8 <main+0x218>
			  lcdClearDisplay(decodeRgbValue(0, 0, 0));
 800698c:	2200      	movs	r2, #0
 800698e:	2100      	movs	r1, #0
 8006990:	2000      	movs	r0, #0
 8006992:	f7fa fd6b 	bl	800146c <decodeRgbValue>
 8006996:	4603      	mov	r3, r0
 8006998:	4618      	mov	r0, r3
 800699a:	f7fa fcb3 	bl	8001304 <lcdClearDisplay>
			  run = 3;
 800699e:	2303      	movs	r3, #3
 80069a0:	f507 4210 	add.w	r2, r7, #36864	; 0x9000
 80069a4:	f102 02a8 	add.w	r2, r2, #168	; 0xa8
 80069a8:	6013      	str	r3, [r2, #0]
 80069aa:	e71d      	b.n	80067e8 <main+0x218>
		  }
	  }
	  else if (run == 1){ // play
 80069ac:	f507 4310 	add.w	r3, r7, #36864	; 0x9000
 80069b0:	f103 03a8 	add.w	r3, r3, #168	; 0xa8
 80069b4:	681b      	ldr	r3, [r3, #0]
 80069b6:	2b01      	cmp	r3, #1
 80069b8:	f040 8395 	bne.w	80070e6 <main+0xb16>
		  createText(alias);   	// vypis textov
 80069bc:	f107 03c8 	add.w	r3, r7, #200	; 0xc8
 80069c0:	3b24      	subs	r3, #36	; 0x24
 80069c2:	4618      	mov	r0, r3
 80069c4:	f7fd fb0e 	bl	8003fe4 <createText>
	  		  cas++;
 80069c8:	f507 4310 	add.w	r3, r7, #36864	; 0x9000
 80069cc:	f103 03b4 	add.w	r3, r3, #180	; 0xb4
 80069d0:	681b      	ldr	r3, [r3, #0]
 80069d2:	3301      	adds	r3, #1
 80069d4:	f507 4210 	add.w	r2, r7, #36864	; 0x9000
 80069d8:	f102 02b4 	add.w	r2, r2, #180	; 0xb4
 80069dc:	6013      	str	r3, [r2, #0]
			  if (cas == 2){
 80069de:	f507 4310 	add.w	r3, r7, #36864	; 0x9000
 80069e2:	f103 03b4 	add.w	r3, r3, #180	; 0xb4
 80069e6:	681b      	ldr	r3, [r3, #0]
 80069e8:	2b02      	cmp	r3, #2
 80069ea:	d13c      	bne.n	8006a66 <main+0x496>
				  t++;
 80069ec:	f507 4310 	add.w	r3, r7, #36864	; 0x9000
 80069f0:	f103 03b0 	add.w	r3, r3, #176	; 0xb0
 80069f4:	681b      	ldr	r3, [r3, #0]
 80069f6:	3301      	adds	r3, #1
 80069f8:	f507 4210 	add.w	r2, r7, #36864	; 0x9000
 80069fc:	f102 02b0 	add.w	r2, r2, #176	; 0xb0
 8006a00:	6013      	str	r3, [r2, #0]
				  sprintf(time, "%d", t);
 8006a02:	f507 73e4 	add.w	r3, r7, #456	; 0x1c8
 8006a06:	3bf4      	subs	r3, #244	; 0xf4
 8006a08:	f507 4210 	add.w	r2, r7, #36864	; 0x9000
 8006a0c:	f102 02b0 	add.w	r2, r2, #176	; 0xb0
 8006a10:	6812      	ldr	r2, [r2, #0]
 8006a12:	4977      	ldr	r1, [pc, #476]	; (8006bf0 <main+0x620>)
 8006a14:	4618      	mov	r0, r3
 8006a16:	f001 f967 	bl	8007ce8 <siprintf>
				  lcdPutS(time, lcdTextX(1), lcdTextY(11), decodeRgbValue(255, 255, 255), decodeRgbValue(0, 0, 0));
 8006a1a:	2001      	movs	r0, #1
 8006a1c:	f7fa fd42 	bl	80014a4 <lcdTextX>
 8006a20:	4603      	mov	r3, r0
 8006a22:	461c      	mov	r4, r3
 8006a24:	200b      	movs	r0, #11
 8006a26:	f7fa fd4d 	bl	80014c4 <lcdTextY>
 8006a2a:	4603      	mov	r3, r0
 8006a2c:	461d      	mov	r5, r3
 8006a2e:	22ff      	movs	r2, #255	; 0xff
 8006a30:	21ff      	movs	r1, #255	; 0xff
 8006a32:	20ff      	movs	r0, #255	; 0xff
 8006a34:	f7fa fd1a 	bl	800146c <decodeRgbValue>
 8006a38:	4603      	mov	r3, r0
 8006a3a:	461e      	mov	r6, r3
 8006a3c:	2200      	movs	r2, #0
 8006a3e:	2100      	movs	r1, #0
 8006a40:	2000      	movs	r0, #0
 8006a42:	f7fa fd13 	bl	800146c <decodeRgbValue>
 8006a46:	4603      	mov	r3, r0
 8006a48:	f507 70e4 	add.w	r0, r7, #456	; 0x1c8
 8006a4c:	38f4      	subs	r0, #244	; 0xf4
 8006a4e:	9300      	str	r3, [sp, #0]
 8006a50:	4633      	mov	r3, r6
 8006a52:	462a      	mov	r2, r5
 8006a54:	4621      	mov	r1, r4
 8006a56:	f7fa fd43 	bl	80014e0 <lcdPutS>
				  cas = 0;
 8006a5a:	2300      	movs	r3, #0
 8006a5c:	f507 4210 	add.w	r2, r7, #36864	; 0x9000
 8006a60:	f102 02b4 	add.w	r2, r2, #180	; 0xb4
 8006a64:	6013      	str	r3, [r2, #0]
			  }
			  // v kazdom kroku aktualizuje maticu
			  matrixPlot(matrix, cisloTvaru);
 8006a66:	f507 73e4 	add.w	r3, r7, #456	; 0x1c8
 8006a6a:	3be8      	subs	r3, #232	; 0xe8
 8006a6c:	f507 4210 	add.w	r2, r7, #36864	; 0x9000
 8006a70:	f102 02ac 	add.w	r2, r2, #172	; 0xac
 8006a74:	6811      	ldr	r1, [r2, #0]
 8006a76:	4618      	mov	r0, r3
 8006a78:	f7fa fd6e 	bl	8001558 <matrixPlot>
			  // vymaze dany objekt
			  createDeleteBlock(matrix, blockX[count], blockY[count], cisloTvaru, 0);
 8006a7c:	f507 420c 	add.w	r2, r7, #35840	; 0x8c00
 8006a80:	f102 02ac 	add.w	r2, r2, #172	; 0xac
 8006a84:	f507 4310 	add.w	r3, r7, #36864	; 0x9000
 8006a88:	f103 03c4 	add.w	r3, r3, #196	; 0xc4
 8006a8c:	681b      	ldr	r3, [r3, #0]
 8006a8e:	4413      	add	r3, r2
 8006a90:	781b      	ldrb	r3, [r3, #0]
 8006a92:	b219      	sxth	r1, r3
 8006a94:	f507 4208 	add.w	r2, r7, #34816	; 0x8800
 8006a98:	f102 02c4 	add.w	r2, r2, #196	; 0xc4
 8006a9c:	f507 4310 	add.w	r3, r7, #36864	; 0x9000
 8006aa0:	f103 03c4 	add.w	r3, r3, #196	; 0xc4
 8006aa4:	681b      	ldr	r3, [r3, #0]
 8006aa6:	4413      	add	r3, r2
 8006aa8:	781b      	ldrb	r3, [r3, #0]
 8006aaa:	b21a      	sxth	r2, r3
 8006aac:	f507 70e4 	add.w	r0, r7, #456	; 0x1c8
 8006ab0:	38e8      	subs	r0, #232	; 0xe8
 8006ab2:	2300      	movs	r3, #0
 8006ab4:	9300      	str	r3, [sp, #0]
 8006ab6:	f507 4310 	add.w	r3, r7, #36864	; 0x9000
 8006aba:	f103 03ac 	add.w	r3, r3, #172	; 0xac
 8006abe:	681b      	ldr	r3, [r3, #0]
 8006ac0:	f7fa ffb0 	bl	8001a24 <createDeleteBlock>

			  // v kazdom kroku posuva objekt smerom dole
			  blockY[count] += yDir[count];
 8006ac4:	f507 4208 	add.w	r2, r7, #34816	; 0x8800
 8006ac8:	f102 02c4 	add.w	r2, r2, #196	; 0xc4
 8006acc:	f507 4310 	add.w	r3, r7, #36864	; 0x9000
 8006ad0:	f103 03c4 	add.w	r3, r3, #196	; 0xc4
 8006ad4:	681b      	ldr	r3, [r3, #0]
 8006ad6:	4413      	add	r3, r2
 8006ad8:	781a      	ldrb	r2, [r3, #0]
 8006ada:	f507 4100 	add.w	r1, r7, #32768	; 0x8000
 8006ade:	f101 01f4 	add.w	r1, r1, #244	; 0xf4
 8006ae2:	f507 4310 	add.w	r3, r7, #36864	; 0x9000
 8006ae6:	f103 03c4 	add.w	r3, r3, #196	; 0xc4
 8006aea:	681b      	ldr	r3, [r3, #0]
 8006aec:	440b      	add	r3, r1
 8006aee:	781b      	ldrb	r3, [r3, #0]
 8006af0:	4413      	add	r3, r2
 8006af2:	b2d9      	uxtb	r1, r3
 8006af4:	f507 4208 	add.w	r2, r7, #34816	; 0x8800
 8006af8:	f102 02c4 	add.w	r2, r2, #196	; 0xc4
 8006afc:	f507 4310 	add.w	r3, r7, #36864	; 0x9000
 8006b00:	f103 03c4 	add.w	r3, r3, #196	; 0xc4
 8006b04:	681b      	ldr	r3, [r3, #0]
 8006b06:	4413      	add	r3, r2
 8006b08:	460a      	mov	r2, r1
 8006b0a:	701a      	strb	r2, [r3, #0]

			  // ked gombiky su stlacene, tak posuva objekt dolava alebo doprava
			  if ((AD_value>1700) && (AD_value<2300)){
 8006b0c:	4b37      	ldr	r3, [pc, #220]	; (8006bec <main+0x61c>)
 8006b0e:	681b      	ldr	r3, [r3, #0]
 8006b10:	f240 62a4 	movw	r2, #1700	; 0x6a4
 8006b14:	4293      	cmp	r3, r2
 8006b16:	dd6d      	ble.n	8006bf4 <main+0x624>
 8006b18:	4b34      	ldr	r3, [pc, #208]	; (8006bec <main+0x61c>)
 8006b1a:	681b      	ldr	r3, [r3, #0]
 8006b1c:	f640 02fb 	movw	r2, #2299	; 0x8fb
 8006b20:	4293      	cmp	r3, r2
 8006b22:	dc67      	bgt.n	8006bf4 <main+0x624>
				  xDir[count] = 6;
 8006b24:	f507 4204 	add.w	r2, r7, #33792	; 0x8400
 8006b28:	f102 02dc 	add.w	r2, r2, #220	; 0xdc
 8006b2c:	f507 4310 	add.w	r3, r7, #36864	; 0x9000
 8006b30:	f103 03c4 	add.w	r3, r3, #196	; 0xc4
 8006b34:	681b      	ldr	r3, [r3, #0]
 8006b36:	4413      	add	r3, r2
 8006b38:	2206      	movs	r2, #6
 8006b3a:	701a      	strb	r2, [r3, #0]
				  // v kazdom kroku checkuje ci sa nenachadza nieco na lavej strane objektu
				  if (checkLeftSide(matrix, blockX[count],blockY[count], cisloTvaru)){ // lava strana
 8006b3c:	f507 420c 	add.w	r2, r7, #35840	; 0x8c00
 8006b40:	f102 02ac 	add.w	r2, r2, #172	; 0xac
 8006b44:	f507 4310 	add.w	r3, r7, #36864	; 0x9000
 8006b48:	f103 03c4 	add.w	r3, r3, #196	; 0xc4
 8006b4c:	681b      	ldr	r3, [r3, #0]
 8006b4e:	4413      	add	r3, r2
 8006b50:	781b      	ldrb	r3, [r3, #0]
 8006b52:	b219      	sxth	r1, r3
 8006b54:	f507 4208 	add.w	r2, r7, #34816	; 0x8800
 8006b58:	f102 02c4 	add.w	r2, r2, #196	; 0xc4
 8006b5c:	f507 4310 	add.w	r3, r7, #36864	; 0x9000
 8006b60:	f103 03c4 	add.w	r3, r3, #196	; 0xc4
 8006b64:	681b      	ldr	r3, [r3, #0]
 8006b66:	4413      	add	r3, r2
 8006b68:	781b      	ldrb	r3, [r3, #0]
 8006b6a:	b21a      	sxth	r2, r3
 8006b6c:	f507 70e4 	add.w	r0, r7, #456	; 0x1c8
 8006b70:	38e8      	subs	r0, #232	; 0xe8
 8006b72:	f507 4310 	add.w	r3, r7, #36864	; 0x9000
 8006b76:	f103 03ac 	add.w	r3, r3, #172	; 0xac
 8006b7a:	681b      	ldr	r3, [r3, #0]
 8006b7c:	f7fc f89e 	bl	8002cbc <checkLeftSide>
 8006b80:	4603      	mov	r3, r0
 8006b82:	2b00      	cmp	r3, #0
 8006b84:	d00c      	beq.n	8006ba0 <main+0x5d0>
					  xDir[count] = 0;
 8006b86:	f507 4204 	add.w	r2, r7, #33792	; 0x8400
 8006b8a:	f102 02dc 	add.w	r2, r2, #220	; 0xdc
 8006b8e:	f507 4310 	add.w	r3, r7, #36864	; 0x9000
 8006b92:	f103 03c4 	add.w	r3, r3, #196	; 0xc4
 8006b96:	681b      	ldr	r3, [r3, #0]
 8006b98:	4413      	add	r3, r2
 8006b9a:	2200      	movs	r2, #0
 8006b9c:	701a      	strb	r2, [r3, #0]

			  // ked gombiky su stlacene, tak posuva objekt dolava alebo doprava
			  if ((AD_value>1700) && (AD_value<2300)){
				  xDir[count] = 6;
				  // v kazdom kroku checkuje ci sa nenachadza nieco na lavej strane objektu
				  if (checkLeftSide(matrix, blockX[count],blockY[count], cisloTvaru)){ // lava strana
 8006b9e:	e14a      	b.n	8006e36 <main+0x866>
					  xDir[count] = 0;
				  }
				  else
					  blockX[count] -= xDir[count]; // dolava
 8006ba0:	f507 420c 	add.w	r2, r7, #35840	; 0x8c00
 8006ba4:	f102 02ac 	add.w	r2, r2, #172	; 0xac
 8006ba8:	f507 4310 	add.w	r3, r7, #36864	; 0x9000
 8006bac:	f103 03c4 	add.w	r3, r3, #196	; 0xc4
 8006bb0:	681b      	ldr	r3, [r3, #0]
 8006bb2:	4413      	add	r3, r2
 8006bb4:	781a      	ldrb	r2, [r3, #0]
 8006bb6:	f507 4104 	add.w	r1, r7, #33792	; 0x8400
 8006bba:	f101 01dc 	add.w	r1, r1, #220	; 0xdc
 8006bbe:	f507 4310 	add.w	r3, r7, #36864	; 0x9000
 8006bc2:	f103 03c4 	add.w	r3, r3, #196	; 0xc4
 8006bc6:	681b      	ldr	r3, [r3, #0]
 8006bc8:	440b      	add	r3, r1
 8006bca:	781b      	ldrb	r3, [r3, #0]
 8006bcc:	1ad3      	subs	r3, r2, r3
 8006bce:	b2d9      	uxtb	r1, r3
 8006bd0:	f507 420c 	add.w	r2, r7, #35840	; 0x8c00
 8006bd4:	f102 02ac 	add.w	r2, r2, #172	; 0xac
 8006bd8:	f507 4310 	add.w	r3, r7, #36864	; 0x9000
 8006bdc:	f103 03c4 	add.w	r3, r3, #196	; 0xc4
 8006be0:	681b      	ldr	r3, [r3, #0]
 8006be2:	4413      	add	r3, r2
 8006be4:	460a      	mov	r2, r1
 8006be6:	701a      	strb	r2, [r3, #0]

			  // ked gombiky su stlacene, tak posuva objekt dolava alebo doprava
			  if ((AD_value>1700) && (AD_value<2300)){
				  xDir[count] = 6;
				  // v kazdom kroku checkuje ci sa nenachadza nieco na lavej strane objektu
				  if (checkLeftSide(matrix, blockX[count],blockY[count], cisloTvaru)){ // lava strana
 8006be8:	e125      	b.n	8006e36 <main+0x866>
 8006bea:	bf00      	nop
 8006bec:	20000034 	.word	0x20000034
 8006bf0:	08007e04 	.word	0x08007e04
					  xDir[count] = 0;
				  }
				  else
					  blockX[count] -= xDir[count]; // dolava
			  }
			  else if ((AD_value>2500) && (AD_value<3100)){
 8006bf4:	4b82      	ldr	r3, [pc, #520]	; (8006e00 <main+0x830>)
 8006bf6:	681b      	ldr	r3, [r3, #0]
 8006bf8:	f640 12c4 	movw	r2, #2500	; 0x9c4
 8006bfc:	4293      	cmp	r3, r2
 8006bfe:	dd68      	ble.n	8006cd2 <main+0x702>
 8006c00:	4b7f      	ldr	r3, [pc, #508]	; (8006e00 <main+0x830>)
 8006c02:	681b      	ldr	r3, [r3, #0]
 8006c04:	f640 421b 	movw	r2, #3099	; 0xc1b
 8006c08:	4293      	cmp	r3, r2
 8006c0a:	dc62      	bgt.n	8006cd2 <main+0x702>
				  xDir[count] = 6;
 8006c0c:	f507 4204 	add.w	r2, r7, #33792	; 0x8400
 8006c10:	f102 02dc 	add.w	r2, r2, #220	; 0xdc
 8006c14:	f507 4310 	add.w	r3, r7, #36864	; 0x9000
 8006c18:	f103 03c4 	add.w	r3, r3, #196	; 0xc4
 8006c1c:	681b      	ldr	r3, [r3, #0]
 8006c1e:	4413      	add	r3, r2
 8006c20:	2206      	movs	r2, #6
 8006c22:	701a      	strb	r2, [r3, #0]
				  // v kazdom kroku checkuje ci sa nenachadza nieco na pravej strane objektu
				  if (checkRightSide(matrix, blockX[count],blockY[count], cisloTvaru)){ // prava strana
 8006c24:	f507 420c 	add.w	r2, r7, #35840	; 0x8c00
 8006c28:	f102 02ac 	add.w	r2, r2, #172	; 0xac
 8006c2c:	f507 4310 	add.w	r3, r7, #36864	; 0x9000
 8006c30:	f103 03c4 	add.w	r3, r3, #196	; 0xc4
 8006c34:	681b      	ldr	r3, [r3, #0]
 8006c36:	4413      	add	r3, r2
 8006c38:	781b      	ldrb	r3, [r3, #0]
 8006c3a:	b219      	sxth	r1, r3
 8006c3c:	f507 4208 	add.w	r2, r7, #34816	; 0x8800
 8006c40:	f102 02c4 	add.w	r2, r2, #196	; 0xc4
 8006c44:	f507 4310 	add.w	r3, r7, #36864	; 0x9000
 8006c48:	f103 03c4 	add.w	r3, r3, #196	; 0xc4
 8006c4c:	681b      	ldr	r3, [r3, #0]
 8006c4e:	4413      	add	r3, r2
 8006c50:	781b      	ldrb	r3, [r3, #0]
 8006c52:	b21a      	sxth	r2, r3
 8006c54:	f507 70e4 	add.w	r0, r7, #456	; 0x1c8
 8006c58:	38e8      	subs	r0, #232	; 0xe8
 8006c5a:	f507 4310 	add.w	r3, r7, #36864	; 0x9000
 8006c5e:	f103 03ac 	add.w	r3, r3, #172	; 0xac
 8006c62:	681b      	ldr	r3, [r3, #0]
 8006c64:	f7fc fc7a 	bl	800355c <checkRightSide>
 8006c68:	4603      	mov	r3, r0
 8006c6a:	2b00      	cmp	r3, #0
 8006c6c:	d00c      	beq.n	8006c88 <main+0x6b8>
					  xDir[count] = 0;
 8006c6e:	f507 4204 	add.w	r2, r7, #33792	; 0x8400
 8006c72:	f102 02dc 	add.w	r2, r2, #220	; 0xdc
 8006c76:	f507 4310 	add.w	r3, r7, #36864	; 0x9000
 8006c7a:	f103 03c4 	add.w	r3, r3, #196	; 0xc4
 8006c7e:	681b      	ldr	r3, [r3, #0]
 8006c80:	4413      	add	r3, r2
 8006c82:	2200      	movs	r2, #0
 8006c84:	701a      	strb	r2, [r3, #0]
					  blockX[count] -= xDir[count]; // dolava
			  }
			  else if ((AD_value>2500) && (AD_value<3100)){
				  xDir[count] = 6;
				  // v kazdom kroku checkuje ci sa nenachadza nieco na pravej strane objektu
				  if (checkRightSide(matrix, blockX[count],blockY[count], cisloTvaru)){ // prava strana
 8006c86:	e0d6      	b.n	8006e36 <main+0x866>
					  xDir[count] = 0;
				  }
				  else
					  blockX[count] += xDir[count]; // doprava
 8006c88:	f507 420c 	add.w	r2, r7, #35840	; 0x8c00
 8006c8c:	f102 02ac 	add.w	r2, r2, #172	; 0xac
 8006c90:	f507 4310 	add.w	r3, r7, #36864	; 0x9000
 8006c94:	f103 03c4 	add.w	r3, r3, #196	; 0xc4
 8006c98:	681b      	ldr	r3, [r3, #0]
 8006c9a:	4413      	add	r3, r2
 8006c9c:	781a      	ldrb	r2, [r3, #0]
 8006c9e:	f507 4104 	add.w	r1, r7, #33792	; 0x8400
 8006ca2:	f101 01dc 	add.w	r1, r1, #220	; 0xdc
 8006ca6:	f507 4310 	add.w	r3, r7, #36864	; 0x9000
 8006caa:	f103 03c4 	add.w	r3, r3, #196	; 0xc4
 8006cae:	681b      	ldr	r3, [r3, #0]
 8006cb0:	440b      	add	r3, r1
 8006cb2:	781b      	ldrb	r3, [r3, #0]
 8006cb4:	4413      	add	r3, r2
 8006cb6:	b2d9      	uxtb	r1, r3
 8006cb8:	f507 420c 	add.w	r2, r7, #35840	; 0x8c00
 8006cbc:	f102 02ac 	add.w	r2, r2, #172	; 0xac
 8006cc0:	f507 4310 	add.w	r3, r7, #36864	; 0x9000
 8006cc4:	f103 03c4 	add.w	r3, r3, #196	; 0xc4
 8006cc8:	681b      	ldr	r3, [r3, #0]
 8006cca:	4413      	add	r3, r2
 8006ccc:	460a      	mov	r2, r1
 8006cce:	701a      	strb	r2, [r3, #0]
					  blockX[count] -= xDir[count]; // dolava
			  }
			  else if ((AD_value>2500) && (AD_value<3100)){
				  xDir[count] = 6;
				  // v kazdom kroku checkuje ci sa nenachadza nieco na pravej strane objektu
				  if (checkRightSide(matrix, blockX[count],blockY[count], cisloTvaru)){ // prava strana
 8006cd0:	e0b1      	b.n	8006e36 <main+0x866>
				  }
				  else
					  blockX[count] += xDir[count]; // doprava
			  }
			  // ak stlacime stvrte tlacidlo, otoci sa objekt
			  else if ((AD_value>3520) && (AD_value<3650) && cc==0){
 8006cd2:	4b4b      	ldr	r3, [pc, #300]	; (8006e00 <main+0x830>)
 8006cd4:	681b      	ldr	r3, [r3, #0]
 8006cd6:	f5b3 6f5c 	cmp.w	r3, #3520	; 0xdc0
 8006cda:	dd44      	ble.n	8006d66 <main+0x796>
 8006cdc:	4b48      	ldr	r3, [pc, #288]	; (8006e00 <main+0x830>)
 8006cde:	681b      	ldr	r3, [r3, #0]
 8006ce0:	f640 6241 	movw	r2, #3649	; 0xe41
 8006ce4:	4293      	cmp	r3, r2
 8006ce6:	dc3e      	bgt.n	8006d66 <main+0x796>
 8006ce8:	f507 4310 	add.w	r3, r7, #36864	; 0x9000
 8006cec:	f103 03b8 	add.w	r3, r3, #184	; 0xb8
 8006cf0:	681b      	ldr	r3, [r3, #0]
 8006cf2:	2b00      	cmp	r3, #0
 8006cf4:	d137      	bne.n	8006d66 <main+0x796>
				  if (!checkRotation(matrix, blockX[count], blockY[count], cisloTvaru)){
 8006cf6:	f507 420c 	add.w	r2, r7, #35840	; 0x8c00
 8006cfa:	f102 02ac 	add.w	r2, r2, #172	; 0xac
 8006cfe:	f507 4310 	add.w	r3, r7, #36864	; 0x9000
 8006d02:	f103 03c4 	add.w	r3, r3, #196	; 0xc4
 8006d06:	681b      	ldr	r3, [r3, #0]
 8006d08:	4413      	add	r3, r2
 8006d0a:	781b      	ldrb	r3, [r3, #0]
 8006d0c:	b219      	sxth	r1, r3
 8006d0e:	f507 4208 	add.w	r2, r7, #34816	; 0x8800
 8006d12:	f102 02c4 	add.w	r2, r2, #196	; 0xc4
 8006d16:	f507 4310 	add.w	r3, r7, #36864	; 0x9000
 8006d1a:	f103 03c4 	add.w	r3, r3, #196	; 0xc4
 8006d1e:	681b      	ldr	r3, [r3, #0]
 8006d20:	4413      	add	r3, r2
 8006d22:	781b      	ldrb	r3, [r3, #0]
 8006d24:	b21a      	sxth	r2, r3
 8006d26:	f507 70e4 	add.w	r0, r7, #456	; 0x1c8
 8006d2a:	38e8      	subs	r0, #232	; 0xe8
 8006d2c:	f507 4310 	add.w	r3, r7, #36864	; 0x9000
 8006d30:	f103 03ac 	add.w	r3, r3, #172	; 0xac
 8006d34:	681b      	ldr	r3, [r3, #0]
 8006d36:	f7fd fa97 	bl	8004268 <checkRotation>
 8006d3a:	4603      	mov	r3, r0
 8006d3c:	2b00      	cmp	r3, #0
 8006d3e:	d17a      	bne.n	8006e36 <main+0x866>
					  cisloTvaru = rotateObject(cisloTvaru);
 8006d40:	f507 4310 	add.w	r3, r7, #36864	; 0x9000
 8006d44:	f103 03ac 	add.w	r3, r3, #172	; 0xac
 8006d48:	6818      	ldr	r0, [r3, #0]
 8006d4a:	f7fd fa05 	bl	8004158 <rotateObject>
 8006d4e:	f507 4310 	add.w	r3, r7, #36864	; 0x9000
 8006d52:	f103 03ac 	add.w	r3, r3, #172	; 0xac
 8006d56:	6018      	str	r0, [r3, #0]
					  cc=1;
 8006d58:	2301      	movs	r3, #1
 8006d5a:	f507 4210 	add.w	r2, r7, #36864	; 0x9000
 8006d5e:	f102 02b8 	add.w	r2, r2, #184	; 0xb8
 8006d62:	6013      	str	r3, [r2, #0]
				  else
					  blockX[count] += xDir[count]; // doprava
			  }
			  // ak stlacime stvrte tlacidlo, otoci sa objekt
			  else if ((AD_value>3520) && (AD_value<3650) && cc==0){
				  if (!checkRotation(matrix, blockX[count], blockY[count], cisloTvaru)){
 8006d64:	e067      	b.n	8006e36 <main+0x866>
					  cisloTvaru = rotateObject(cisloTvaru);
					  cc=1;
				  }
			  }
			  // ak stlacime tretie tlacidlo, tak posunutie dole je zrychlene
			  else if ((AD_value>3300) && (AD_value<3450)){
 8006d66:	4b26      	ldr	r3, [pc, #152]	; (8006e00 <main+0x830>)
 8006d68:	681b      	ldr	r3, [r3, #0]
 8006d6a:	f640 42e4 	movw	r2, #3300	; 0xce4
 8006d6e:	4293      	cmp	r3, r2
 8006d70:	dd61      	ble.n	8006e36 <main+0x866>
 8006d72:	4b23      	ldr	r3, [pc, #140]	; (8006e00 <main+0x830>)
 8006d74:	681b      	ldr	r3, [r3, #0]
 8006d76:	f640 5279 	movw	r2, #3449	; 0xd79
 8006d7a:	4293      	cmp	r3, r2
 8006d7c:	dc5b      	bgt.n	8006e36 <main+0x866>
				  if (checkBlockade(matrix, blockX[count],blockY[count]+12, cisloTvaru))
 8006d7e:	f507 420c 	add.w	r2, r7, #35840	; 0x8c00
 8006d82:	f102 02ac 	add.w	r2, r2, #172	; 0xac
 8006d86:	f507 4310 	add.w	r3, r7, #36864	; 0x9000
 8006d8a:	f103 03c4 	add.w	r3, r3, #196	; 0xc4
 8006d8e:	681b      	ldr	r3, [r3, #0]
 8006d90:	4413      	add	r3, r2
 8006d92:	781b      	ldrb	r3, [r3, #0]
 8006d94:	b219      	sxth	r1, r3
 8006d96:	f507 4208 	add.w	r2, r7, #34816	; 0x8800
 8006d9a:	f102 02c4 	add.w	r2, r2, #196	; 0xc4
 8006d9e:	f507 4310 	add.w	r3, r7, #36864	; 0x9000
 8006da2:	f103 03c4 	add.w	r3, r3, #196	; 0xc4
 8006da6:	681b      	ldr	r3, [r3, #0]
 8006da8:	4413      	add	r3, r2
 8006daa:	781b      	ldrb	r3, [r3, #0]
 8006dac:	b29b      	uxth	r3, r3
 8006dae:	330c      	adds	r3, #12
 8006db0:	b29b      	uxth	r3, r3
 8006db2:	b21a      	sxth	r2, r3
 8006db4:	f507 70e4 	add.w	r0, r7, #456	; 0x1c8
 8006db8:	38e8      	subs	r0, #232	; 0xe8
 8006dba:	f507 4310 	add.w	r3, r7, #36864	; 0x9000
 8006dbe:	f103 03ac 	add.w	r3, r3, #172	; 0xac
 8006dc2:	681b      	ldr	r3, [r3, #0]
 8006dc4:	f7fb fb9e 	bl	8002504 <checkBlockade>
 8006dc8:	4603      	mov	r3, r0
 8006dca:	2b00      	cmp	r3, #0
 8006dcc:	d01a      	beq.n	8006e04 <main+0x834>
					  blockY[count] += 0;
 8006dce:	f507 4208 	add.w	r2, r7, #34816	; 0x8800
 8006dd2:	f102 02c4 	add.w	r2, r2, #196	; 0xc4
 8006dd6:	f507 4310 	add.w	r3, r7, #36864	; 0x9000
 8006dda:	f103 03c4 	add.w	r3, r3, #196	; 0xc4
 8006dde:	681b      	ldr	r3, [r3, #0]
 8006de0:	4413      	add	r3, r2
 8006de2:	7819      	ldrb	r1, [r3, #0]
 8006de4:	f507 4208 	add.w	r2, r7, #34816	; 0x8800
 8006de8:	f102 02c4 	add.w	r2, r2, #196	; 0xc4
 8006dec:	f507 4310 	add.w	r3, r7, #36864	; 0x9000
 8006df0:	f103 03c4 	add.w	r3, r3, #196	; 0xc4
 8006df4:	681b      	ldr	r3, [r3, #0]
 8006df6:	4413      	add	r3, r2
 8006df8:	460a      	mov	r2, r1
 8006dfa:	701a      	strb	r2, [r3, #0]
 8006dfc:	e01b      	b.n	8006e36 <main+0x866>
 8006dfe:	bf00      	nop
 8006e00:	20000034 	.word	0x20000034
				  else
					  blockY[count] += 6;
 8006e04:	f507 4208 	add.w	r2, r7, #34816	; 0x8800
 8006e08:	f102 02c4 	add.w	r2, r2, #196	; 0xc4
 8006e0c:	f507 4310 	add.w	r3, r7, #36864	; 0x9000
 8006e10:	f103 03c4 	add.w	r3, r3, #196	; 0xc4
 8006e14:	681b      	ldr	r3, [r3, #0]
 8006e16:	4413      	add	r3, r2
 8006e18:	781b      	ldrb	r3, [r3, #0]
 8006e1a:	3306      	adds	r3, #6
 8006e1c:	b2d9      	uxtb	r1, r3
 8006e1e:	f507 4208 	add.w	r2, r7, #34816	; 0x8800
 8006e22:	f102 02c4 	add.w	r2, r2, #196	; 0xc4
 8006e26:	f507 4310 	add.w	r3, r7, #36864	; 0x9000
 8006e2a:	f103 03c4 	add.w	r3, r3, #196	; 0xc4
 8006e2e:	681b      	ldr	r3, [r3, #0]
 8006e30:	4413      	add	r3, r2
 8006e32:	460a      	mov	r2, r1
 8006e34:	701a      	strb	r2, [r3, #0]
			  }

			  // checkuje naplnene riadky
			  tempScore = score;
 8006e36:	f507 4310 	add.w	r3, r7, #36864	; 0x9000
 8006e3a:	f103 03c0 	add.w	r3, r3, #192	; 0xc0
 8006e3e:	681b      	ldr	r3, [r3, #0]
 8006e40:	f507 4210 	add.w	r2, r7, #36864	; 0x9000
 8006e44:	f102 0294 	add.w	r2, r2, #148	; 0x94
 8006e48:	6013      	str	r3, [r2, #0]
			  score += checkLineFilled(matrix);
 8006e4a:	f507 73e4 	add.w	r3, r7, #456	; 0x1c8
 8006e4e:	3be8      	subs	r3, #232	; 0xe8
 8006e50:	4618      	mov	r0, r3
 8006e52:	f7fc ff5f 	bl	8003d14 <checkLineFilled>
 8006e56:	4602      	mov	r2, r0
 8006e58:	f507 4310 	add.w	r3, r7, #36864	; 0x9000
 8006e5c:	f103 03c0 	add.w	r3, r3, #192	; 0xc0
 8006e60:	681b      	ldr	r3, [r3, #0]
 8006e62:	4413      	add	r3, r2
 8006e64:	f507 4210 	add.w	r2, r7, #36864	; 0x9000
 8006e68:	f102 02c0 	add.w	r2, r2, #192	; 0xc0
 8006e6c:	6013      	str	r3, [r2, #0]
			  lines += returnLines(tempScore, score);
 8006e6e:	f507 4310 	add.w	r3, r7, #36864	; 0x9000
 8006e72:	f103 03c0 	add.w	r3, r3, #192	; 0xc0
 8006e76:	6819      	ldr	r1, [r3, #0]
 8006e78:	f507 4310 	add.w	r3, r7, #36864	; 0x9000
 8006e7c:	f103 0394 	add.w	r3, r3, #148	; 0x94
 8006e80:	6818      	ldr	r0, [r3, #0]
 8006e82:	f7fe fe93 	bl	8005bac <returnLines>
 8006e86:	4602      	mov	r2, r0
 8006e88:	f507 4310 	add.w	r3, r7, #36864	; 0x9000
 8006e8c:	f103 03bc 	add.w	r3, r3, #188	; 0xbc
 8006e90:	681b      	ldr	r3, [r3, #0]
 8006e92:	4413      	add	r3, r2
 8006e94:	f507 4210 	add.w	r2, r7, #36864	; 0x9000
 8006e98:	f102 02bc 	add.w	r2, r2, #188	; 0xbc
 8006e9c:	6013      	str	r3, [r2, #0]
			  // Vypise score
			  sprintf(scoree, "%d", score);
 8006e9e:	f507 4300 	add.w	r3, r7, #32768	; 0x8000
 8006ea2:	f103 03ec 	add.w	r3, r3, #236	; 0xec
 8006ea6:	f507 4210 	add.w	r2, r7, #36864	; 0x9000
 8006eaa:	f102 02c0 	add.w	r2, r2, #192	; 0xc0
 8006eae:	6812      	ldr	r2, [r2, #0]
 8006eb0:	49bc      	ldr	r1, [pc, #752]	; (80071a4 <main+0xbd4>)
 8006eb2:	4618      	mov	r0, r3
 8006eb4:	f000 ff18 	bl	8007ce8 <siprintf>
			  lcdPutS(scoree, lcdTextX(1), lcdTextY(8), decodeRgbValue(255, 255, 255), decodeRgbValue(0, 0, 0));
 8006eb8:	2001      	movs	r0, #1
 8006eba:	f7fa faf3 	bl	80014a4 <lcdTextX>
 8006ebe:	4603      	mov	r3, r0
 8006ec0:	461c      	mov	r4, r3
 8006ec2:	2008      	movs	r0, #8
 8006ec4:	f7fa fafe 	bl	80014c4 <lcdTextY>
 8006ec8:	4603      	mov	r3, r0
 8006eca:	461d      	mov	r5, r3
 8006ecc:	22ff      	movs	r2, #255	; 0xff
 8006ece:	21ff      	movs	r1, #255	; 0xff
 8006ed0:	20ff      	movs	r0, #255	; 0xff
 8006ed2:	f7fa facb 	bl	800146c <decodeRgbValue>
 8006ed6:	4603      	mov	r3, r0
 8006ed8:	461e      	mov	r6, r3
 8006eda:	2200      	movs	r2, #0
 8006edc:	2100      	movs	r1, #0
 8006ede:	2000      	movs	r0, #0
 8006ee0:	f7fa fac4 	bl	800146c <decodeRgbValue>
 8006ee4:	4603      	mov	r3, r0
 8006ee6:	f507 4000 	add.w	r0, r7, #32768	; 0x8000
 8006eea:	f100 00ec 	add.w	r0, r0, #236	; 0xec
 8006eee:	9300      	str	r3, [sp, #0]
 8006ef0:	4633      	mov	r3, r6
 8006ef2:	462a      	mov	r2, r5
 8006ef4:	4621      	mov	r1, r4
 8006ef6:	f7fa faf3 	bl	80014e0 <lcdPutS>

			  sprintf(line, "%d", lines);
 8006efa:	f507 4300 	add.w	r3, r7, #32768	; 0x8000
 8006efe:	f103 03e0 	add.w	r3, r3, #224	; 0xe0
 8006f02:	f507 4210 	add.w	r2, r7, #36864	; 0x9000
 8006f06:	f102 02bc 	add.w	r2, r2, #188	; 0xbc
 8006f0a:	6812      	ldr	r2, [r2, #0]
 8006f0c:	49a5      	ldr	r1, [pc, #660]	; (80071a4 <main+0xbd4>)
 8006f0e:	4618      	mov	r0, r3
 8006f10:	f000 feea 	bl	8007ce8 <siprintf>
			  lcdPutS(line, lcdTextX(1), lcdTextY(5), decodeRgbValue(255, 255, 255), decodeRgbValue(0, 0, 0));
 8006f14:	2001      	movs	r0, #1
 8006f16:	f7fa fac5 	bl	80014a4 <lcdTextX>
 8006f1a:	4603      	mov	r3, r0
 8006f1c:	461c      	mov	r4, r3
 8006f1e:	2005      	movs	r0, #5
 8006f20:	f7fa fad0 	bl	80014c4 <lcdTextY>
 8006f24:	4603      	mov	r3, r0
 8006f26:	461d      	mov	r5, r3
 8006f28:	22ff      	movs	r2, #255	; 0xff
 8006f2a:	21ff      	movs	r1, #255	; 0xff
 8006f2c:	20ff      	movs	r0, #255	; 0xff
 8006f2e:	f7fa fa9d 	bl	800146c <decodeRgbValue>
 8006f32:	4603      	mov	r3, r0
 8006f34:	461e      	mov	r6, r3
 8006f36:	2200      	movs	r2, #0
 8006f38:	2100      	movs	r1, #0
 8006f3a:	2000      	movs	r0, #0
 8006f3c:	f7fa fa96 	bl	800146c <decodeRgbValue>
 8006f40:	4603      	mov	r3, r0
 8006f42:	f507 4000 	add.w	r0, r7, #32768	; 0x8000
 8006f46:	f100 00e0 	add.w	r0, r0, #224	; 0xe0
 8006f4a:	9300      	str	r3, [sp, #0]
 8006f4c:	4633      	mov	r3, r6
 8006f4e:	462a      	mov	r2, r5
 8006f50:	4621      	mov	r1, r4
 8006f52:	f7fa fac5 	bl	80014e0 <lcdPutS>

			  // v kazdom kroku checkuje, ci sa nenachadza dalsi objekt alebo ramec pred objektom
			  if (checkBlockade(matrix, blockX[count],blockY[count], cisloTvaru))
 8006f56:	f507 420c 	add.w	r2, r7, #35840	; 0x8c00
 8006f5a:	f102 02ac 	add.w	r2, r2, #172	; 0xac
 8006f5e:	f507 4310 	add.w	r3, r7, #36864	; 0x9000
 8006f62:	f103 03c4 	add.w	r3, r3, #196	; 0xc4
 8006f66:	681b      	ldr	r3, [r3, #0]
 8006f68:	4413      	add	r3, r2
 8006f6a:	781b      	ldrb	r3, [r3, #0]
 8006f6c:	b219      	sxth	r1, r3
 8006f6e:	f507 4208 	add.w	r2, r7, #34816	; 0x8800
 8006f72:	f102 02c4 	add.w	r2, r2, #196	; 0xc4
 8006f76:	f507 4310 	add.w	r3, r7, #36864	; 0x9000
 8006f7a:	f103 03c4 	add.w	r3, r3, #196	; 0xc4
 8006f7e:	681b      	ldr	r3, [r3, #0]
 8006f80:	4413      	add	r3, r2
 8006f82:	781b      	ldrb	r3, [r3, #0]
 8006f84:	b21a      	sxth	r2, r3
 8006f86:	f507 70e4 	add.w	r0, r7, #456	; 0x1c8
 8006f8a:	38e8      	subs	r0, #232	; 0xe8
 8006f8c:	f507 4310 	add.w	r3, r7, #36864	; 0x9000
 8006f90:	f103 03ac 	add.w	r3, r3, #172	; 0xac
 8006f94:	681b      	ldr	r3, [r3, #0]
 8006f96:	f7fb fab5 	bl	8002504 <checkBlockade>
 8006f9a:	4603      	mov	r3, r0
 8006f9c:	2b00      	cmp	r3, #0
 8006f9e:	d076      	beq.n	800708e <main+0xabe>
			  {
				  // zastavi sa objekt
				  yDir[count] = 0;
 8006fa0:	f507 4200 	add.w	r2, r7, #32768	; 0x8000
 8006fa4:	f102 02f4 	add.w	r2, r2, #244	; 0xf4
 8006fa8:	f507 4310 	add.w	r3, r7, #36864	; 0x9000
 8006fac:	f103 03c4 	add.w	r3, r3, #196	; 0xc4
 8006fb0:	681b      	ldr	r3, [r3, #0]
 8006fb2:	4413      	add	r3, r2
 8006fb4:	2200      	movs	r2, #0
 8006fb6:	701a      	strb	r2, [r3, #0]
				  // necha objekt na konecnom mieste
				  placeDownBlock(matrix, blockX[count], blockY[count], cisloTvaru);
 8006fb8:	f507 420c 	add.w	r2, r7, #35840	; 0x8c00
 8006fbc:	f102 02ac 	add.w	r2, r2, #172	; 0xac
 8006fc0:	f507 4310 	add.w	r3, r7, #36864	; 0x9000
 8006fc4:	f103 03c4 	add.w	r3, r3, #196	; 0xc4
 8006fc8:	681b      	ldr	r3, [r3, #0]
 8006fca:	4413      	add	r3, r2
 8006fcc:	781b      	ldrb	r3, [r3, #0]
 8006fce:	b219      	sxth	r1, r3
 8006fd0:	f507 4208 	add.w	r2, r7, #34816	; 0x8800
 8006fd4:	f102 02c4 	add.w	r2, r2, #196	; 0xc4
 8006fd8:	f507 4310 	add.w	r3, r7, #36864	; 0x9000
 8006fdc:	f103 03c4 	add.w	r3, r3, #196	; 0xc4
 8006fe0:	681b      	ldr	r3, [r3, #0]
 8006fe2:	4413      	add	r3, r2
 8006fe4:	781b      	ldrb	r3, [r3, #0]
 8006fe6:	b21a      	sxth	r2, r3
 8006fe8:	f507 70e4 	add.w	r0, r7, #456	; 0x1c8
 8006fec:	38e8      	subs	r0, #232	; 0xe8
 8006fee:	f507 4310 	add.w	r3, r7, #36864	; 0x9000
 8006ff2:	f103 03ac 	add.w	r3, r3, #172	; 0xac
 8006ff6:	681b      	ldr	r3, [r3, #0]
 8006ff8:	f7fd ffc4 	bl	8004f84 <placeDownBlock>
				  // GAME OVER
				  if(checkGameOver(matrix, blockY[count], cisloTvaru)){
 8006ffc:	f507 4208 	add.w	r2, r7, #34816	; 0x8800
 8007000:	f102 02c4 	add.w	r2, r2, #196	; 0xc4
 8007004:	f507 4310 	add.w	r3, r7, #36864	; 0x9000
 8007008:	f103 03c4 	add.w	r3, r3, #196	; 0xc4
 800700c:	681b      	ldr	r3, [r3, #0]
 800700e:	4413      	add	r3, r2
 8007010:	781b      	ldrb	r3, [r3, #0]
 8007012:	b219      	sxth	r1, r3
 8007014:	f507 73e4 	add.w	r3, r7, #456	; 0x1c8
 8007018:	3be8      	subs	r3, #232	; 0xe8
 800701a:	f507 4210 	add.w	r2, r7, #36864	; 0x9000
 800701e:	f102 02ac 	add.w	r2, r2, #172	; 0xac
 8007022:	6812      	ldr	r2, [r2, #0]
 8007024:	4618      	mov	r0, r3
 8007026:	f7fc ff6f 	bl	8003f08 <checkGameOver>
 800702a:	4603      	mov	r3, r0
 800702c:	2b00      	cmp	r3, #0
 800702e:	d019      	beq.n	8007064 <main+0xa94>
					  matrixPlot(matrix, cisloTvaru);
 8007030:	f507 73e4 	add.w	r3, r7, #456	; 0x1c8
 8007034:	3be8      	subs	r3, #232	; 0xe8
 8007036:	f507 4210 	add.w	r2, r7, #36864	; 0x9000
 800703a:	f102 02ac 	add.w	r2, r2, #172	; 0xac
 800703e:	6811      	ldr	r1, [r2, #0]
 8007040:	4618      	mov	r0, r3
 8007042:	f7fa fa89 	bl	8001558 <matrixPlot>
					  lcdClearDisplay(decodeRgbValue(0, 0, 0));
 8007046:	2200      	movs	r2, #0
 8007048:	2100      	movs	r1, #0
 800704a:	2000      	movs	r0, #0
 800704c:	f7fa fa0e 	bl	800146c <decodeRgbValue>
 8007050:	4603      	mov	r3, r0
 8007052:	4618      	mov	r0, r3
 8007054:	f7fa f956 	bl	8001304 <lcdClearDisplay>
					  run = 4;
 8007058:	2304      	movs	r3, #4
 800705a:	f507 4210 	add.w	r2, r7, #36864	; 0x9000
 800705e:	f102 02a8 	add.w	r2, r2, #168	; 0xa8
 8007062:	6013      	str	r3, [r2, #0]
				  }
				  // vygenerujeme dalsi objekt
				  count++;
 8007064:	f507 4310 	add.w	r3, r7, #36864	; 0x9000
 8007068:	f103 03c4 	add.w	r3, r3, #196	; 0xc4
 800706c:	681b      	ldr	r3, [r3, #0]
 800706e:	3301      	adds	r3, #1
 8007070:	f507 4210 	add.w	r2, r7, #36864	; 0x9000
 8007074:	f102 02c4 	add.w	r2, r2, #196	; 0xc4
 8007078:	6013      	str	r3, [r2, #0]
				  cisloTvaru = generateNumber(AD_value);
 800707a:	4b4b      	ldr	r3, [pc, #300]	; (80071a8 <main+0xbd8>)
 800707c:	681b      	ldr	r3, [r3, #0]
 800707e:	4618      	mov	r0, r3
 8007080:	f7fe fca6 	bl	80059d0 <generateNumber>
 8007084:	f507 4310 	add.w	r3, r7, #36864	; 0x9000
 8007088:	f103 03ac 	add.w	r3, r3, #172	; 0xac
 800708c:	6018      	str	r0, [r3, #0]
			  }
			  // vykresli dany objekt
			  createDeleteBlock(matrix, blockX[count], blockY[count], cisloTvaru, 1);
 800708e:	f507 420c 	add.w	r2, r7, #35840	; 0x8c00
 8007092:	f102 02ac 	add.w	r2, r2, #172	; 0xac
 8007096:	f507 4310 	add.w	r3, r7, #36864	; 0x9000
 800709a:	f103 03c4 	add.w	r3, r3, #196	; 0xc4
 800709e:	681b      	ldr	r3, [r3, #0]
 80070a0:	4413      	add	r3, r2
 80070a2:	781b      	ldrb	r3, [r3, #0]
 80070a4:	b219      	sxth	r1, r3
 80070a6:	f507 4208 	add.w	r2, r7, #34816	; 0x8800
 80070aa:	f102 02c4 	add.w	r2, r2, #196	; 0xc4
 80070ae:	f507 4310 	add.w	r3, r7, #36864	; 0x9000
 80070b2:	f103 03c4 	add.w	r3, r3, #196	; 0xc4
 80070b6:	681b      	ldr	r3, [r3, #0]
 80070b8:	4413      	add	r3, r2
 80070ba:	781b      	ldrb	r3, [r3, #0]
 80070bc:	b21a      	sxth	r2, r3
 80070be:	f507 70e4 	add.w	r0, r7, #456	; 0x1c8
 80070c2:	38e8      	subs	r0, #232	; 0xe8
 80070c4:	2301      	movs	r3, #1
 80070c6:	9300      	str	r3, [sp, #0]
 80070c8:	f507 4310 	add.w	r3, r7, #36864	; 0x9000
 80070cc:	f103 03ac 	add.w	r3, r3, #172	; 0xac
 80070d0:	681b      	ldr	r3, [r3, #0]
 80070d2:	f7fa fca7 	bl	8001a24 <createDeleteBlock>
			  cc = 0;
 80070d6:	2300      	movs	r3, #0
 80070d8:	f507 4210 	add.w	r2, r7, #36864	; 0x9000
 80070dc:	f102 02b8 	add.w	r2, r2, #184	; 0xb8
 80070e0:	6013      	str	r3, [r2, #0]
 80070e2:	f7ff bb81 	b.w	80067e8 <main+0x218>
	  }
	  else if (run == 2){ // alias
 80070e6:	f507 4310 	add.w	r3, r7, #36864	; 0x9000
 80070ea:	f103 03a8 	add.w	r3, r3, #168	; 0xa8
 80070ee:	681b      	ldr	r3, [r3, #0]
 80070f0:	2b02      	cmp	r3, #2
 80070f2:	f040 81e9 	bne.w	80074c8 <main+0xef8>
		  setName(abcVolba, abc);
 80070f6:	f107 03c8 	add.w	r3, r7, #200	; 0xc8
 80070fa:	3ba4      	subs	r3, #164	; 0xa4
 80070fc:	4619      	mov	r1, r3
 80070fe:	f507 4310 	add.w	r3, r7, #36864	; 0x9000
 8007102:	f103 03a4 	add.w	r3, r3, #164	; 0xa4
 8007106:	6818      	ldr	r0, [r3, #0]
 8007108:	f7ff f938 	bl	800637c <setName>
		  if ((AD_value>1700) && (AD_value<2300)){
 800710c:	4b26      	ldr	r3, [pc, #152]	; (80071a8 <main+0xbd8>)
 800710e:	681b      	ldr	r3, [r3, #0]
 8007110:	f240 62a4 	movw	r2, #1700	; 0x6a4
 8007114:	4293      	cmp	r3, r2
 8007116:	dd1f      	ble.n	8007158 <main+0xb88>
 8007118:	4b23      	ldr	r3, [pc, #140]	; (80071a8 <main+0xbd8>)
 800711a:	681b      	ldr	r3, [r3, #0]
 800711c:	f640 02fb 	movw	r2, #2299	; 0x8fb
 8007120:	4293      	cmp	r3, r2
 8007122:	dc19      	bgt.n	8007158 <main+0xb88>
			  abcVolba+=1;
 8007124:	f507 4310 	add.w	r3, r7, #36864	; 0x9000
 8007128:	f103 03a4 	add.w	r3, r3, #164	; 0xa4
 800712c:	681b      	ldr	r3, [r3, #0]
 800712e:	3301      	adds	r3, #1
 8007130:	f507 4210 	add.w	r2, r7, #36864	; 0x9000
 8007134:	f102 02a4 	add.w	r2, r2, #164	; 0xa4
 8007138:	6013      	str	r3, [r2, #0]
			  if (abcVolba > 28)
 800713a:	f507 4310 	add.w	r3, r7, #36864	; 0x9000
 800713e:	f103 03a4 	add.w	r3, r3, #164	; 0xa4
 8007142:	681b      	ldr	r3, [r3, #0]
 8007144:	2b1c      	cmp	r3, #28
 8007146:	f340 83bc 	ble.w	80078c2 <main+0x12f2>
				  abcVolba = 0;
 800714a:	2300      	movs	r3, #0
 800714c:	f507 4210 	add.w	r2, r7, #36864	; 0x9000
 8007150:	f102 02a4 	add.w	r2, r2, #164	; 0xa4
 8007154:	6013      	str	r3, [r2, #0]
	  }
	  else if (run == 2){ // alias
		  setName(abcVolba, abc);
		  if ((AD_value>1700) && (AD_value<2300)){
			  abcVolba+=1;
			  if (abcVolba > 28)
 8007156:	e3b4      	b.n	80078c2 <main+0x12f2>
				  abcVolba = 0;
		  }
		  else if ((AD_value>2500) && (AD_value<3100)){
 8007158:	4b13      	ldr	r3, [pc, #76]	; (80071a8 <main+0xbd8>)
 800715a:	681b      	ldr	r3, [r3, #0]
 800715c:	f640 12c4 	movw	r2, #2500	; 0x9c4
 8007160:	4293      	cmp	r3, r2
 8007162:	dd23      	ble.n	80071ac <main+0xbdc>
 8007164:	4b10      	ldr	r3, [pc, #64]	; (80071a8 <main+0xbd8>)
 8007166:	681b      	ldr	r3, [r3, #0]
 8007168:	f640 421b 	movw	r2, #3099	; 0xc1b
 800716c:	4293      	cmp	r3, r2
 800716e:	dc1d      	bgt.n	80071ac <main+0xbdc>
			  abcVolba-=1;
 8007170:	f507 4310 	add.w	r3, r7, #36864	; 0x9000
 8007174:	f103 03a4 	add.w	r3, r3, #164	; 0xa4
 8007178:	681b      	ldr	r3, [r3, #0]
 800717a:	3b01      	subs	r3, #1
 800717c:	f507 4210 	add.w	r2, r7, #36864	; 0x9000
 8007180:	f102 02a4 	add.w	r2, r2, #164	; 0xa4
 8007184:	6013      	str	r3, [r2, #0]
			  if (abcVolba < 0)
 8007186:	f507 4310 	add.w	r3, r7, #36864	; 0x9000
 800718a:	f103 03a4 	add.w	r3, r3, #164	; 0xa4
 800718e:	681b      	ldr	r3, [r3, #0]
 8007190:	2b00      	cmp	r3, #0
 8007192:	f280 8396 	bge.w	80078c2 <main+0x12f2>
				  abcVolba = 28;
 8007196:	231c      	movs	r3, #28
 8007198:	f507 4210 	add.w	r2, r7, #36864	; 0x9000
 800719c:	f102 02a4 	add.w	r2, r2, #164	; 0xa4
 80071a0:	6013      	str	r3, [r2, #0]
			  if (abcVolba > 28)
				  abcVolba = 0;
		  }
		  else if ((AD_value>2500) && (AD_value<3100)){
			  abcVolba-=1;
			  if (abcVolba < 0)
 80071a2:	e38e      	b.n	80078c2 <main+0x12f2>
 80071a4:	08007e04 	.word	0x08007e04
 80071a8:	20000034 	.word	0x20000034
				  abcVolba = 28;
		  }
		  else if ((AD_value>3300) && (AD_value<3650)){
 80071ac:	4bc4      	ldr	r3, [pc, #784]	; (80074c0 <main+0xef0>)
 80071ae:	681b      	ldr	r3, [r3, #0]
 80071b0:	f640 42e4 	movw	r2, #3300	; 0xce4
 80071b4:	4293      	cmp	r3, r2
 80071b6:	f77f ab17 	ble.w	80067e8 <main+0x218>
 80071ba:	4bc1      	ldr	r3, [pc, #772]	; (80074c0 <main+0xef0>)
 80071bc:	681b      	ldr	r3, [r3, #0]
 80071be:	f640 6241 	movw	r2, #3649	; 0xe41
 80071c2:	4293      	cmp	r3, r2
 80071c4:	f73f ab10 	bgt.w	80067e8 <main+0x218>
			  if (abcVolba < 26 && index < 7){
 80071c8:	f507 4310 	add.w	r3, r7, #36864	; 0x9000
 80071cc:	f103 03a4 	add.w	r3, r3, #164	; 0xa4
 80071d0:	681b      	ldr	r3, [r3, #0]
 80071d2:	2b19      	cmp	r3, #25
 80071d4:	dc57      	bgt.n	8007286 <main+0xcb6>
 80071d6:	f507 4310 	add.w	r3, r7, #36864	; 0x9000
 80071da:	f103 03a0 	add.w	r3, r3, #160	; 0xa0
 80071de:	681b      	ldr	r3, [r3, #0]
 80071e0:	2b06      	cmp	r3, #6
 80071e2:	dc50      	bgt.n	8007286 <main+0xcb6>
				  newAlias[index]=abc2[abcVolba];
 80071e4:	f107 03c8 	add.w	r3, r7, #200	; 0xc8
 80071e8:	3bc0      	subs	r3, #192	; 0xc0
 80071ea:	f507 4210 	add.w	r2, r7, #36864	; 0x9000
 80071ee:	f102 02a4 	add.w	r2, r2, #164	; 0xa4
 80071f2:	6812      	ldr	r2, [r2, #0]
 80071f4:	4413      	add	r3, r2
 80071f6:	7819      	ldrb	r1, [r3, #0]
 80071f8:	f107 03c8 	add.w	r3, r7, #200	; 0xc8
 80071fc:	3bc8      	subs	r3, #200	; 0xc8
 80071fe:	f507 4210 	add.w	r2, r7, #36864	; 0x9000
 8007202:	f102 02a0 	add.w	r2, r2, #160	; 0xa0
 8007206:	6812      	ldr	r2, [r2, #0]
 8007208:	4413      	add	r3, r2
 800720a:	460a      	mov	r2, r1
 800720c:	701a      	strb	r2, [r3, #0]
				  lcdPutCh(newAlias[index], lcdTextX(index+1), lcdTextY(12), decodeRgbValue(255, 255, 255), decodeRgbValue(0, 0, 0));
 800720e:	f107 03c8 	add.w	r3, r7, #200	; 0xc8
 8007212:	3bc8      	subs	r3, #200	; 0xc8
 8007214:	f507 4210 	add.w	r2, r7, #36864	; 0x9000
 8007218:	f102 02a0 	add.w	r2, r2, #160	; 0xa0
 800721c:	6812      	ldr	r2, [r2, #0]
 800721e:	4413      	add	r3, r2
 8007220:	781c      	ldrb	r4, [r3, #0]
 8007222:	f507 4310 	add.w	r3, r7, #36864	; 0x9000
 8007226:	f103 03a0 	add.w	r3, r3, #160	; 0xa0
 800722a:	681b      	ldr	r3, [r3, #0]
 800722c:	b2db      	uxtb	r3, r3
 800722e:	3301      	adds	r3, #1
 8007230:	b2db      	uxtb	r3, r3
 8007232:	4618      	mov	r0, r3
 8007234:	f7fa f936 	bl	80014a4 <lcdTextX>
 8007238:	4603      	mov	r3, r0
 800723a:	461d      	mov	r5, r3
 800723c:	200c      	movs	r0, #12
 800723e:	f7fa f941 	bl	80014c4 <lcdTextY>
 8007242:	4603      	mov	r3, r0
 8007244:	461e      	mov	r6, r3
 8007246:	22ff      	movs	r2, #255	; 0xff
 8007248:	21ff      	movs	r1, #255	; 0xff
 800724a:	20ff      	movs	r0, #255	; 0xff
 800724c:	f7fa f90e 	bl	800146c <decodeRgbValue>
 8007250:	4603      	mov	r3, r0
 8007252:	4698      	mov	r8, r3
 8007254:	2200      	movs	r2, #0
 8007256:	2100      	movs	r1, #0
 8007258:	2000      	movs	r0, #0
 800725a:	f7fa f907 	bl	800146c <decodeRgbValue>
 800725e:	4603      	mov	r3, r0
 8007260:	9300      	str	r3, [sp, #0]
 8007262:	4643      	mov	r3, r8
 8007264:	4632      	mov	r2, r6
 8007266:	4629      	mov	r1, r5
 8007268:	4620      	mov	r0, r4
 800726a:	f7fa f889 	bl	8001380 <lcdPutCh>
				  index++;
 800726e:	f507 4310 	add.w	r3, r7, #36864	; 0x9000
 8007272:	f103 03a0 	add.w	r3, r3, #160	; 0xa0
 8007276:	681b      	ldr	r3, [r3, #0]
 8007278:	3301      	adds	r3, #1
 800727a:	f507 4210 	add.w	r2, r7, #36864	; 0x9000
 800727e:	f102 02a0 	add.w	r2, r2, #160	; 0xa0
 8007282:	6013      	str	r3, [r2, #0]
 8007284:	e31d      	b.n	80078c2 <main+0x12f2>
			  }
			  else if (abcVolba < 26 && index > 6){
 8007286:	f507 4310 	add.w	r3, r7, #36864	; 0x9000
 800728a:	f103 03a4 	add.w	r3, r3, #164	; 0xa4
 800728e:	681b      	ldr	r3, [r3, #0]
 8007290:	2b19      	cmp	r3, #25
 8007292:	dc25      	bgt.n	80072e0 <main+0xd10>
 8007294:	f507 4310 	add.w	r3, r7, #36864	; 0x9000
 8007298:	f103 03a0 	add.w	r3, r3, #160	; 0xa0
 800729c:	681b      	ldr	r3, [r3, #0]
 800729e:	2b06      	cmp	r3, #6
 80072a0:	dd1e      	ble.n	80072e0 <main+0xd10>
				  lcdPutS("No more space!", lcdTextX(2), lcdTextY(14), decodeRgbValue(255, 255, 255), decodeRgbValue(0, 0, 0));
 80072a2:	2002      	movs	r0, #2
 80072a4:	f7fa f8fe 	bl	80014a4 <lcdTextX>
 80072a8:	4603      	mov	r3, r0
 80072aa:	461c      	mov	r4, r3
 80072ac:	200e      	movs	r0, #14
 80072ae:	f7fa f909 	bl	80014c4 <lcdTextY>
 80072b2:	4603      	mov	r3, r0
 80072b4:	461d      	mov	r5, r3
 80072b6:	22ff      	movs	r2, #255	; 0xff
 80072b8:	21ff      	movs	r1, #255	; 0xff
 80072ba:	20ff      	movs	r0, #255	; 0xff
 80072bc:	f7fa f8d6 	bl	800146c <decodeRgbValue>
 80072c0:	4603      	mov	r3, r0
 80072c2:	461e      	mov	r6, r3
 80072c4:	2200      	movs	r2, #0
 80072c6:	2100      	movs	r1, #0
 80072c8:	2000      	movs	r0, #0
 80072ca:	f7fa f8cf 	bl	800146c <decodeRgbValue>
 80072ce:	4603      	mov	r3, r0
 80072d0:	9300      	str	r3, [sp, #0]
 80072d2:	4633      	mov	r3, r6
 80072d4:	462a      	mov	r2, r5
 80072d6:	4621      	mov	r1, r4
 80072d8:	487a      	ldr	r0, [pc, #488]	; (80074c4 <main+0xef4>)
 80072da:	f7fa f901 	bl	80014e0 <lcdPutS>
 80072de:	e2f0      	b.n	80078c2 <main+0x12f2>
			  }
			  else if (abcVolba == 26){
 80072e0:	f507 4310 	add.w	r3, r7, #36864	; 0x9000
 80072e4:	f103 03a4 	add.w	r3, r3, #164	; 0xa4
 80072e8:	681b      	ldr	r3, [r3, #0]
 80072ea:	2b1a      	cmp	r3, #26
 80072ec:	d116      	bne.n	800731c <main+0xd4c>
				  index = 0;
 80072ee:	2300      	movs	r3, #0
 80072f0:	f507 4210 	add.w	r2, r7, #36864	; 0x9000
 80072f4:	f102 02a0 	add.w	r2, r2, #160	; 0xa0
 80072f8:	6013      	str	r3, [r2, #0]
				  lcdClearDisplay(decodeRgbValue(0, 0, 0));
 80072fa:	2200      	movs	r2, #0
 80072fc:	2100      	movs	r1, #0
 80072fe:	2000      	movs	r0, #0
 8007300:	f7fa f8b4 	bl	800146c <decodeRgbValue>
 8007304:	4603      	mov	r3, r0
 8007306:	4618      	mov	r0, r3
 8007308:	f7f9 fffc 	bl	8001304 <lcdClearDisplay>
				  run = 0;
 800730c:	2300      	movs	r3, #0
 800730e:	f507 4210 	add.w	r2, r7, #36864	; 0x9000
 8007312:	f102 02a8 	add.w	r2, r2, #168	; 0xa8
 8007316:	6013      	str	r3, [r2, #0]
 8007318:	f7ff ba66 	b.w	80067e8 <main+0x218>
			  }
			  else if (abcVolba == 27){
 800731c:	f507 4310 	add.w	r3, r7, #36864	; 0x9000
 8007320:	f103 03a4 	add.w	r3, r3, #164	; 0xa4
 8007324:	681b      	ldr	r3, [r3, #0]
 8007326:	2b1b      	cmp	r3, #27
 8007328:	d165      	bne.n	80073f6 <main+0xe26>
				  index--;
 800732a:	f507 4310 	add.w	r3, r7, #36864	; 0x9000
 800732e:	f103 03a0 	add.w	r3, r3, #160	; 0xa0
 8007332:	681b      	ldr	r3, [r3, #0]
 8007334:	3b01      	subs	r3, #1
 8007336:	f507 4210 	add.w	r2, r7, #36864	; 0x9000
 800733a:	f102 02a0 	add.w	r2, r2, #160	; 0xa0
 800733e:	6013      	str	r3, [r2, #0]
				  newAlias[index]=' ';
 8007340:	f107 03c8 	add.w	r3, r7, #200	; 0xc8
 8007344:	3bc8      	subs	r3, #200	; 0xc8
 8007346:	f507 4210 	add.w	r2, r7, #36864	; 0x9000
 800734a:	f102 02a0 	add.w	r2, r2, #160	; 0xa0
 800734e:	6812      	ldr	r2, [r2, #0]
 8007350:	4413      	add	r3, r2
 8007352:	2220      	movs	r2, #32
 8007354:	701a      	strb	r2, [r3, #0]
				  lcdPutCh(newAlias[index], lcdTextX(index+1), lcdTextY(12), decodeRgbValue(255, 255, 255), decodeRgbValue(0, 0, 0));
 8007356:	f107 03c8 	add.w	r3, r7, #200	; 0xc8
 800735a:	3bc8      	subs	r3, #200	; 0xc8
 800735c:	f507 4210 	add.w	r2, r7, #36864	; 0x9000
 8007360:	f102 02a0 	add.w	r2, r2, #160	; 0xa0
 8007364:	6812      	ldr	r2, [r2, #0]
 8007366:	4413      	add	r3, r2
 8007368:	781c      	ldrb	r4, [r3, #0]
 800736a:	f507 4310 	add.w	r3, r7, #36864	; 0x9000
 800736e:	f103 03a0 	add.w	r3, r3, #160	; 0xa0
 8007372:	681b      	ldr	r3, [r3, #0]
 8007374:	b2db      	uxtb	r3, r3
 8007376:	3301      	adds	r3, #1
 8007378:	b2db      	uxtb	r3, r3
 800737a:	4618      	mov	r0, r3
 800737c:	f7fa f892 	bl	80014a4 <lcdTextX>
 8007380:	4603      	mov	r3, r0
 8007382:	461d      	mov	r5, r3
 8007384:	200c      	movs	r0, #12
 8007386:	f7fa f89d 	bl	80014c4 <lcdTextY>
 800738a:	4603      	mov	r3, r0
 800738c:	461e      	mov	r6, r3
 800738e:	22ff      	movs	r2, #255	; 0xff
 8007390:	21ff      	movs	r1, #255	; 0xff
 8007392:	20ff      	movs	r0, #255	; 0xff
 8007394:	f7fa f86a 	bl	800146c <decodeRgbValue>
 8007398:	4603      	mov	r3, r0
 800739a:	4698      	mov	r8, r3
 800739c:	2200      	movs	r2, #0
 800739e:	2100      	movs	r1, #0
 80073a0:	2000      	movs	r0, #0
 80073a2:	f7fa f863 	bl	800146c <decodeRgbValue>
 80073a6:	4603      	mov	r3, r0
 80073a8:	9300      	str	r3, [sp, #0]
 80073aa:	4643      	mov	r3, r8
 80073ac:	4632      	mov	r2, r6
 80073ae:	4629      	mov	r1, r5
 80073b0:	4620      	mov	r0, r4
 80073b2:	f7f9 ffe5 	bl	8001380 <lcdPutCh>
				  lcdPutS("No more space!", lcdTextX(2), lcdTextY(14), decodeRgbValue(0, 0, 0), decodeRgbValue(0, 0, 0));
 80073b6:	2002      	movs	r0, #2
 80073b8:	f7fa f874 	bl	80014a4 <lcdTextX>
 80073bc:	4603      	mov	r3, r0
 80073be:	461c      	mov	r4, r3
 80073c0:	200e      	movs	r0, #14
 80073c2:	f7fa f87f 	bl	80014c4 <lcdTextY>
 80073c6:	4603      	mov	r3, r0
 80073c8:	461d      	mov	r5, r3
 80073ca:	2200      	movs	r2, #0
 80073cc:	2100      	movs	r1, #0
 80073ce:	2000      	movs	r0, #0
 80073d0:	f7fa f84c 	bl	800146c <decodeRgbValue>
 80073d4:	4603      	mov	r3, r0
 80073d6:	461e      	mov	r6, r3
 80073d8:	2200      	movs	r2, #0
 80073da:	2100      	movs	r1, #0
 80073dc:	2000      	movs	r0, #0
 80073de:	f7fa f845 	bl	800146c <decodeRgbValue>
 80073e2:	4603      	mov	r3, r0
 80073e4:	9300      	str	r3, [sp, #0]
 80073e6:	4633      	mov	r3, r6
 80073e8:	462a      	mov	r2, r5
 80073ea:	4621      	mov	r1, r4
 80073ec:	4835      	ldr	r0, [pc, #212]	; (80074c4 <main+0xef4>)
 80073ee:	f7fa f877 	bl	80014e0 <lcdPutS>
 80073f2:	f7ff b9f9 	b.w	80067e8 <main+0x218>
			  }
			  else if (abcVolba == 28){
 80073f6:	f507 4310 	add.w	r3, r7, #36864	; 0x9000
 80073fa:	f103 03a4 	add.w	r3, r3, #164	; 0xa4
 80073fe:	681b      	ldr	r3, [r3, #0]
 8007400:	2b1c      	cmp	r3, #28
 8007402:	f47f a9f1 	bne.w	80067e8 <main+0x218>
				  for (int v=0; v<7; v++)
 8007406:	2300      	movs	r3, #0
 8007408:	f507 4210 	add.w	r2, r7, #36864	; 0x9000
 800740c:	f102 0298 	add.w	r2, r2, #152	; 0x98
 8007410:	6013      	str	r3, [r2, #0]
 8007412:	e037      	b.n	8007484 <main+0xeb4>
					  if (newAlias[v] == ' ')
 8007414:	f107 03c8 	add.w	r3, r7, #200	; 0xc8
 8007418:	3bc8      	subs	r3, #200	; 0xc8
 800741a:	f507 4210 	add.w	r2, r7, #36864	; 0x9000
 800741e:	f102 0298 	add.w	r2, r2, #152	; 0x98
 8007422:	6812      	ldr	r2, [r2, #0]
 8007424:	4413      	add	r3, r2
 8007426:	781b      	ldrb	r3, [r3, #0]
 8007428:	2b20      	cmp	r3, #32
 800742a:	d10b      	bne.n	8007444 <main+0xe74>
						  alias[v] = ' ';
 800742c:	f107 03c8 	add.w	r3, r7, #200	; 0xc8
 8007430:	3b24      	subs	r3, #36	; 0x24
 8007432:	f507 4210 	add.w	r2, r7, #36864	; 0x9000
 8007436:	f102 0298 	add.w	r2, r2, #152	; 0x98
 800743a:	6812      	ldr	r2, [r2, #0]
 800743c:	4413      	add	r3, r2
 800743e:	2220      	movs	r2, #32
 8007440:	701a      	strb	r2, [r3, #0]
 8007442:	e014      	b.n	800746e <main+0xe9e>
					  else
						  alias[v] = newAlias[v];
 8007444:	f107 03c8 	add.w	r3, r7, #200	; 0xc8
 8007448:	3bc8      	subs	r3, #200	; 0xc8
 800744a:	f507 4210 	add.w	r2, r7, #36864	; 0x9000
 800744e:	f102 0298 	add.w	r2, r2, #152	; 0x98
 8007452:	6812      	ldr	r2, [r2, #0]
 8007454:	4413      	add	r3, r2
 8007456:	7819      	ldrb	r1, [r3, #0]
 8007458:	f107 03c8 	add.w	r3, r7, #200	; 0xc8
 800745c:	3b24      	subs	r3, #36	; 0x24
 800745e:	f507 4210 	add.w	r2, r7, #36864	; 0x9000
 8007462:	f102 0298 	add.w	r2, r2, #152	; 0x98
 8007466:	6812      	ldr	r2, [r2, #0]
 8007468:	4413      	add	r3, r2
 800746a:	460a      	mov	r2, r1
 800746c:	701a      	strb	r2, [r3, #0]
				  newAlias[index]=' ';
				  lcdPutCh(newAlias[index], lcdTextX(index+1), lcdTextY(12), decodeRgbValue(255, 255, 255), decodeRgbValue(0, 0, 0));
				  lcdPutS("No more space!", lcdTextX(2), lcdTextY(14), decodeRgbValue(0, 0, 0), decodeRgbValue(0, 0, 0));
			  }
			  else if (abcVolba == 28){
				  for (int v=0; v<7; v++)
 800746e:	f507 4310 	add.w	r3, r7, #36864	; 0x9000
 8007472:	f103 0398 	add.w	r3, r3, #152	; 0x98
 8007476:	681b      	ldr	r3, [r3, #0]
 8007478:	3301      	adds	r3, #1
 800747a:	f507 4210 	add.w	r2, r7, #36864	; 0x9000
 800747e:	f102 0298 	add.w	r2, r2, #152	; 0x98
 8007482:	6013      	str	r3, [r2, #0]
 8007484:	f507 4310 	add.w	r3, r7, #36864	; 0x9000
 8007488:	f103 0398 	add.w	r3, r3, #152	; 0x98
 800748c:	681b      	ldr	r3, [r3, #0]
 800748e:	2b06      	cmp	r3, #6
 8007490:	ddc0      	ble.n	8007414 <main+0xe44>
					  if (newAlias[v] == ' ')
						  alias[v] = ' ';
					  else
						  alias[v] = newAlias[v];
				  lcdClearDisplay(decodeRgbValue(0, 0, 0));
 8007492:	2200      	movs	r2, #0
 8007494:	2100      	movs	r1, #0
 8007496:	2000      	movs	r0, #0
 8007498:	f7f9 ffe8 	bl	800146c <decodeRgbValue>
 800749c:	4603      	mov	r3, r0
 800749e:	4618      	mov	r0, r3
 80074a0:	f7f9 ff30 	bl	8001304 <lcdClearDisplay>
				  index = 0;
 80074a4:	2300      	movs	r3, #0
 80074a6:	f507 4210 	add.w	r2, r7, #36864	; 0x9000
 80074aa:	f102 02a0 	add.w	r2, r2, #160	; 0xa0
 80074ae:	6013      	str	r3, [r2, #0]
				  run = 0;
 80074b0:	2300      	movs	r3, #0
 80074b2:	f507 4210 	add.w	r2, r7, #36864	; 0x9000
 80074b6:	f102 02a8 	add.w	r2, r2, #168	; 0xa8
 80074ba:	6013      	str	r3, [r2, #0]
 80074bc:	f7ff b994 	b.w	80067e8 <main+0x218>
 80074c0:	20000034 	.word	0x20000034
 80074c4:	08007e08 	.word	0x08007e08
			  }

		  }
	  }
	  else if (run == 3){ // high score
 80074c8:	f507 4310 	add.w	r3, r7, #36864	; 0x9000
 80074cc:	f103 03a8 	add.w	r3, r3, #168	; 0xa8
 80074d0:	681b      	ldr	r3, [r3, #0]
 80074d2:	2b03      	cmp	r3, #3
 80074d4:	d128      	bne.n	8007528 <main+0xf58>
		  showHighscore(highscore, names);
 80074d6:	f107 02c8 	add.w	r2, r7, #200	; 0xc8
 80074da:	3a1c      	subs	r2, #28
 80074dc:	f107 03c8 	add.w	r3, r7, #200	; 0xc8
 80074e0:	3b08      	subs	r3, #8
 80074e2:	4611      	mov	r1, r2
 80074e4:	4618      	mov	r0, r3
 80074e6:	f7fe fc49 	bl	8005d7c <showHighscore>
		  if ((AD_value>1700) && (AD_value<3650)){
 80074ea:	4bca      	ldr	r3, [pc, #808]	; (8007814 <main+0x1244>)
 80074ec:	681b      	ldr	r3, [r3, #0]
 80074ee:	f240 62a4 	movw	r2, #1700	; 0x6a4
 80074f2:	4293      	cmp	r3, r2
 80074f4:	f77f a978 	ble.w	80067e8 <main+0x218>
 80074f8:	4bc6      	ldr	r3, [pc, #792]	; (8007814 <main+0x1244>)
 80074fa:	681b      	ldr	r3, [r3, #0]
 80074fc:	f640 6241 	movw	r2, #3649	; 0xe41
 8007500:	4293      	cmp	r3, r2
 8007502:	f73f a971 	bgt.w	80067e8 <main+0x218>
			  lcdClearDisplay(decodeRgbValue(0, 0, 0));
 8007506:	2200      	movs	r2, #0
 8007508:	2100      	movs	r1, #0
 800750a:	2000      	movs	r0, #0
 800750c:	f7f9 ffae 	bl	800146c <decodeRgbValue>
 8007510:	4603      	mov	r3, r0
 8007512:	4618      	mov	r0, r3
 8007514:	f7f9 fef6 	bl	8001304 <lcdClearDisplay>
			  run = 0;
 8007518:	2300      	movs	r3, #0
 800751a:	f507 4210 	add.w	r2, r7, #36864	; 0x9000
 800751e:	f102 02a8 	add.w	r2, r2, #168	; 0xa8
 8007522:	6013      	str	r3, [r2, #0]
 8007524:	f7ff b960 	b.w	80067e8 <main+0x218>
		  }
	  }
	  else if (run == 4){ // game over
 8007528:	f507 4310 	add.w	r3, r7, #36864	; 0x9000
 800752c:	f103 03a8 	add.w	r3, r3, #168	; 0xa8
 8007530:	681b      	ldr	r3, [r3, #0]
 8007532:	2b04      	cmp	r3, #4
 8007534:	f47f a958 	bne.w	80067e8 <main+0x218>
		  lcdPutS("Game  Over", lcdTextX(1), lcdTextY(1), decodeRgbValue(0, 0, 0), decodeRgbValue(31, 31, 31));
 8007538:	2001      	movs	r0, #1
 800753a:	f7f9 ffb3 	bl	80014a4 <lcdTextX>
 800753e:	4603      	mov	r3, r0
 8007540:	461c      	mov	r4, r3
 8007542:	2001      	movs	r0, #1
 8007544:	f7f9 ffbe 	bl	80014c4 <lcdTextY>
 8007548:	4603      	mov	r3, r0
 800754a:	461d      	mov	r5, r3
 800754c:	2200      	movs	r2, #0
 800754e:	2100      	movs	r1, #0
 8007550:	2000      	movs	r0, #0
 8007552:	f7f9 ff8b 	bl	800146c <decodeRgbValue>
 8007556:	4603      	mov	r3, r0
 8007558:	461e      	mov	r6, r3
 800755a:	221f      	movs	r2, #31
 800755c:	211f      	movs	r1, #31
 800755e:	201f      	movs	r0, #31
 8007560:	f7f9 ff84 	bl	800146c <decodeRgbValue>
 8007564:	4603      	mov	r3, r0
 8007566:	9300      	str	r3, [sp, #0]
 8007568:	4633      	mov	r3, r6
 800756a:	462a      	mov	r2, r5
 800756c:	4621      	mov	r1, r4
 800756e:	48aa      	ldr	r0, [pc, #680]	; (8007818 <main+0x1248>)
 8007570:	f7f9 ffb6 	bl	80014e0 <lcdPutS>
		  lcdPutS("Your score is:", lcdTextX(1), lcdTextY(3), decodeRgbValue(31, 31, 31), decodeRgbValue(0, 0, 0));
 8007574:	2001      	movs	r0, #1
 8007576:	f7f9 ff95 	bl	80014a4 <lcdTextX>
 800757a:	4603      	mov	r3, r0
 800757c:	461c      	mov	r4, r3
 800757e:	2003      	movs	r0, #3
 8007580:	f7f9 ffa0 	bl	80014c4 <lcdTextY>
 8007584:	4603      	mov	r3, r0
 8007586:	461d      	mov	r5, r3
 8007588:	221f      	movs	r2, #31
 800758a:	211f      	movs	r1, #31
 800758c:	201f      	movs	r0, #31
 800758e:	f7f9 ff6d 	bl	800146c <decodeRgbValue>
 8007592:	4603      	mov	r3, r0
 8007594:	461e      	mov	r6, r3
 8007596:	2200      	movs	r2, #0
 8007598:	2100      	movs	r1, #0
 800759a:	2000      	movs	r0, #0
 800759c:	f7f9 ff66 	bl	800146c <decodeRgbValue>
 80075a0:	4603      	mov	r3, r0
 80075a2:	9300      	str	r3, [sp, #0]
 80075a4:	4633      	mov	r3, r6
 80075a6:	462a      	mov	r2, r5
 80075a8:	4621      	mov	r1, r4
 80075aa:	489c      	ldr	r0, [pc, #624]	; (800781c <main+0x124c>)
 80075ac:	f7f9 ff98 	bl	80014e0 <lcdPutS>
		  lcdPutS(scoree, lcdTextX(1), lcdTextY(4), decodeRgbValue(31, 31, 31), decodeRgbValue(0, 0, 0));
 80075b0:	2001      	movs	r0, #1
 80075b2:	f7f9 ff77 	bl	80014a4 <lcdTextX>
 80075b6:	4603      	mov	r3, r0
 80075b8:	461c      	mov	r4, r3
 80075ba:	2004      	movs	r0, #4
 80075bc:	f7f9 ff82 	bl	80014c4 <lcdTextY>
 80075c0:	4603      	mov	r3, r0
 80075c2:	461d      	mov	r5, r3
 80075c4:	221f      	movs	r2, #31
 80075c6:	211f      	movs	r1, #31
 80075c8:	201f      	movs	r0, #31
 80075ca:	f7f9 ff4f 	bl	800146c <decodeRgbValue>
 80075ce:	4603      	mov	r3, r0
 80075d0:	461e      	mov	r6, r3
 80075d2:	2200      	movs	r2, #0
 80075d4:	2100      	movs	r1, #0
 80075d6:	2000      	movs	r0, #0
 80075d8:	f7f9 ff48 	bl	800146c <decodeRgbValue>
 80075dc:	4603      	mov	r3, r0
 80075de:	f507 4000 	add.w	r0, r7, #32768	; 0x8000
 80075e2:	f100 00ec 	add.w	r0, r0, #236	; 0xec
 80075e6:	9300      	str	r3, [sp, #0]
 80075e8:	4633      	mov	r3, r6
 80075ea:	462a      	mov	r2, r5
 80075ec:	4621      	mov	r1, r4
 80075ee:	f7f9 ff77 	bl	80014e0 <lcdPutS>
		  lcdPutS("Press any key to return to the menu!", lcdTextX(1), lcdTextY(6), decodeRgbValue(31, 31, 31), decodeRgbValue(0, 0, 0));
 80075f2:	2001      	movs	r0, #1
 80075f4:	f7f9 ff56 	bl	80014a4 <lcdTextX>
 80075f8:	4603      	mov	r3, r0
 80075fa:	461c      	mov	r4, r3
 80075fc:	2006      	movs	r0, #6
 80075fe:	f7f9 ff61 	bl	80014c4 <lcdTextY>
 8007602:	4603      	mov	r3, r0
 8007604:	461d      	mov	r5, r3
 8007606:	221f      	movs	r2, #31
 8007608:	211f      	movs	r1, #31
 800760a:	201f      	movs	r0, #31
 800760c:	f7f9 ff2e 	bl	800146c <decodeRgbValue>
 8007610:	4603      	mov	r3, r0
 8007612:	461e      	mov	r6, r3
 8007614:	2200      	movs	r2, #0
 8007616:	2100      	movs	r1, #0
 8007618:	2000      	movs	r0, #0
 800761a:	f7f9 ff27 	bl	800146c <decodeRgbValue>
 800761e:	4603      	mov	r3, r0
 8007620:	9300      	str	r3, [sp, #0]
 8007622:	4633      	mov	r3, r6
 8007624:	462a      	mov	r2, r5
 8007626:	4621      	mov	r1, r4
 8007628:	487d      	ldr	r0, [pc, #500]	; (8007820 <main+0x1250>)
 800762a:	f7f9 ff59 	bl	80014e0 <lcdPutS>
		  if (score >= highscore[0]){
 800762e:	f107 03c8 	add.w	r3, r7, #200	; 0xc8
 8007632:	3b08      	subs	r3, #8
 8007634:	681a      	ldr	r2, [r3, #0]
 8007636:	f507 4310 	add.w	r3, r7, #36864	; 0x9000
 800763a:	f103 03c0 	add.w	r3, r3, #192	; 0xc0
 800763e:	681b      	ldr	r3, [r3, #0]
 8007640:	429a      	cmp	r2, r3
 8007642:	dc10      	bgt.n	8007666 <main+0x1096>
			  highscore[0]=score;
 8007644:	f107 03c8 	add.w	r3, r7, #200	; 0xc8
 8007648:	3b08      	subs	r3, #8
 800764a:	f507 4210 	add.w	r2, r7, #36864	; 0x9000
 800764e:	f102 02c0 	add.w	r2, r2, #192	; 0xc0
 8007652:	6812      	ldr	r2, [r2, #0]
 8007654:	601a      	str	r2, [r3, #0]
			  names[0] = alias;
 8007656:	f107 03c8 	add.w	r3, r7, #200	; 0xc8
 800765a:	3b1c      	subs	r3, #28
 800765c:	f107 02c8 	add.w	r2, r7, #200	; 0xc8
 8007660:	3a24      	subs	r2, #36	; 0x24
 8007662:	601a      	str	r2, [r3, #0]
 8007664:	e09a      	b.n	800779c <main+0x11cc>
		  }
		  else if (score < highscore[0]  && score >= highscore[1]){
 8007666:	f107 03c8 	add.w	r3, r7, #200	; 0xc8
 800766a:	3b08      	subs	r3, #8
 800766c:	681a      	ldr	r2, [r3, #0]
 800766e:	f507 4310 	add.w	r3, r7, #36864	; 0x9000
 8007672:	f103 03c0 	add.w	r3, r3, #192	; 0xc0
 8007676:	681b      	ldr	r3, [r3, #0]
 8007678:	429a      	cmp	r2, r3
 800767a:	dd1b      	ble.n	80076b4 <main+0x10e4>
 800767c:	f107 03c8 	add.w	r3, r7, #200	; 0xc8
 8007680:	3b08      	subs	r3, #8
 8007682:	685a      	ldr	r2, [r3, #4]
 8007684:	f507 4310 	add.w	r3, r7, #36864	; 0x9000
 8007688:	f103 03c0 	add.w	r3, r3, #192	; 0xc0
 800768c:	681b      	ldr	r3, [r3, #0]
 800768e:	429a      	cmp	r2, r3
 8007690:	dc10      	bgt.n	80076b4 <main+0x10e4>
			  highscore[1] = score;
 8007692:	f107 03c8 	add.w	r3, r7, #200	; 0xc8
 8007696:	3b08      	subs	r3, #8
 8007698:	f507 4210 	add.w	r2, r7, #36864	; 0x9000
 800769c:	f102 02c0 	add.w	r2, r2, #192	; 0xc0
 80076a0:	6812      	ldr	r2, [r2, #0]
 80076a2:	605a      	str	r2, [r3, #4]
			  names[1] = alias;
 80076a4:	f107 03c8 	add.w	r3, r7, #200	; 0xc8
 80076a8:	3b1c      	subs	r3, #28
 80076aa:	f107 02c8 	add.w	r2, r7, #200	; 0xc8
 80076ae:	3a24      	subs	r2, #36	; 0x24
 80076b0:	605a      	str	r2, [r3, #4]
 80076b2:	e073      	b.n	800779c <main+0x11cc>
		  }
		  else if (score < highscore[1]  && score >= highscore[2]){
 80076b4:	f107 03c8 	add.w	r3, r7, #200	; 0xc8
 80076b8:	3b08      	subs	r3, #8
 80076ba:	685a      	ldr	r2, [r3, #4]
 80076bc:	f507 4310 	add.w	r3, r7, #36864	; 0x9000
 80076c0:	f103 03c0 	add.w	r3, r3, #192	; 0xc0
 80076c4:	681b      	ldr	r3, [r3, #0]
 80076c6:	429a      	cmp	r2, r3
 80076c8:	dd1b      	ble.n	8007702 <main+0x1132>
 80076ca:	f107 03c8 	add.w	r3, r7, #200	; 0xc8
 80076ce:	3b08      	subs	r3, #8
 80076d0:	689a      	ldr	r2, [r3, #8]
 80076d2:	f507 4310 	add.w	r3, r7, #36864	; 0x9000
 80076d6:	f103 03c0 	add.w	r3, r3, #192	; 0xc0
 80076da:	681b      	ldr	r3, [r3, #0]
 80076dc:	429a      	cmp	r2, r3
 80076de:	dc10      	bgt.n	8007702 <main+0x1132>
			  highscore[2] = score;
 80076e0:	f107 03c8 	add.w	r3, r7, #200	; 0xc8
 80076e4:	3b08      	subs	r3, #8
 80076e6:	f507 4210 	add.w	r2, r7, #36864	; 0x9000
 80076ea:	f102 02c0 	add.w	r2, r2, #192	; 0xc0
 80076ee:	6812      	ldr	r2, [r2, #0]
 80076f0:	609a      	str	r2, [r3, #8]
			  names[2] = alias;
 80076f2:	f107 03c8 	add.w	r3, r7, #200	; 0xc8
 80076f6:	3b1c      	subs	r3, #28
 80076f8:	f107 02c8 	add.w	r2, r7, #200	; 0xc8
 80076fc:	3a24      	subs	r2, #36	; 0x24
 80076fe:	609a      	str	r2, [r3, #8]
 8007700:	e04c      	b.n	800779c <main+0x11cc>
		  }
		  else if (score < highscore[2]  && score >= highscore[3]){
 8007702:	f107 03c8 	add.w	r3, r7, #200	; 0xc8
 8007706:	3b08      	subs	r3, #8
 8007708:	689a      	ldr	r2, [r3, #8]
 800770a:	f507 4310 	add.w	r3, r7, #36864	; 0x9000
 800770e:	f103 03c0 	add.w	r3, r3, #192	; 0xc0
 8007712:	681b      	ldr	r3, [r3, #0]
 8007714:	429a      	cmp	r2, r3
 8007716:	dd1b      	ble.n	8007750 <main+0x1180>
 8007718:	f107 03c8 	add.w	r3, r7, #200	; 0xc8
 800771c:	3b08      	subs	r3, #8
 800771e:	68da      	ldr	r2, [r3, #12]
 8007720:	f507 4310 	add.w	r3, r7, #36864	; 0x9000
 8007724:	f103 03c0 	add.w	r3, r3, #192	; 0xc0
 8007728:	681b      	ldr	r3, [r3, #0]
 800772a:	429a      	cmp	r2, r3
 800772c:	dc10      	bgt.n	8007750 <main+0x1180>
			  highscore[3] = score;
 800772e:	f107 03c8 	add.w	r3, r7, #200	; 0xc8
 8007732:	3b08      	subs	r3, #8
 8007734:	f507 4210 	add.w	r2, r7, #36864	; 0x9000
 8007738:	f102 02c0 	add.w	r2, r2, #192	; 0xc0
 800773c:	6812      	ldr	r2, [r2, #0]
 800773e:	60da      	str	r2, [r3, #12]
			  names[3] = alias;
 8007740:	f107 03c8 	add.w	r3, r7, #200	; 0xc8
 8007744:	3b1c      	subs	r3, #28
 8007746:	f107 02c8 	add.w	r2, r7, #200	; 0xc8
 800774a:	3a24      	subs	r2, #36	; 0x24
 800774c:	60da      	str	r2, [r3, #12]
 800774e:	e025      	b.n	800779c <main+0x11cc>
		  }
		  else if (score < highscore[3]  && score >= highscore[4]){
 8007750:	f107 03c8 	add.w	r3, r7, #200	; 0xc8
 8007754:	3b08      	subs	r3, #8
 8007756:	68da      	ldr	r2, [r3, #12]
 8007758:	f507 4310 	add.w	r3, r7, #36864	; 0x9000
 800775c:	f103 03c0 	add.w	r3, r3, #192	; 0xc0
 8007760:	681b      	ldr	r3, [r3, #0]
 8007762:	429a      	cmp	r2, r3
 8007764:	dd1a      	ble.n	800779c <main+0x11cc>
 8007766:	f107 03c8 	add.w	r3, r7, #200	; 0xc8
 800776a:	3b08      	subs	r3, #8
 800776c:	691a      	ldr	r2, [r3, #16]
 800776e:	f507 4310 	add.w	r3, r7, #36864	; 0x9000
 8007772:	f103 03c0 	add.w	r3, r3, #192	; 0xc0
 8007776:	681b      	ldr	r3, [r3, #0]
 8007778:	429a      	cmp	r2, r3
 800777a:	dc0f      	bgt.n	800779c <main+0x11cc>
			  highscore[4] = score;
 800777c:	f107 03c8 	add.w	r3, r7, #200	; 0xc8
 8007780:	3b08      	subs	r3, #8
 8007782:	f507 4210 	add.w	r2, r7, #36864	; 0x9000
 8007786:	f102 02c0 	add.w	r2, r2, #192	; 0xc0
 800778a:	6812      	ldr	r2, [r2, #0]
 800778c:	611a      	str	r2, [r3, #16]
			  names[4] = alias;
 800778e:	f107 03c8 	add.w	r3, r7, #200	; 0xc8
 8007792:	3b1c      	subs	r3, #28
 8007794:	f107 02c8 	add.w	r2, r7, #200	; 0xc8
 8007798:	3a24      	subs	r2, #36	; 0x24
 800779a:	611a      	str	r2, [r3, #16]
		  }


		  if ((AD_value>1700) && (AD_value<3650)){
 800779c:	4b1d      	ldr	r3, [pc, #116]	; (8007814 <main+0x1244>)
 800779e:	681b      	ldr	r3, [r3, #0]
 80077a0:	f240 62a4 	movw	r2, #1700	; 0x6a4
 80077a4:	4293      	cmp	r3, r2
 80077a6:	f77f a81f 	ble.w	80067e8 <main+0x218>
 80077aa:	4b1a      	ldr	r3, [pc, #104]	; (8007814 <main+0x1244>)
 80077ac:	681b      	ldr	r3, [r3, #0]
 80077ae:	f640 6241 	movw	r2, #3649	; 0xe41
 80077b2:	4293      	cmp	r3, r2
 80077b4:	f73f a818 	bgt.w	80067e8 <main+0x218>
			  lcdClearDisplay(decodeRgbValue(0, 0, 0));
 80077b8:	2200      	movs	r2, #0
 80077ba:	2100      	movs	r1, #0
 80077bc:	2000      	movs	r0, #0
 80077be:	f7f9 fe55 	bl	800146c <decodeRgbValue>
 80077c2:	4603      	mov	r3, r0
 80077c4:	4618      	mov	r0, r3
 80077c6:	f7f9 fd9d 	bl	8001304 <lcdClearDisplay>
			  score = 0;
 80077ca:	2300      	movs	r3, #0
 80077cc:	f507 4210 	add.w	r2, r7, #36864	; 0x9000
 80077d0:	f102 02c0 	add.w	r2, r2, #192	; 0xc0
 80077d4:	6013      	str	r3, [r2, #0]
			  t=0;
 80077d6:	2300      	movs	r3, #0
 80077d8:	f507 4210 	add.w	r2, r7, #36864	; 0x9000
 80077dc:	f102 02b0 	add.w	r2, r2, #176	; 0xb0
 80077e0:	6013      	str	r3, [r2, #0]
			  lines = 0;
 80077e2:	2300      	movs	r3, #0
 80077e4:	f507 4210 	add.w	r2, r7, #36864	; 0x9000
 80077e8:	f102 02bc 	add.w	r2, r2, #188	; 0xbc
 80077ec:	6013      	str	r3, [r2, #0]
			  cas = 0;
 80077ee:	2300      	movs	r3, #0
 80077f0:	f507 4210 	add.w	r2, r7, #36864	; 0x9000
 80077f4:	f102 02b4 	add.w	r2, r2, #180	; 0xb4
 80077f8:	6013      	str	r3, [r2, #0]
			  run = 0;
 80077fa:	2300      	movs	r3, #0
 80077fc:	f507 4210 	add.w	r2, r7, #36864	; 0x9000
 8007800:	f102 02a8 	add.w	r2, r2, #168	; 0xa8
 8007804:	6013      	str	r3, [r2, #0]
				for (count = 0; count < 1000; count++){
 8007806:	2300      	movs	r3, #0
 8007808:	f507 4210 	add.w	r2, r7, #36864	; 0x9000
 800780c:	f102 02c4 	add.w	r2, r2, #196	; 0xc4
 8007810:	6013      	str	r3, [r2, #0]
 8007812:	e042      	b.n	800789a <main+0x12ca>
 8007814:	20000034 	.word	0x20000034
 8007818:	08007e18 	.word	0x08007e18
 800781c:	08007e24 	.word	0x08007e24
 8007820:	08007e34 	.word	0x08007e34
					blockX[count] = 81; 	// zaciatocna X-ova pozicia objektu
 8007824:	f507 420c 	add.w	r2, r7, #35840	; 0x8c00
 8007828:	f102 02ac 	add.w	r2, r2, #172	; 0xac
 800782c:	f507 4310 	add.w	r3, r7, #36864	; 0x9000
 8007830:	f103 03c4 	add.w	r3, r3, #196	; 0xc4
 8007834:	681b      	ldr	r3, [r3, #0]
 8007836:	4413      	add	r3, r2
 8007838:	2251      	movs	r2, #81	; 0x51
 800783a:	701a      	strb	r2, [r3, #0]
					blockY[count] = 0; 	// zaciatocna Y-ova pozicia objektu
 800783c:	f507 4208 	add.w	r2, r7, #34816	; 0x8800
 8007840:	f102 02c4 	add.w	r2, r2, #196	; 0xc4
 8007844:	f507 4310 	add.w	r3, r7, #36864	; 0x9000
 8007848:	f103 03c4 	add.w	r3, r3, #196	; 0xc4
 800784c:	681b      	ldr	r3, [r3, #0]
 800784e:	4413      	add	r3, r2
 8007850:	2200      	movs	r2, #0
 8007852:	701a      	strb	r2, [r3, #0]
					xDir[count] = 6; 	// velkost jedneho kroku na X-ovej osi
 8007854:	f507 4204 	add.w	r2, r7, #33792	; 0x8400
 8007858:	f102 02dc 	add.w	r2, r2, #220	; 0xdc
 800785c:	f507 4310 	add.w	r3, r7, #36864	; 0x9000
 8007860:	f103 03c4 	add.w	r3, r3, #196	; 0xc4
 8007864:	681b      	ldr	r3, [r3, #0]
 8007866:	4413      	add	r3, r2
 8007868:	2206      	movs	r2, #6
 800786a:	701a      	strb	r2, [r3, #0]
					yDir[count] = 6; 	// velkost jedneho kroku na Y-ovej osi
 800786c:	f507 4200 	add.w	r2, r7, #32768	; 0x8000
 8007870:	f102 02f4 	add.w	r2, r2, #244	; 0xf4
 8007874:	f507 4310 	add.w	r3, r7, #36864	; 0x9000
 8007878:	f103 03c4 	add.w	r3, r3, #196	; 0xc4
 800787c:	681b      	ldr	r3, [r3, #0]
 800787e:	4413      	add	r3, r2
 8007880:	2206      	movs	r2, #6
 8007882:	701a      	strb	r2, [r3, #0]
			  score = 0;
			  t=0;
			  lines = 0;
			  cas = 0;
			  run = 0;
				for (count = 0; count < 1000; count++){
 8007884:	f507 4310 	add.w	r3, r7, #36864	; 0x9000
 8007888:	f103 03c4 	add.w	r3, r3, #196	; 0xc4
 800788c:	681b      	ldr	r3, [r3, #0]
 800788e:	3301      	adds	r3, #1
 8007890:	f507 4210 	add.w	r2, r7, #36864	; 0x9000
 8007894:	f102 02c4 	add.w	r2, r2, #196	; 0xc4
 8007898:	6013      	str	r3, [r2, #0]
 800789a:	f507 4310 	add.w	r3, r7, #36864	; 0x9000
 800789e:	f103 03c4 	add.w	r3, r3, #196	; 0xc4
 80078a2:	681b      	ldr	r3, [r3, #0]
 80078a4:	f5b3 7f7a 	cmp.w	r3, #1000	; 0x3e8
 80078a8:	dbbc      	blt.n	8007824 <main+0x1254>
					blockX[count] = 81; 	// zaciatocna X-ova pozicia objektu
					blockY[count] = 0; 	// zaciatocna Y-ova pozicia objektu
					xDir[count] = 6; 	// velkost jedneho kroku na X-ovej osi
					yDir[count] = 6; 	// velkost jedneho kroku na Y-ovej osi
				}
			  count = 0;
 80078aa:	2300      	movs	r3, #0
 80078ac:	f507 4210 	add.w	r2, r7, #36864	; 0x9000
 80078b0:	f102 02c4 	add.w	r2, r2, #196	; 0xc4
 80078b4:	6013      	str	r3, [r2, #0]
			  createFrame(matrix);
 80078b6:	f507 73e4 	add.w	r3, r7, #456	; 0x1c8
 80078ba:	3be8      	subs	r3, #232	; 0xe8
 80078bc:	4618      	mov	r0, r3
 80078be:	f7fc fb49 	bl	8003f54 <createFrame>
		  }
	  }
  }
 80078c2:	f7fe bf91 	b.w	80067e8 <main+0x218>
 80078c6:	bf00      	nop

080078c8 <Delay>:
				Write_Data(*(n+16*k+i));
				}
}

void Delay(uint16_t n)
{
 80078c8:	b480      	push	{r7}
 80078ca:	b085      	sub	sp, #20
 80078cc:	af00      	add	r7, sp, #0
 80078ce:	4603      	mov	r3, r0
 80078d0:	80fb      	strh	r3, [r7, #6]
	uint32_t nl = n*2;
 80078d2:	88fb      	ldrh	r3, [r7, #6]
 80078d4:	005b      	lsls	r3, r3, #1
 80078d6:	60fb      	str	r3, [r7, #12]
	while(nl--);
 80078d8:	bf00      	nop
 80078da:	68fb      	ldr	r3, [r7, #12]
 80078dc:	1e5a      	subs	r2, r3, #1
 80078de:	60fa      	str	r2, [r7, #12]
 80078e0:	2b00      	cmp	r3, #0
 80078e2:	d1fa      	bne.n	80078da <Delay+0x12>


	return;
 80078e4:	bf00      	nop
}
 80078e6:	3714      	adds	r7, #20
 80078e8:	46bd      	mov	sp, r7
 80078ea:	bc80      	pop	{r7}
 80078ec:	4770      	bx	lr
 80078ee:	bf00      	nop

080078f0 <Reset_Handler>:

  .section .text.Reset_Handler
  .weak Reset_Handler
  .type Reset_Handler, %function
Reset_Handler:
  ldr   sp, =_estack    /* Atollic update: set stack pointer */
 80078f0:	f8df d034 	ldr.w	sp, [pc, #52]	; 8007928 <LoopFillZerobss+0x14>

/* Copy the data segment initializers from flash to SRAM */
  movs r1, #0
 80078f4:	2100      	movs	r1, #0
  b LoopCopyDataInit
 80078f6:	e003      	b.n	8007900 <LoopCopyDataInit>

080078f8 <CopyDataInit>:

CopyDataInit:
  ldr r3, =_sidata
 80078f8:	4b0c      	ldr	r3, [pc, #48]	; (800792c <LoopFillZerobss+0x18>)
  ldr r3, [r3, r1]
 80078fa:	585b      	ldr	r3, [r3, r1]
  str r3, [r0, r1]
 80078fc:	5043      	str	r3, [r0, r1]
  adds r1, r1, #4
 80078fe:	3104      	adds	r1, #4

08007900 <LoopCopyDataInit>:

LoopCopyDataInit:
  ldr r0, =_sdata
 8007900:	480b      	ldr	r0, [pc, #44]	; (8007930 <LoopFillZerobss+0x1c>)
  ldr r3, =_edata
 8007902:	4b0c      	ldr	r3, [pc, #48]	; (8007934 <LoopFillZerobss+0x20>)
  adds r2, r0, r1
 8007904:	1842      	adds	r2, r0, r1
  cmp r2, r3
 8007906:	429a      	cmp	r2, r3
  bcc CopyDataInit
 8007908:	d3f6      	bcc.n	80078f8 <CopyDataInit>
  ldr r2, =_sbss
 800790a:	4a0b      	ldr	r2, [pc, #44]	; (8007938 <LoopFillZerobss+0x24>)
  b LoopFillZerobss
 800790c:	e002      	b.n	8007914 <LoopFillZerobss>

0800790e <FillZerobss>:
/* Zero fill the bss segment. */
FillZerobss:
  movs r3, #0
 800790e:	2300      	movs	r3, #0
  str r3, [r2], #4
 8007910:	f842 3b04 	str.w	r3, [r2], #4

08007914 <LoopFillZerobss>:

LoopFillZerobss:
  ldr r3, = _ebss
 8007914:	4b09      	ldr	r3, [pc, #36]	; (800793c <LoopFillZerobss+0x28>)
  cmp r2, r3
 8007916:	429a      	cmp	r2, r3
  bcc FillZerobss
 8007918:	d3f9      	bcc.n	800790e <FillZerobss>

/* Call the clock system intitialization function.*/
    bl  SystemInit
 800791a:	f000 f841 	bl	80079a0 <SystemInit>
/* Call static constructors */
    bl __libc_init_array
 800791e:	f000 f9f9 	bl	8007d14 <__libc_init_array>
/* Call the application's entry point.*/
  bl main
 8007922:	f7fe fe55 	bl	80065d0 <main>
  bx lr
 8007926:	4770      	bx	lr

  .section .text.Reset_Handler
  .weak Reset_Handler
  .type Reset_Handler, %function
Reset_Handler:
  ldr   sp, =_estack    /* Atollic update: set stack pointer */
 8007928:	20014000 	.word	0x20014000
/* Copy the data segment initializers from flash to SRAM */
  movs r1, #0
  b LoopCopyDataInit

CopyDataInit:
  ldr r3, =_sidata
 800792c:	080085fc 	.word	0x080085fc
  ldr r3, [r3, r1]
  str r3, [r0, r1]
  adds r1, r1, #4

LoopCopyDataInit:
  ldr r0, =_sdata
 8007930:	20000000 	.word	0x20000000
  ldr r3, =_edata
 8007934:	20000004 	.word	0x20000004
  adds r2, r0, r1
  cmp r2, r3
  bcc CopyDataInit
  ldr r2, =_sbss
 8007938:	20000008 	.word	0x20000008
FillZerobss:
  movs r3, #0
  str r3, [r2], #4

LoopFillZerobss:
  ldr r3, = _ebss
 800793c:	20000038 	.word	0x20000038

08007940 <AES_IRQHandler>:
 * @retval : None
*/
    .section .text.Default_Handler,"ax",%progbits
Default_Handler:
Infinite_Loop:
  b Infinite_Loop
 8007940:	e7fe      	b.n	8007940 <AES_IRQHandler>
	...

08007944 <NMI_Handler>:
  * @brief  This function handles NMI exception.
  * @param  None
  * @retval None
  */
void NMI_Handler(void)
{
 8007944:	b480      	push	{r7}
 8007946:	af00      	add	r7, sp, #0
}
 8007948:	bf00      	nop
 800794a:	46bd      	mov	sp, r7
 800794c:	bc80      	pop	{r7}
 800794e:	4770      	bx	lr

08007950 <HardFault_Handler>:
  * @brief  This function handles Hard Fault exception.
  * @param  None
  * @retval None
  */
void HardFault_Handler(void)
{
 8007950:	b480      	push	{r7}
 8007952:	af00      	add	r7, sp, #0
  /* Go to infinite loop when Hard Fault exception occurs */
  while (1)
  {
  }
 8007954:	e7fe      	b.n	8007954 <HardFault_Handler+0x4>
 8007956:	bf00      	nop

08007958 <MemManage_Handler>:
  * @brief  This function handles Memory Manage exception.
  * @param  None
  * @retval None
  */
void MemManage_Handler(void)
{
 8007958:	b480      	push	{r7}
 800795a:	af00      	add	r7, sp, #0
  /* Go to infinite loop when Memory Manage exception occurs */
  while (1)
  {
  }
 800795c:	e7fe      	b.n	800795c <MemManage_Handler+0x4>
 800795e:	bf00      	nop

08007960 <BusFault_Handler>:
  * @brief  This function handles Bus Fault exception.
  * @param  None
  * @retval None
  */
void BusFault_Handler(void)
{
 8007960:	b480      	push	{r7}
 8007962:	af00      	add	r7, sp, #0
  /* Go to infinite loop when Bus Fault exception occurs */
  while (1)
  {
  }
 8007964:	e7fe      	b.n	8007964 <BusFault_Handler+0x4>
 8007966:	bf00      	nop

08007968 <UsageFault_Handler>:
  * @brief  This function handles Usage Fault exception.
  * @param  None
  * @retval None
  */
void UsageFault_Handler(void)
{
 8007968:	b480      	push	{r7}
 800796a:	af00      	add	r7, sp, #0
  /* Go to infinite loop when Usage Fault exception occurs */
  while (1)
  {
  }
 800796c:	e7fe      	b.n	800796c <UsageFault_Handler+0x4>
 800796e:	bf00      	nop

08007970 <SVC_Handler>:
  * @brief  This function handles SVCall exception.
  * @param  None
  * @retval None
  */
void SVC_Handler(void)
{
 8007970:	b480      	push	{r7}
 8007972:	af00      	add	r7, sp, #0
}
 8007974:	bf00      	nop
 8007976:	46bd      	mov	sp, r7
 8007978:	bc80      	pop	{r7}
 800797a:	4770      	bx	lr

0800797c <DebugMon_Handler>:
  * @brief  This function handles Debug Monitor exception.
  * @param  None
  * @retval None
  */
void DebugMon_Handler(void)
{
 800797c:	b480      	push	{r7}
 800797e:	af00      	add	r7, sp, #0
}
 8007980:	bf00      	nop
 8007982:	46bd      	mov	sp, r7
 8007984:	bc80      	pop	{r7}
 8007986:	4770      	bx	lr

08007988 <PendSV_Handler>:
  * @brief  This function handles PendSVC exception.
  * @param  None
  * @retval None
  */
void PendSV_Handler(void)
{
 8007988:	b480      	push	{r7}
 800798a:	af00      	add	r7, sp, #0
}
 800798c:	bf00      	nop
 800798e:	46bd      	mov	sp, r7
 8007990:	bc80      	pop	{r7}
 8007992:	4770      	bx	lr

08007994 <SysTick_Handler>:
  * @brief  This function handles SysTick Handler.
  * @param  None
  * @retval None
  */
void SysTick_Handler(void)
{
 8007994:	b480      	push	{r7}
 8007996:	af00      	add	r7, sp, #0
	/*  TimingDelay_Decrement(); */
#ifdef USE_STM32L_DISCOVERY
  TimingDelay_Decrement();
#endif
}
 8007998:	bf00      	nop
 800799a:	46bd      	mov	sp, r7
 800799c:	bc80      	pop	{r7}
 800799e:	4770      	bx	lr

080079a0 <SystemInit>:
  *         SystemCoreClock variable.
  * @param  None
  * @retval None
  */
void SystemInit (void)
{
 80079a0:	b580      	push	{r7, lr}
 80079a2:	af00      	add	r7, sp, #0
  /*!< Set MSION bit */
  RCC->CR |= (uint32_t)0x00000100;
 80079a4:	4a15      	ldr	r2, [pc, #84]	; (80079fc <SystemInit+0x5c>)
 80079a6:	4b15      	ldr	r3, [pc, #84]	; (80079fc <SystemInit+0x5c>)
 80079a8:	681b      	ldr	r3, [r3, #0]
 80079aa:	f443 7380 	orr.w	r3, r3, #256	; 0x100
 80079ae:	6013      	str	r3, [r2, #0]

  /*!< Reset SW[1:0], HPRE[3:0], PPRE1[2:0], PPRE2[2:0], MCOSEL[2:0] and MCOPRE[2:0] bits */
  RCC->CFGR &= (uint32_t)0x88FFC00C;
 80079b0:	4912      	ldr	r1, [pc, #72]	; (80079fc <SystemInit+0x5c>)
 80079b2:	4b12      	ldr	r3, [pc, #72]	; (80079fc <SystemInit+0x5c>)
 80079b4:	689a      	ldr	r2, [r3, #8]
 80079b6:	4b12      	ldr	r3, [pc, #72]	; (8007a00 <SystemInit+0x60>)
 80079b8:	4013      	ands	r3, r2
 80079ba:	608b      	str	r3, [r1, #8]
  
  /*!< Reset HSION, HSEON, CSSON and PLLON bits */
  RCC->CR &= (uint32_t)0xEEFEFFFE;
 80079bc:	4a0f      	ldr	r2, [pc, #60]	; (80079fc <SystemInit+0x5c>)
 80079be:	4b0f      	ldr	r3, [pc, #60]	; (80079fc <SystemInit+0x5c>)
 80079c0:	681b      	ldr	r3, [r3, #0]
 80079c2:	f023 5388 	bic.w	r3, r3, #285212672	; 0x11000000
 80079c6:	f023 1301 	bic.w	r3, r3, #65537	; 0x10001
 80079ca:	6013      	str	r3, [r2, #0]

  /*!< Reset HSEBYP bit */
  RCC->CR &= (uint32_t)0xFFFBFFFF;
 80079cc:	4a0b      	ldr	r2, [pc, #44]	; (80079fc <SystemInit+0x5c>)
 80079ce:	4b0b      	ldr	r3, [pc, #44]	; (80079fc <SystemInit+0x5c>)
 80079d0:	681b      	ldr	r3, [r3, #0]
 80079d2:	f423 2380 	bic.w	r3, r3, #262144	; 0x40000
 80079d6:	6013      	str	r3, [r2, #0]

  /*!< Reset PLLSRC, PLLMUL[3:0] and PLLDIV[1:0] bits */
  RCC->CFGR &= (uint32_t)0xFF02FFFF;
 80079d8:	4a08      	ldr	r2, [pc, #32]	; (80079fc <SystemInit+0x5c>)
 80079da:	4b08      	ldr	r3, [pc, #32]	; (80079fc <SystemInit+0x5c>)
 80079dc:	689b      	ldr	r3, [r3, #8]
 80079de:	f423 037d 	bic.w	r3, r3, #16580608	; 0xfd0000
 80079e2:	6093      	str	r3, [r2, #8]

  /*!< Disable all interrupts */
  RCC->CIR = 0x00000000;
 80079e4:	4b05      	ldr	r3, [pc, #20]	; (80079fc <SystemInit+0x5c>)
 80079e6:	2200      	movs	r2, #0
 80079e8:	60da      	str	r2, [r3, #12]
#ifdef DATA_IN_ExtSRAM
  SystemInit_ExtMemCtl(); 
#endif /* DATA_IN_ExtSRAM */
    
  /* Configure the System clock frequency, AHB/APBx prescalers and Flash settings */
  SetSysClock();
 80079ea:	f000 f80d 	bl	8007a08 <SetSysClock>

#ifdef VECT_TAB_SRAM
  SCB->VTOR = SRAM_BASE | VECT_TAB_OFFSET; /* Vector Table Relocation in Internal SRAM. */
#else
  SCB->VTOR = FLASH_BASE | VECT_TAB_OFFSET; /* Vector Table Relocation in Internal FLASH. */
 80079ee:	4b05      	ldr	r3, [pc, #20]	; (8007a04 <SystemInit+0x64>)
 80079f0:	f04f 6200 	mov.w	r2, #134217728	; 0x8000000
 80079f4:	609a      	str	r2, [r3, #8]
#endif
}
 80079f6:	bf00      	nop
 80079f8:	bd80      	pop	{r7, pc}
 80079fa:	bf00      	nop
 80079fc:	40023800 	.word	0x40023800
 8007a00:	88ffc00c 	.word	0x88ffc00c
 8007a04:	e000ed00 	.word	0xe000ed00

08007a08 <SetSysClock>:
  *         is reset to the default reset state (done in SystemInit() function).
  * @param  None
  * @retval None
  */
static void SetSysClock(void)
{
 8007a08:	b480      	push	{r7}
 8007a0a:	b083      	sub	sp, #12
 8007a0c:	af00      	add	r7, sp, #0
  __IO uint32_t StartUpCounter = 0, HSEStatus = 0;
 8007a0e:	2300      	movs	r3, #0
 8007a10:	607b      	str	r3, [r7, #4]
 8007a12:	2300      	movs	r3, #0
 8007a14:	603b      	str	r3, [r7, #0]
  
  /* SYSCLK, HCLK, PCLK2 and PCLK1 configuration ---------------------------*/
  /* Enable HSE */
  RCC->CR |= ((uint32_t)RCC_CR_HSEON);
 8007a16:	4a41      	ldr	r2, [pc, #260]	; (8007b1c <SetSysClock+0x114>)
 8007a18:	4b40      	ldr	r3, [pc, #256]	; (8007b1c <SetSysClock+0x114>)
 8007a1a:	681b      	ldr	r3, [r3, #0]
 8007a1c:	f443 3380 	orr.w	r3, r3, #65536	; 0x10000
 8007a20:	6013      	str	r3, [r2, #0]
 
  /* Wait till HSE is ready and if Time out is reached exit */
  do
  {
    HSEStatus = RCC->CR & RCC_CR_HSERDY;
 8007a22:	4b3e      	ldr	r3, [pc, #248]	; (8007b1c <SetSysClock+0x114>)
 8007a24:	681b      	ldr	r3, [r3, #0]
 8007a26:	f403 3300 	and.w	r3, r3, #131072	; 0x20000
 8007a2a:	603b      	str	r3, [r7, #0]
    StartUpCounter++;
 8007a2c:	687b      	ldr	r3, [r7, #4]
 8007a2e:	3301      	adds	r3, #1
 8007a30:	607b      	str	r3, [r7, #4]
  } while((HSEStatus == 0) && (StartUpCounter != HSE_STARTUP_TIMEOUT));
 8007a32:	683b      	ldr	r3, [r7, #0]
 8007a34:	2b00      	cmp	r3, #0
 8007a36:	d103      	bne.n	8007a40 <SetSysClock+0x38>
 8007a38:	687b      	ldr	r3, [r7, #4]
 8007a3a:	f5b3 6fa0 	cmp.w	r3, #1280	; 0x500
 8007a3e:	d1f0      	bne.n	8007a22 <SetSysClock+0x1a>

  if ((RCC->CR & RCC_CR_HSERDY) != RESET)
 8007a40:	4b36      	ldr	r3, [pc, #216]	; (8007b1c <SetSysClock+0x114>)
 8007a42:	681b      	ldr	r3, [r3, #0]
 8007a44:	f403 3300 	and.w	r3, r3, #131072	; 0x20000
 8007a48:	2b00      	cmp	r3, #0
 8007a4a:	d002      	beq.n	8007a52 <SetSysClock+0x4a>
  {
    HSEStatus = (uint32_t)0x01;
 8007a4c:	2301      	movs	r3, #1
 8007a4e:	603b      	str	r3, [r7, #0]
 8007a50:	e001      	b.n	8007a56 <SetSysClock+0x4e>
  }
  else
  {
    HSEStatus = (uint32_t)0x00;
 8007a52:	2300      	movs	r3, #0
 8007a54:	603b      	str	r3, [r7, #0]
  }
  
  if (HSEStatus == (uint32_t)0x01)
 8007a56:	683b      	ldr	r3, [r7, #0]
 8007a58:	2b01      	cmp	r3, #1
 8007a5a:	d15a      	bne.n	8007b12 <SetSysClock+0x10a>
  {
    /* Enable 64-bit access */
    FLASH->ACR |= FLASH_ACR_ACC64;
 8007a5c:	4a30      	ldr	r2, [pc, #192]	; (8007b20 <SetSysClock+0x118>)
 8007a5e:	4b30      	ldr	r3, [pc, #192]	; (8007b20 <SetSysClock+0x118>)
 8007a60:	681b      	ldr	r3, [r3, #0]
 8007a62:	f043 0304 	orr.w	r3, r3, #4
 8007a66:	6013      	str	r3, [r2, #0]
    
    /* Enable Prefetch Buffer */
    FLASH->ACR |= FLASH_ACR_PRFTEN;
 8007a68:	4a2d      	ldr	r2, [pc, #180]	; (8007b20 <SetSysClock+0x118>)
 8007a6a:	4b2d      	ldr	r3, [pc, #180]	; (8007b20 <SetSysClock+0x118>)
 8007a6c:	681b      	ldr	r3, [r3, #0]
 8007a6e:	f043 0302 	orr.w	r3, r3, #2
 8007a72:	6013      	str	r3, [r2, #0]

    /* Flash 1 wait state */
    FLASH->ACR |= FLASH_ACR_LATENCY;
 8007a74:	4a2a      	ldr	r2, [pc, #168]	; (8007b20 <SetSysClock+0x118>)
 8007a76:	4b2a      	ldr	r3, [pc, #168]	; (8007b20 <SetSysClock+0x118>)
 8007a78:	681b      	ldr	r3, [r3, #0]
 8007a7a:	f043 0301 	orr.w	r3, r3, #1
 8007a7e:	6013      	str	r3, [r2, #0]
    
    /* Power enable */
    RCC->APB1ENR |= RCC_APB1ENR_PWREN;
 8007a80:	4a26      	ldr	r2, [pc, #152]	; (8007b1c <SetSysClock+0x114>)
 8007a82:	4b26      	ldr	r3, [pc, #152]	; (8007b1c <SetSysClock+0x114>)
 8007a84:	6a5b      	ldr	r3, [r3, #36]	; 0x24
 8007a86:	f043 5380 	orr.w	r3, r3, #268435456	; 0x10000000
 8007a8a:	6253      	str	r3, [r2, #36]	; 0x24
  
    /* Select the Voltage Range 1 (1.8 V) */
    PWR->CR = PWR_CR_VOS_0;
 8007a8c:	4b25      	ldr	r3, [pc, #148]	; (8007b24 <SetSysClock+0x11c>)
 8007a8e:	f44f 6200 	mov.w	r2, #2048	; 0x800
 8007a92:	601a      	str	r2, [r3, #0]
  
    /* Wait Until the Voltage Regulator is ready */
    while((PWR->CSR & PWR_CSR_VOSF) != RESET)
 8007a94:	bf00      	nop
 8007a96:	4b23      	ldr	r3, [pc, #140]	; (8007b24 <SetSysClock+0x11c>)
 8007a98:	685b      	ldr	r3, [r3, #4]
 8007a9a:	f003 0310 	and.w	r3, r3, #16
 8007a9e:	2b00      	cmp	r3, #0
 8007aa0:	d1f9      	bne.n	8007a96 <SetSysClock+0x8e>
    {
    }
        
    /* HCLK = SYSCLK /1*/
    RCC->CFGR |= (uint32_t)RCC_CFGR_HPRE_DIV1;
 8007aa2:	4a1e      	ldr	r2, [pc, #120]	; (8007b1c <SetSysClock+0x114>)
 8007aa4:	4b1d      	ldr	r3, [pc, #116]	; (8007b1c <SetSysClock+0x114>)
 8007aa6:	689b      	ldr	r3, [r3, #8]
 8007aa8:	6093      	str	r3, [r2, #8]
  
    /* PCLK2 = HCLK /1*/
    RCC->CFGR |= (uint32_t)RCC_CFGR_PPRE2_DIV1;
 8007aaa:	4a1c      	ldr	r2, [pc, #112]	; (8007b1c <SetSysClock+0x114>)
 8007aac:	4b1b      	ldr	r3, [pc, #108]	; (8007b1c <SetSysClock+0x114>)
 8007aae:	689b      	ldr	r3, [r3, #8]
 8007ab0:	6093      	str	r3, [r2, #8]
    
    /* PCLK1 = HCLK /1*/
    RCC->CFGR |= (uint32_t)RCC_CFGR_PPRE1_DIV1;
 8007ab2:	4a1a      	ldr	r2, [pc, #104]	; (8007b1c <SetSysClock+0x114>)
 8007ab4:	4b19      	ldr	r3, [pc, #100]	; (8007b1c <SetSysClock+0x114>)
 8007ab6:	689b      	ldr	r3, [r3, #8]
 8007ab8:	6093      	str	r3, [r2, #8]
    
    /*  PLL configuration */
    RCC->CFGR &= (uint32_t)((uint32_t)~(RCC_CFGR_PLLSRC | RCC_CFGR_PLLMUL |
 8007aba:	4a18      	ldr	r2, [pc, #96]	; (8007b1c <SetSysClock+0x114>)
 8007abc:	4b17      	ldr	r3, [pc, #92]	; (8007b1c <SetSysClock+0x114>)
 8007abe:	689b      	ldr	r3, [r3, #8]
 8007ac0:	f423 037d 	bic.w	r3, r3, #16580608	; 0xfd0000
 8007ac4:	6093      	str	r3, [r2, #8]
                                        RCC_CFGR_PLLDIV));
    RCC->CFGR |= (uint32_t)(RCC_CFGR_PLLSRC_HSE | RCC_CFGR_PLLMUL12 | RCC_CFGR_PLLDIV3);
 8007ac6:	4a15      	ldr	r2, [pc, #84]	; (8007b1c <SetSysClock+0x114>)
 8007ac8:	4b14      	ldr	r3, [pc, #80]	; (8007b1c <SetSysClock+0x114>)
 8007aca:	689b      	ldr	r3, [r3, #8]
 8007acc:	f443 0311 	orr.w	r3, r3, #9502720	; 0x910000
 8007ad0:	6093      	str	r3, [r2, #8]

    /* Enable PLL */
    RCC->CR |= RCC_CR_PLLON;
 8007ad2:	4a12      	ldr	r2, [pc, #72]	; (8007b1c <SetSysClock+0x114>)
 8007ad4:	4b11      	ldr	r3, [pc, #68]	; (8007b1c <SetSysClock+0x114>)
 8007ad6:	681b      	ldr	r3, [r3, #0]
 8007ad8:	f043 7380 	orr.w	r3, r3, #16777216	; 0x1000000
 8007adc:	6013      	str	r3, [r2, #0]

    /* Wait till PLL is ready */
    while((RCC->CR & RCC_CR_PLLRDY) == 0)
 8007ade:	bf00      	nop
 8007ae0:	4b0e      	ldr	r3, [pc, #56]	; (8007b1c <SetSysClock+0x114>)
 8007ae2:	681b      	ldr	r3, [r3, #0]
 8007ae4:	f003 7300 	and.w	r3, r3, #33554432	; 0x2000000
 8007ae8:	2b00      	cmp	r3, #0
 8007aea:	d0f9      	beq.n	8007ae0 <SetSysClock+0xd8>
    {
    }
        
    /* Select PLL as system clock source */
    RCC->CFGR &= (uint32_t)((uint32_t)~(RCC_CFGR_SW));
 8007aec:	4a0b      	ldr	r2, [pc, #44]	; (8007b1c <SetSysClock+0x114>)
 8007aee:	4b0b      	ldr	r3, [pc, #44]	; (8007b1c <SetSysClock+0x114>)
 8007af0:	689b      	ldr	r3, [r3, #8]
 8007af2:	f023 0303 	bic.w	r3, r3, #3
 8007af6:	6093      	str	r3, [r2, #8]
    RCC->CFGR |= (uint32_t)RCC_CFGR_SW_PLL;
 8007af8:	4a08      	ldr	r2, [pc, #32]	; (8007b1c <SetSysClock+0x114>)
 8007afa:	4b08      	ldr	r3, [pc, #32]	; (8007b1c <SetSysClock+0x114>)
 8007afc:	689b      	ldr	r3, [r3, #8]
 8007afe:	f043 0303 	orr.w	r3, r3, #3
 8007b02:	6093      	str	r3, [r2, #8]

    /* Wait till PLL is used as system clock source */
    while ((RCC->CFGR & (uint32_t)RCC_CFGR_SWS) != (uint32_t)RCC_CFGR_SWS_PLL)
 8007b04:	bf00      	nop
 8007b06:	4b05      	ldr	r3, [pc, #20]	; (8007b1c <SetSysClock+0x114>)
 8007b08:	689b      	ldr	r3, [r3, #8]
 8007b0a:	f003 030c 	and.w	r3, r3, #12
 8007b0e:	2b0c      	cmp	r3, #12
 8007b10:	d1f9      	bne.n	8007b06 <SetSysClock+0xfe>
  else
  {
    /* If HSE fails to start-up, the application will have wrong clock
       configuration. User can add here some code to deal with this error */
  }
}
 8007b12:	bf00      	nop
 8007b14:	370c      	adds	r7, #12
 8007b16:	46bd      	mov	sp, r7
 8007b18:	bc80      	pop	{r7}
 8007b1a:	4770      	bx	lr
 8007b1c:	40023800 	.word	0x40023800
 8007b20:	40023c00 	.word	0x40023c00
 8007b24:	40007000 	.word	0x40007000

08007b28 <ts_itoa>:
**  Abstract: Convert integer to ascii
**  Returns:  void
**---------------------------------------------------------------------------
*/
void ts_itoa(char **buf, unsigned int d, int base)
{
 8007b28:	b480      	push	{r7}
 8007b2a:	b087      	sub	sp, #28
 8007b2c:	af00      	add	r7, sp, #0
 8007b2e:	60f8      	str	r0, [r7, #12]
 8007b30:	60b9      	str	r1, [r7, #8]
 8007b32:	607a      	str	r2, [r7, #4]
	int div = 1;
 8007b34:	2301      	movs	r3, #1
 8007b36:	617b      	str	r3, [r7, #20]
	while (d/div >= base)
 8007b38:	e004      	b.n	8007b44 <ts_itoa+0x1c>
		div *= base;
 8007b3a:	697b      	ldr	r3, [r7, #20]
 8007b3c:	687a      	ldr	r2, [r7, #4]
 8007b3e:	fb02 f303 	mul.w	r3, r2, r3
 8007b42:	617b      	str	r3, [r7, #20]
**---------------------------------------------------------------------------
*/
void ts_itoa(char **buf, unsigned int d, int base)
{
	int div = 1;
	while (d/div >= base)
 8007b44:	697b      	ldr	r3, [r7, #20]
 8007b46:	68ba      	ldr	r2, [r7, #8]
 8007b48:	fbb2 f2f3 	udiv	r2, r2, r3
 8007b4c:	687b      	ldr	r3, [r7, #4]
 8007b4e:	429a      	cmp	r2, r3
 8007b50:	d2f3      	bcs.n	8007b3a <ts_itoa+0x12>
		div *= base;

	while (div != 0)
 8007b52:	e029      	b.n	8007ba8 <ts_itoa+0x80>
	{
		int num = d/div;
 8007b54:	697b      	ldr	r3, [r7, #20]
 8007b56:	68ba      	ldr	r2, [r7, #8]
 8007b58:	fbb2 f3f3 	udiv	r3, r2, r3
 8007b5c:	613b      	str	r3, [r7, #16]
		d = d%div;
 8007b5e:	697a      	ldr	r2, [r7, #20]
 8007b60:	68bb      	ldr	r3, [r7, #8]
 8007b62:	fbb3 f1f2 	udiv	r1, r3, r2
 8007b66:	fb02 f201 	mul.w	r2, r2, r1
 8007b6a:	1a9b      	subs	r3, r3, r2
 8007b6c:	60bb      	str	r3, [r7, #8]
		div /= base;
 8007b6e:	697a      	ldr	r2, [r7, #20]
 8007b70:	687b      	ldr	r3, [r7, #4]
 8007b72:	fb92 f3f3 	sdiv	r3, r2, r3
 8007b76:	617b      	str	r3, [r7, #20]
		if (num > 9)
 8007b78:	693b      	ldr	r3, [r7, #16]
 8007b7a:	2b09      	cmp	r3, #9
 8007b7c:	dd0a      	ble.n	8007b94 <ts_itoa+0x6c>
			*((*buf)++) = (num-10) + 'A';
 8007b7e:	68fb      	ldr	r3, [r7, #12]
 8007b80:	681b      	ldr	r3, [r3, #0]
 8007b82:	1c59      	adds	r1, r3, #1
 8007b84:	68fa      	ldr	r2, [r7, #12]
 8007b86:	6011      	str	r1, [r2, #0]
 8007b88:	693a      	ldr	r2, [r7, #16]
 8007b8a:	b2d2      	uxtb	r2, r2
 8007b8c:	3237      	adds	r2, #55	; 0x37
 8007b8e:	b2d2      	uxtb	r2, r2
 8007b90:	701a      	strb	r2, [r3, #0]
 8007b92:	e009      	b.n	8007ba8 <ts_itoa+0x80>
		else
			*((*buf)++) = num + '0';
 8007b94:	68fb      	ldr	r3, [r7, #12]
 8007b96:	681b      	ldr	r3, [r3, #0]
 8007b98:	1c59      	adds	r1, r3, #1
 8007b9a:	68fa      	ldr	r2, [r7, #12]
 8007b9c:	6011      	str	r1, [r2, #0]
 8007b9e:	693a      	ldr	r2, [r7, #16]
 8007ba0:	b2d2      	uxtb	r2, r2
 8007ba2:	3230      	adds	r2, #48	; 0x30
 8007ba4:	b2d2      	uxtb	r2, r2
 8007ba6:	701a      	strb	r2, [r3, #0]
{
	int div = 1;
	while (d/div >= base)
		div *= base;

	while (div != 0)
 8007ba8:	697b      	ldr	r3, [r7, #20]
 8007baa:	2b00      	cmp	r3, #0
 8007bac:	d1d2      	bne.n	8007b54 <ts_itoa+0x2c>
		if (num > 9)
			*((*buf)++) = (num-10) + 'A';
		else
			*((*buf)++) = num + '0';
	}
}
 8007bae:	bf00      	nop
 8007bb0:	371c      	adds	r7, #28
 8007bb2:	46bd      	mov	sp, r7
 8007bb4:	bc80      	pop	{r7}
 8007bb6:	4770      	bx	lr

08007bb8 <ts_formatstring>:
**  Abstract: Writes arguments va to buffer buf according to format fmt
**  Returns:  Length of string
**---------------------------------------------------------------------------
*/
int ts_formatstring(char *buf, const char *fmt, va_list va)
{
 8007bb8:	b580      	push	{r7, lr}
 8007bba:	b088      	sub	sp, #32
 8007bbc:	af00      	add	r7, sp, #0
 8007bbe:	60f8      	str	r0, [r7, #12]
 8007bc0:	60b9      	str	r1, [r7, #8]
 8007bc2:	607a      	str	r2, [r7, #4]
	char *start_buf = buf;
 8007bc4:	68fb      	ldr	r3, [r7, #12]
 8007bc6:	617b      	str	r3, [r7, #20]
	while(*fmt)
 8007bc8:	e07d      	b.n	8007cc6 <ts_formatstring+0x10e>
	{
		/* Character needs formating? */
		if (*fmt == '%')
 8007bca:	68bb      	ldr	r3, [r7, #8]
 8007bcc:	781b      	ldrb	r3, [r3, #0]
 8007bce:	2b25      	cmp	r3, #37	; 0x25
 8007bd0:	d171      	bne.n	8007cb6 <ts_formatstring+0xfe>
		{
			switch (*(++fmt))
 8007bd2:	68bb      	ldr	r3, [r7, #8]
 8007bd4:	3301      	adds	r3, #1
 8007bd6:	60bb      	str	r3, [r7, #8]
 8007bd8:	68bb      	ldr	r3, [r7, #8]
 8007bda:	781b      	ldrb	r3, [r3, #0]
 8007bdc:	2b64      	cmp	r3, #100	; 0x64
 8007bde:	d01e      	beq.n	8007c1e <ts_formatstring+0x66>
 8007be0:	2b64      	cmp	r3, #100	; 0x64
 8007be2:	dc06      	bgt.n	8007bf2 <ts_formatstring+0x3a>
 8007be4:	2b58      	cmp	r3, #88	; 0x58
 8007be6:	d050      	beq.n	8007c8a <ts_formatstring+0xd2>
 8007be8:	2b63      	cmp	r3, #99	; 0x63
 8007bea:	d00e      	beq.n	8007c0a <ts_formatstring+0x52>
 8007bec:	2b25      	cmp	r3, #37	; 0x25
 8007bee:	d058      	beq.n	8007ca2 <ts_formatstring+0xea>
 8007bf0:	e05d      	b.n	8007cae <ts_formatstring+0xf6>
 8007bf2:	2b73      	cmp	r3, #115	; 0x73
 8007bf4:	d02b      	beq.n	8007c4e <ts_formatstring+0x96>
 8007bf6:	2b73      	cmp	r3, #115	; 0x73
 8007bf8:	dc02      	bgt.n	8007c00 <ts_formatstring+0x48>
 8007bfa:	2b69      	cmp	r3, #105	; 0x69
 8007bfc:	d00f      	beq.n	8007c1e <ts_formatstring+0x66>
 8007bfe:	e056      	b.n	8007cae <ts_formatstring+0xf6>
 8007c00:	2b75      	cmp	r3, #117	; 0x75
 8007c02:	d037      	beq.n	8007c74 <ts_formatstring+0xbc>
 8007c04:	2b78      	cmp	r3, #120	; 0x78
 8007c06:	d040      	beq.n	8007c8a <ts_formatstring+0xd2>
 8007c08:	e051      	b.n	8007cae <ts_formatstring+0xf6>
			{
			  case 'c':
				*buf++ = va_arg(va, int);
 8007c0a:	68fb      	ldr	r3, [r7, #12]
 8007c0c:	1c5a      	adds	r2, r3, #1
 8007c0e:	60fa      	str	r2, [r7, #12]
 8007c10:	687a      	ldr	r2, [r7, #4]
 8007c12:	1d11      	adds	r1, r2, #4
 8007c14:	6079      	str	r1, [r7, #4]
 8007c16:	6812      	ldr	r2, [r2, #0]
 8007c18:	b2d2      	uxtb	r2, r2
 8007c1a:	701a      	strb	r2, [r3, #0]
				break;
 8007c1c:	e047      	b.n	8007cae <ts_formatstring+0xf6>
			  case 'd':
			  case 'i':
				{
					signed int val = va_arg(va, signed int);
 8007c1e:	687b      	ldr	r3, [r7, #4]
 8007c20:	1d1a      	adds	r2, r3, #4
 8007c22:	607a      	str	r2, [r7, #4]
 8007c24:	681b      	ldr	r3, [r3, #0]
 8007c26:	61fb      	str	r3, [r7, #28]
					if (val < 0)
 8007c28:	69fb      	ldr	r3, [r7, #28]
 8007c2a:	2b00      	cmp	r3, #0
 8007c2c:	da07      	bge.n	8007c3e <ts_formatstring+0x86>
					{
						val *= -1;
 8007c2e:	69fb      	ldr	r3, [r7, #28]
 8007c30:	425b      	negs	r3, r3
 8007c32:	61fb      	str	r3, [r7, #28]
						*buf++ = '-';
 8007c34:	68fb      	ldr	r3, [r7, #12]
 8007c36:	1c5a      	adds	r2, r3, #1
 8007c38:	60fa      	str	r2, [r7, #12]
 8007c3a:	222d      	movs	r2, #45	; 0x2d
 8007c3c:	701a      	strb	r2, [r3, #0]
					}
					ts_itoa(&buf, val, 10);
 8007c3e:	69f9      	ldr	r1, [r7, #28]
 8007c40:	f107 030c 	add.w	r3, r7, #12
 8007c44:	220a      	movs	r2, #10
 8007c46:	4618      	mov	r0, r3
 8007c48:	f7ff ff6e 	bl	8007b28 <ts_itoa>
				}
				break;
 8007c4c:	e02f      	b.n	8007cae <ts_formatstring+0xf6>
			  case 's':
				{
					char * arg = va_arg(va, char *);
 8007c4e:	687b      	ldr	r3, [r7, #4]
 8007c50:	1d1a      	adds	r2, r3, #4
 8007c52:	607a      	str	r2, [r7, #4]
 8007c54:	681b      	ldr	r3, [r3, #0]
 8007c56:	61bb      	str	r3, [r7, #24]
					while (*arg)
 8007c58:	e007      	b.n	8007c6a <ts_formatstring+0xb2>
					{
						*buf++ = *arg++;
 8007c5a:	68fb      	ldr	r3, [r7, #12]
 8007c5c:	1c5a      	adds	r2, r3, #1
 8007c5e:	60fa      	str	r2, [r7, #12]
 8007c60:	69ba      	ldr	r2, [r7, #24]
 8007c62:	1c51      	adds	r1, r2, #1
 8007c64:	61b9      	str	r1, [r7, #24]
 8007c66:	7812      	ldrb	r2, [r2, #0]
 8007c68:	701a      	strb	r2, [r3, #0]
				}
				break;
			  case 's':
				{
					char * arg = va_arg(va, char *);
					while (*arg)
 8007c6a:	69bb      	ldr	r3, [r7, #24]
 8007c6c:	781b      	ldrb	r3, [r3, #0]
 8007c6e:	2b00      	cmp	r3, #0
 8007c70:	d1f3      	bne.n	8007c5a <ts_formatstring+0xa2>
					{
						*buf++ = *arg++;
					}
				}
				break;
 8007c72:	e01c      	b.n	8007cae <ts_formatstring+0xf6>
			  case 'u':
					ts_itoa(&buf, va_arg(va, unsigned int), 10);
 8007c74:	687b      	ldr	r3, [r7, #4]
 8007c76:	1d1a      	adds	r2, r3, #4
 8007c78:	607a      	str	r2, [r7, #4]
 8007c7a:	6819      	ldr	r1, [r3, #0]
 8007c7c:	f107 030c 	add.w	r3, r7, #12
 8007c80:	220a      	movs	r2, #10
 8007c82:	4618      	mov	r0, r3
 8007c84:	f7ff ff50 	bl	8007b28 <ts_itoa>
				break;
 8007c88:	e011      	b.n	8007cae <ts_formatstring+0xf6>
			  case 'x':
			  case 'X':
					ts_itoa(&buf, va_arg(va, int), 16);
 8007c8a:	687b      	ldr	r3, [r7, #4]
 8007c8c:	1d1a      	adds	r2, r3, #4
 8007c8e:	607a      	str	r2, [r7, #4]
 8007c90:	681b      	ldr	r3, [r3, #0]
 8007c92:	4619      	mov	r1, r3
 8007c94:	f107 030c 	add.w	r3, r7, #12
 8007c98:	2210      	movs	r2, #16
 8007c9a:	4618      	mov	r0, r3
 8007c9c:	f7ff ff44 	bl	8007b28 <ts_itoa>
				break;
 8007ca0:	e005      	b.n	8007cae <ts_formatstring+0xf6>
			  case '%':
				  *buf++ = '%';
 8007ca2:	68fb      	ldr	r3, [r7, #12]
 8007ca4:	1c5a      	adds	r2, r3, #1
 8007ca6:	60fa      	str	r2, [r7, #12]
 8007ca8:	2225      	movs	r2, #37	; 0x25
 8007caa:	701a      	strb	r2, [r3, #0]
				  break;
 8007cac:	bf00      	nop
			}
			fmt++;
 8007cae:	68bb      	ldr	r3, [r7, #8]
 8007cb0:	3301      	adds	r3, #1
 8007cb2:	60bb      	str	r3, [r7, #8]
 8007cb4:	e007      	b.n	8007cc6 <ts_formatstring+0x10e>
		}
		/* Else just copy */
		else
		{
			*buf++ = *fmt++;
 8007cb6:	68fb      	ldr	r3, [r7, #12]
 8007cb8:	1c5a      	adds	r2, r3, #1
 8007cba:	60fa      	str	r2, [r7, #12]
 8007cbc:	68ba      	ldr	r2, [r7, #8]
 8007cbe:	1c51      	adds	r1, r2, #1
 8007cc0:	60b9      	str	r1, [r7, #8]
 8007cc2:	7812      	ldrb	r2, [r2, #0]
 8007cc4:	701a      	strb	r2, [r3, #0]
**---------------------------------------------------------------------------
*/
int ts_formatstring(char *buf, const char *fmt, va_list va)
{
	char *start_buf = buf;
	while(*fmt)
 8007cc6:	68bb      	ldr	r3, [r7, #8]
 8007cc8:	781b      	ldrb	r3, [r3, #0]
 8007cca:	2b00      	cmp	r3, #0
 8007ccc:	f47f af7d 	bne.w	8007bca <ts_formatstring+0x12>
		else
		{
			*buf++ = *fmt++;
		}
	}
	*buf = 0;
 8007cd0:	68fb      	ldr	r3, [r7, #12]
 8007cd2:	2200      	movs	r2, #0
 8007cd4:	701a      	strb	r2, [r3, #0]

	return (int)(buf - start_buf);
 8007cd6:	68fb      	ldr	r3, [r7, #12]
 8007cd8:	461a      	mov	r2, r3
 8007cda:	697b      	ldr	r3, [r7, #20]
 8007cdc:	1ad3      	subs	r3, r2, r3
}
 8007cde:	4618      	mov	r0, r3
 8007ce0:	3720      	adds	r7, #32
 8007ce2:	46bd      	mov	sp, r7
 8007ce4:	bd80      	pop	{r7, pc}
 8007ce6:	bf00      	nop

08007ce8 <siprintf>:
**            given character string according to the format parameter.
**  Returns:  Number of bytes written
**===========================================================================
*/
int siprintf(char *buf, const char *fmt, ...)
{
 8007ce8:	b40e      	push	{r1, r2, r3}
 8007cea:	b580      	push	{r7, lr}
 8007cec:	b085      	sub	sp, #20
 8007cee:	af00      	add	r7, sp, #0
 8007cf0:	6078      	str	r0, [r7, #4]
	int length;
	va_list va;
	va_start(va, fmt);
 8007cf2:	f107 0320 	add.w	r3, r7, #32
 8007cf6:	60bb      	str	r3, [r7, #8]
	length = ts_formatstring(buf, fmt, va);
 8007cf8:	68ba      	ldr	r2, [r7, #8]
 8007cfa:	69f9      	ldr	r1, [r7, #28]
 8007cfc:	6878      	ldr	r0, [r7, #4]
 8007cfe:	f7ff ff5b 	bl	8007bb8 <ts_formatstring>
 8007d02:	60f8      	str	r0, [r7, #12]
	va_end(va);
	return length;
 8007d04:	68fb      	ldr	r3, [r7, #12]
}
 8007d06:	4618      	mov	r0, r3
 8007d08:	3714      	adds	r7, #20
 8007d0a:	46bd      	mov	sp, r7
 8007d0c:	e8bd 4080 	ldmia.w	sp!, {r7, lr}
 8007d10:	b003      	add	sp, #12
 8007d12:	4770      	bx	lr

08007d14 <__libc_init_array>:
 8007d14:	4b0e      	ldr	r3, [pc, #56]	; (8007d50 <__libc_init_array+0x3c>)
 8007d16:	b570      	push	{r4, r5, r6, lr}
 8007d18:	461e      	mov	r6, r3
 8007d1a:	4c0e      	ldr	r4, [pc, #56]	; (8007d54 <__libc_init_array+0x40>)
 8007d1c:	2500      	movs	r5, #0
 8007d1e:	1ae4      	subs	r4, r4, r3
 8007d20:	10a4      	asrs	r4, r4, #2
 8007d22:	42a5      	cmp	r5, r4
 8007d24:	d004      	beq.n	8007d30 <__libc_init_array+0x1c>
 8007d26:	f856 3025 	ldr.w	r3, [r6, r5, lsl #2]
 8007d2a:	4798      	blx	r3
 8007d2c:	3501      	adds	r5, #1
 8007d2e:	e7f8      	b.n	8007d22 <__libc_init_array+0xe>
 8007d30:	f000 f822 	bl	8007d78 <_init>
 8007d34:	4b08      	ldr	r3, [pc, #32]	; (8007d58 <__libc_init_array+0x44>)
 8007d36:	4c09      	ldr	r4, [pc, #36]	; (8007d5c <__libc_init_array+0x48>)
 8007d38:	461e      	mov	r6, r3
 8007d3a:	1ae4      	subs	r4, r4, r3
 8007d3c:	10a4      	asrs	r4, r4, #2
 8007d3e:	2500      	movs	r5, #0
 8007d40:	42a5      	cmp	r5, r4
 8007d42:	d004      	beq.n	8007d4e <__libc_init_array+0x3a>
 8007d44:	f856 3025 	ldr.w	r3, [r6, r5, lsl #2]
 8007d48:	4798      	blx	r3
 8007d4a:	3501      	adds	r5, #1
 8007d4c:	e7f8      	b.n	8007d40 <__libc_init_array+0x2c>
 8007d4e:	bd70      	pop	{r4, r5, r6, pc}
 8007d50:	080085f4 	.word	0x080085f4
 8007d54:	080085f4 	.word	0x080085f4
 8007d58:	080085f4 	.word	0x080085f4
 8007d5c:	080085f8 	.word	0x080085f8

08007d60 <memcpy>:
 8007d60:	b510      	push	{r4, lr}
 8007d62:	1e43      	subs	r3, r0, #1
 8007d64:	440a      	add	r2, r1
 8007d66:	4291      	cmp	r1, r2
 8007d68:	d004      	beq.n	8007d74 <memcpy+0x14>
 8007d6a:	f811 4b01 	ldrb.w	r4, [r1], #1
 8007d6e:	f803 4f01 	strb.w	r4, [r3, #1]!
 8007d72:	e7f8      	b.n	8007d66 <memcpy+0x6>
 8007d74:	bd10      	pop	{r4, pc}
	...

08007d78 <_init>:
 8007d78:	b5f8      	push	{r3, r4, r5, r6, r7, lr}
 8007d7a:	bf00      	nop
 8007d7c:	bcf8      	pop	{r3, r4, r5, r6, r7}
 8007d7e:	bc08      	pop	{r3}
 8007d80:	469e      	mov	lr, r3
 8007d82:	4770      	bx	lr

08007d84 <_fini>:
 8007d84:	b5f8      	push	{r3, r4, r5, r6, r7, lr}
 8007d86:	bf00      	nop
 8007d88:	bcf8      	pop	{r3, r4, r5, r6, r7}
 8007d8a:	bc08      	pop	{r3}
 8007d8c:	469e      	mov	lr, r3
 8007d8e:	4770      	bx	lr
